
dttoggle.elf:     file format elf32-littlearm


Disassembly of section .isr_vector:

08000000 <g_pfnVectors>:
 8000000:	2001ffff 	strdcs	pc, [r1], -pc	; <UNPREDICTABLE>
 8000004:	08000c85 	stmdaeq	r0, {r0, r2, r7, sl, fp}
 8000008:	08000ccd 	stmdaeq	r0, {r0, r2, r3, r6, r7, sl, fp}
 800000c:	08000ccd 	stmdaeq	r0, {r0, r2, r3, r6, r7, sl, fp}
 8000010:	08000ccd 	stmdaeq	r0, {r0, r2, r3, r6, r7, sl, fp}
 8000014:	08000ccd 	stmdaeq	r0, {r0, r2, r3, r6, r7, sl, fp}
 8000018:	08000ccd 	stmdaeq	r0, {r0, r2, r3, r6, r7, sl, fp}
	...
 800002c:	08000ccd 	stmdaeq	r0, {r0, r2, r3, r6, r7, sl, fp}
 8000030:	08000ccd 	stmdaeq	r0, {r0, r2, r3, r6, r7, sl, fp}
 8000034:	00000000 	andeq	r0, r0, r0
 8000038:	08000ccd 	stmdaeq	r0, {r0, r2, r3, r6, r7, sl, fp}
 800003c:	08000ccd 	stmdaeq	r0, {r0, r2, r3, r6, r7, sl, fp}
 8000040:	08000ccd 	stmdaeq	r0, {r0, r2, r3, r6, r7, sl, fp}
 8000044:	08000ccd 	stmdaeq	r0, {r0, r2, r3, r6, r7, sl, fp}
 8000048:	08000ccd 	stmdaeq	r0, {r0, r2, r3, r6, r7, sl, fp}
 800004c:	08000ccd 	stmdaeq	r0, {r0, r2, r3, r6, r7, sl, fp}
 8000050:	08000ccd 	stmdaeq	r0, {r0, r2, r3, r6, r7, sl, fp}
 8000054:	08000ccd 	stmdaeq	r0, {r0, r2, r3, r6, r7, sl, fp}
 8000058:	08000ccd 	stmdaeq	r0, {r0, r2, r3, r6, r7, sl, fp}
 800005c:	08000ccd 	stmdaeq	r0, {r0, r2, r3, r6, r7, sl, fp}
 8000060:	08000ccd 	stmdaeq	r0, {r0, r2, r3, r6, r7, sl, fp}
 8000064:	08000ccd 	stmdaeq	r0, {r0, r2, r3, r6, r7, sl, fp}
 8000068:	08000ccd 	stmdaeq	r0, {r0, r2, r3, r6, r7, sl, fp}
 800006c:	08000ccd 	stmdaeq	r0, {r0, r2, r3, r6, r7, sl, fp}
 8000070:	08000ccd 	stmdaeq	r0, {r0, r2, r3, r6, r7, sl, fp}
 8000074:	08000ccd 	stmdaeq	r0, {r0, r2, r3, r6, r7, sl, fp}
 8000078:	08000ccd 	stmdaeq	r0, {r0, r2, r3, r6, r7, sl, fp}
 800007c:	08000ccd 	stmdaeq	r0, {r0, r2, r3, r6, r7, sl, fp}
 8000080:	08000ccd 	stmdaeq	r0, {r0, r2, r3, r6, r7, sl, fp}
 8000084:	08000ccd 	stmdaeq	r0, {r0, r2, r3, r6, r7, sl, fp}
 8000088:	08000ccd 	stmdaeq	r0, {r0, r2, r3, r6, r7, sl, fp}
 800008c:	08000ccd 	stmdaeq	r0, {r0, r2, r3, r6, r7, sl, fp}
 8000090:	08000ccd 	stmdaeq	r0, {r0, r2, r3, r6, r7, sl, fp}
 8000094:	08000ccd 	stmdaeq	r0, {r0, r2, r3, r6, r7, sl, fp}
 8000098:	08000ccd 	stmdaeq	r0, {r0, r2, r3, r6, r7, sl, fp}
 800009c:	08000ccd 	stmdaeq	r0, {r0, r2, r3, r6, r7, sl, fp}
 80000a0:	08000ccd 	stmdaeq	r0, {r0, r2, r3, r6, r7, sl, fp}
 80000a4:	08000ccd 	stmdaeq	r0, {r0, r2, r3, r6, r7, sl, fp}
 80000a8:	08000ccd 	stmdaeq	r0, {r0, r2, r3, r6, r7, sl, fp}
 80000ac:	08000ccd 	stmdaeq	r0, {r0, r2, r3, r6, r7, sl, fp}
 80000b0:	08000ccd 	stmdaeq	r0, {r0, r2, r3, r6, r7, sl, fp}
 80000b4:	08000ccd 	stmdaeq	r0, {r0, r2, r3, r6, r7, sl, fp}
 80000b8:	08000ccd 	stmdaeq	r0, {r0, r2, r3, r6, r7, sl, fp}
 80000bc:	08000ccd 	stmdaeq	r0, {r0, r2, r3, r6, r7, sl, fp}
 80000c0:	08000ccd 	stmdaeq	r0, {r0, r2, r3, r6, r7, sl, fp}
 80000c4:	08000ccd 	stmdaeq	r0, {r0, r2, r3, r6, r7, sl, fp}
 80000c8:	08000ccd 	stmdaeq	r0, {r0, r2, r3, r6, r7, sl, fp}
 80000cc:	08000ccd 	stmdaeq	r0, {r0, r2, r3, r6, r7, sl, fp}
 80000d0:	08000ccd 	stmdaeq	r0, {r0, r2, r3, r6, r7, sl, fp}
 80000d4:	08000ccd 	stmdaeq	r0, {r0, r2, r3, r6, r7, sl, fp}
 80000d8:	08000ccd 	stmdaeq	r0, {r0, r2, r3, r6, r7, sl, fp}
 80000dc:	08000ccd 	stmdaeq	r0, {r0, r2, r3, r6, r7, sl, fp}
 80000e0:	08000ccd 	stmdaeq	r0, {r0, r2, r3, r6, r7, sl, fp}
 80000e4:	08000ccd 	stmdaeq	r0, {r0, r2, r3, r6, r7, sl, fp}
 80000e8:	08000ccd 	stmdaeq	r0, {r0, r2, r3, r6, r7, sl, fp}
 80000ec:	08000ccd 	stmdaeq	r0, {r0, r2, r3, r6, r7, sl, fp}
 80000f0:	08000ccd 	stmdaeq	r0, {r0, r2, r3, r6, r7, sl, fp}
 80000f4:	08000ccd 	stmdaeq	r0, {r0, r2, r3, r6, r7, sl, fp}
 80000f8:	08000ccd 	stmdaeq	r0, {r0, r2, r3, r6, r7, sl, fp}
 80000fc:	08000ccd 	stmdaeq	r0, {r0, r2, r3, r6, r7, sl, fp}
 8000100:	08000ccd 	stmdaeq	r0, {r0, r2, r3, r6, r7, sl, fp}
 8000104:	08000ccd 	stmdaeq	r0, {r0, r2, r3, r6, r7, sl, fp}
 8000108:	08000ccd 	stmdaeq	r0, {r0, r2, r3, r6, r7, sl, fp}
 800010c:	08000ccd 	stmdaeq	r0, {r0, r2, r3, r6, r7, sl, fp}
 8000110:	08000ccd 	stmdaeq	r0, {r0, r2, r3, r6, r7, sl, fp}
 8000114:	08000ccd 	stmdaeq	r0, {r0, r2, r3, r6, r7, sl, fp}
 8000118:	08000ccd 	stmdaeq	r0, {r0, r2, r3, r6, r7, sl, fp}
 800011c:	08000ccd 	stmdaeq	r0, {r0, r2, r3, r6, r7, sl, fp}
 8000120:	08000ccd 	stmdaeq	r0, {r0, r2, r3, r6, r7, sl, fp}
 8000124:	08000ccd 	stmdaeq	r0, {r0, r2, r3, r6, r7, sl, fp}
 8000128:	08000ccd 	stmdaeq	r0, {r0, r2, r3, r6, r7, sl, fp}
 800012c:	08000ccd 	stmdaeq	r0, {r0, r2, r3, r6, r7, sl, fp}
 8000130:	08000ccd 	stmdaeq	r0, {r0, r2, r3, r6, r7, sl, fp}
 8000134:	08000ccd 	stmdaeq	r0, {r0, r2, r3, r6, r7, sl, fp}
 8000138:	08000ccd 	stmdaeq	r0, {r0, r2, r3, r6, r7, sl, fp}
 800013c:	08000ccd 	stmdaeq	r0, {r0, r2, r3, r6, r7, sl, fp}
 8000140:	08000ccd 	stmdaeq	r0, {r0, r2, r3, r6, r7, sl, fp}
 8000144:	08000ccd 	stmdaeq	r0, {r0, r2, r3, r6, r7, sl, fp}
 8000148:	08000ccd 	stmdaeq	r0, {r0, r2, r3, r6, r7, sl, fp}
 800014c:	08000ccd 	stmdaeq	r0, {r0, r2, r3, r6, r7, sl, fp}
 8000150:	08000ccd 	stmdaeq	r0, {r0, r2, r3, r6, r7, sl, fp}
 8000154:	08000ccd 	stmdaeq	r0, {r0, r2, r3, r6, r7, sl, fp}
 8000158:	08000ccd 	stmdaeq	r0, {r0, r2, r3, r6, r7, sl, fp}
 800015c:	08000ccd 	stmdaeq	r0, {r0, r2, r3, r6, r7, sl, fp}
 8000160:	08000ccd 	stmdaeq	r0, {r0, r2, r3, r6, r7, sl, fp}
 8000164:	08000ccd 	stmdaeq	r0, {r0, r2, r3, r6, r7, sl, fp}
 8000168:	08000ccd 	stmdaeq	r0, {r0, r2, r3, r6, r7, sl, fp}
 800016c:	08000ccd 	stmdaeq	r0, {r0, r2, r3, r6, r7, sl, fp}
 8000170:	08000ccd 	stmdaeq	r0, {r0, r2, r3, r6, r7, sl, fp}
 8000174:	08000ccd 	stmdaeq	r0, {r0, r2, r3, r6, r7, sl, fp}
 8000178:	08000ccd 	stmdaeq	r0, {r0, r2, r3, r6, r7, sl, fp}
 800017c:	08000ccd 	stmdaeq	r0, {r0, r2, r3, r6, r7, sl, fp}
 8000180:	08000ccd 	stmdaeq	r0, {r0, r2, r3, r6, r7, sl, fp}
 8000184:	08000ccd 	stmdaeq	r0, {r0, r2, r3, r6, r7, sl, fp}

Disassembly of section .text:

08000188 <__do_global_dtors_aux>:
 8000188:	b510      	push	{r4, lr}
 800018a:	4c05      	ldr	r4, [pc, #20]	; (80001a0 <__do_global_dtors_aux+0x18>)
 800018c:	7823      	ldrb	r3, [r4, #0]
 800018e:	b933      	cbnz	r3, 800019e <__do_global_dtors_aux+0x16>
 8000190:	4b04      	ldr	r3, [pc, #16]	; (80001a4 <__do_global_dtors_aux+0x1c>)
 8000192:	b113      	cbz	r3, 800019a <__do_global_dtors_aux+0x12>
 8000194:	4804      	ldr	r0, [pc, #16]	; (80001a8 <__do_global_dtors_aux+0x20>)
 8000196:	f3af 8000 	nop.w
 800019a:	2301      	movs	r3, #1
 800019c:	7023      	strb	r3, [r4, #0]
 800019e:	bd10      	pop	{r4, pc}
 80001a0:	20000458 	andcs	r0, r0, r8, asr r4
 80001a4:	00000000 	andeq	r0, r0, r0
 80001a8:	08000fa4 	stmdaeq	r0, {r2, r5, r7, r8, r9, sl, fp}

080001ac <frame_dummy>:
 80001ac:	4b08      	ldr	r3, [pc, #32]	; (80001d0 <frame_dummy+0x24>)
 80001ae:	b510      	push	{r4, lr}
 80001b0:	b11b      	cbz	r3, 80001ba <frame_dummy+0xe>
 80001b2:	4808      	ldr	r0, [pc, #32]	; (80001d4 <frame_dummy+0x28>)
 80001b4:	4908      	ldr	r1, [pc, #32]	; (80001d8 <frame_dummy+0x2c>)
 80001b6:	f3af 8000 	nop.w
 80001ba:	4808      	ldr	r0, [pc, #32]	; (80001dc <frame_dummy+0x30>)
 80001bc:	6803      	ldr	r3, [r0, #0]
 80001be:	b903      	cbnz	r3, 80001c2 <frame_dummy+0x16>
 80001c0:	bd10      	pop	{r4, pc}
 80001c2:	4b07      	ldr	r3, [pc, #28]	; (80001e0 <frame_dummy+0x34>)
 80001c4:	2b00      	cmp	r3, #0
 80001c6:	d0fb      	beq.n	80001c0 <frame_dummy+0x14>
 80001c8:	e8bd 4010 	ldmia.w	sp!, {r4, lr}
 80001cc:	4718      	bx	r3
 80001ce:	bf00      	nop
 80001d0:	00000000 	andeq	r0, r0, r0
 80001d4:	08000fa4 	stmdaeq	r0, {r2, r5, r7, r8, r9, sl, fp}
 80001d8:	2000045c 	andcs	r0, r0, ip, asr r4
 80001dc:	20000454 	andcs	r0, r0, r4, asr r4
 80001e0:	00000000 	andeq	r0, r0, r0

080001e4 <_mainCRTStartup>:
 80001e4:	4b15      	ldr	r3, [pc, #84]	; (800023c <_mainCRTStartup+0x58>)
 80001e6:	2b00      	cmp	r3, #0
 80001e8:	bf08      	it	eq
 80001ea:	4b13      	ldreq	r3, [pc, #76]	; (8000238 <_mainCRTStartup+0x54>)
 80001ec:	469d      	mov	sp, r3
 80001ee:	f5a3 3a80 	sub.w	sl, r3, #65536	; 0x10000
 80001f2:	2100      	movs	r1, #0
 80001f4:	468b      	mov	fp, r1
 80001f6:	460f      	mov	r7, r1
 80001f8:	4813      	ldr	r0, [pc, #76]	; (8000248 <_mainCRTStartup+0x64>)
 80001fa:	4a14      	ldr	r2, [pc, #80]	; (800024c <_mainCRTStartup+0x68>)
 80001fc:	1a12      	subs	r2, r2, r0
 80001fe:	f000 fd9f 	bl	8000d40 <memset>
 8000202:	4b0f      	ldr	r3, [pc, #60]	; (8000240 <_mainCRTStartup+0x5c>)
 8000204:	2b00      	cmp	r3, #0
 8000206:	d000      	beq.n	800020a <_mainCRTStartup+0x26>
 8000208:	4798      	blx	r3
 800020a:	4b0e      	ldr	r3, [pc, #56]	; (8000244 <_mainCRTStartup+0x60>)
 800020c:	2b00      	cmp	r3, #0
 800020e:	d000      	beq.n	8000212 <_mainCRTStartup+0x2e>
 8000210:	4798      	blx	r3
 8000212:	2000      	movs	r0, #0
 8000214:	2100      	movs	r1, #0
 8000216:	0004      	movs	r4, r0
 8000218:	000d      	movs	r5, r1
 800021a:	480d      	ldr	r0, [pc, #52]	; (8000250 <_mainCRTStartup+0x6c>)
 800021c:	2800      	cmp	r0, #0
 800021e:	d002      	beq.n	8000226 <_mainCRTStartup+0x42>
 8000220:	480c      	ldr	r0, [pc, #48]	; (8000254 <_mainCRTStartup+0x70>)
 8000222:	f000 fe4f 	bl	8000ec4 <atexit>
 8000226:	f000 fd63 	bl	8000cf0 <__libc_init_array>
 800022a:	0020      	movs	r0, r4
 800022c:	0029      	movs	r1, r5
 800022e:	f000 fcdf 	bl	8000bf0 <main>
 8000232:	f000 fd4d 	bl	8000cd0 <exit>
 8000236:	bf00      	nop
 8000238:	00080000 	andeq	r0, r8, r0
	...
 8000248:	20000458 	andcs	r0, r0, r8, asr r4
 800024c:	20000474 	andcs	r0, r0, r4, ror r4
 8000250:	08000ec5 	stmdaeq	r0, {r0, r2, r6, r7, r9, sl, fp}
 8000254:	08000ed1 	stmdaeq	r0, {r0, r4, r6, r7, r9, sl, fp}

08000258 <GPIO_DeInit>:
 8000258:	b508      	push	{r3, lr}
 800025a:	4b4b      	ldr	r3, [pc, #300]	; (8000388 <GPIO_DeInit+0x130>)
 800025c:	4298      	cmp	r0, r3
 800025e:	d02a      	beq.n	80002b6 <GPIO_DeInit+0x5e>
 8000260:	4b4a      	ldr	r3, [pc, #296]	; (800038c <GPIO_DeInit+0x134>)
 8000262:	4298      	cmp	r0, r3
 8000264:	d031      	beq.n	80002ca <GPIO_DeInit+0x72>
 8000266:	4b4a      	ldr	r3, [pc, #296]	; (8000390 <GPIO_DeInit+0x138>)
 8000268:	4298      	cmp	r0, r3
 800026a:	d038      	beq.n	80002de <GPIO_DeInit+0x86>
 800026c:	4b49      	ldr	r3, [pc, #292]	; (8000394 <GPIO_DeInit+0x13c>)
 800026e:	4298      	cmp	r0, r3
 8000270:	d03f      	beq.n	80002f2 <GPIO_DeInit+0x9a>
 8000272:	4b49      	ldr	r3, [pc, #292]	; (8000398 <GPIO_DeInit+0x140>)
 8000274:	4298      	cmp	r0, r3
 8000276:	d046      	beq.n	8000306 <GPIO_DeInit+0xae>
 8000278:	4b48      	ldr	r3, [pc, #288]	; (800039c <GPIO_DeInit+0x144>)
 800027a:	4298      	cmp	r0, r3
 800027c:	d04d      	beq.n	800031a <GPIO_DeInit+0xc2>
 800027e:	4b48      	ldr	r3, [pc, #288]	; (80003a0 <GPIO_DeInit+0x148>)
 8000280:	4298      	cmp	r0, r3
 8000282:	d054      	beq.n	800032e <GPIO_DeInit+0xd6>
 8000284:	4b47      	ldr	r3, [pc, #284]	; (80003a4 <GPIO_DeInit+0x14c>)
 8000286:	4298      	cmp	r0, r3
 8000288:	d05b      	beq.n	8000342 <GPIO_DeInit+0xea>
 800028a:	4b47      	ldr	r3, [pc, #284]	; (80003a8 <GPIO_DeInit+0x150>)
 800028c:	4298      	cmp	r0, r3
 800028e:	d062      	beq.n	8000356 <GPIO_DeInit+0xfe>
 8000290:	4b46      	ldr	r3, [pc, #280]	; (80003ac <GPIO_DeInit+0x154>)
 8000292:	4298      	cmp	r0, r3
 8000294:	d06b      	beq.n	800036e <GPIO_DeInit+0x116>
 8000296:	4b46      	ldr	r3, [pc, #280]	; (80003b0 <GPIO_DeInit+0x158>)
 8000298:	4298      	cmp	r0, r3
 800029a:	d000      	beq.n	800029e <GPIO_DeInit+0x46>
 800029c:	bd08      	pop	{r3, pc}
 800029e:	f44f 6080 	mov.w	r0, #1024	; 0x400
 80002a2:	2101      	movs	r1, #1
 80002a4:	f000 fb1e 	bl	80008e4 <RCC_AHB1PeriphResetCmd>
 80002a8:	f44f 6080 	mov.w	r0, #1024	; 0x400
 80002ac:	2100      	movs	r1, #0
 80002ae:	e8bd 4008 	ldmia.w	sp!, {r3, lr}
 80002b2:	f000 bb17 	b.w	80008e4 <RCC_AHB1PeriphResetCmd>
 80002b6:	2001      	movs	r0, #1
 80002b8:	4601      	mov	r1, r0
 80002ba:	f000 fb13 	bl	80008e4 <RCC_AHB1PeriphResetCmd>
 80002be:	2001      	movs	r0, #1
 80002c0:	2100      	movs	r1, #0
 80002c2:	e8bd 4008 	ldmia.w	sp!, {r3, lr}
 80002c6:	f000 bb0d 	b.w	80008e4 <RCC_AHB1PeriphResetCmd>
 80002ca:	2002      	movs	r0, #2
 80002cc:	2101      	movs	r1, #1
 80002ce:	f000 fb09 	bl	80008e4 <RCC_AHB1PeriphResetCmd>
 80002d2:	2002      	movs	r0, #2
 80002d4:	2100      	movs	r1, #0
 80002d6:	e8bd 4008 	ldmia.w	sp!, {r3, lr}
 80002da:	f000 bb03 	b.w	80008e4 <RCC_AHB1PeriphResetCmd>
 80002de:	2004      	movs	r0, #4
 80002e0:	2101      	movs	r1, #1
 80002e2:	f000 faff 	bl	80008e4 <RCC_AHB1PeriphResetCmd>
 80002e6:	2004      	movs	r0, #4
 80002e8:	2100      	movs	r1, #0
 80002ea:	e8bd 4008 	ldmia.w	sp!, {r3, lr}
 80002ee:	f000 baf9 	b.w	80008e4 <RCC_AHB1PeriphResetCmd>
 80002f2:	2008      	movs	r0, #8
 80002f4:	2101      	movs	r1, #1
 80002f6:	f000 faf5 	bl	80008e4 <RCC_AHB1PeriphResetCmd>
 80002fa:	2008      	movs	r0, #8
 80002fc:	2100      	movs	r1, #0
 80002fe:	e8bd 4008 	ldmia.w	sp!, {r3, lr}
 8000302:	f000 baef 	b.w	80008e4 <RCC_AHB1PeriphResetCmd>
 8000306:	2010      	movs	r0, #16
 8000308:	2101      	movs	r1, #1
 800030a:	f000 faeb 	bl	80008e4 <RCC_AHB1PeriphResetCmd>
 800030e:	2010      	movs	r0, #16
 8000310:	2100      	movs	r1, #0
 8000312:	e8bd 4008 	ldmia.w	sp!, {r3, lr}
 8000316:	f000 bae5 	b.w	80008e4 <RCC_AHB1PeriphResetCmd>
 800031a:	2020      	movs	r0, #32
 800031c:	2101      	movs	r1, #1
 800031e:	f000 fae1 	bl	80008e4 <RCC_AHB1PeriphResetCmd>
 8000322:	2020      	movs	r0, #32
 8000324:	2100      	movs	r1, #0
 8000326:	e8bd 4008 	ldmia.w	sp!, {r3, lr}
 800032a:	f000 badb 	b.w	80008e4 <RCC_AHB1PeriphResetCmd>
 800032e:	2040      	movs	r0, #64	; 0x40
 8000330:	2101      	movs	r1, #1
 8000332:	f000 fad7 	bl	80008e4 <RCC_AHB1PeriphResetCmd>
 8000336:	2040      	movs	r0, #64	; 0x40
 8000338:	2100      	movs	r1, #0
 800033a:	e8bd 4008 	ldmia.w	sp!, {r3, lr}
 800033e:	f000 bad1 	b.w	80008e4 <RCC_AHB1PeriphResetCmd>
 8000342:	2080      	movs	r0, #128	; 0x80
 8000344:	2101      	movs	r1, #1
 8000346:	f000 facd 	bl	80008e4 <RCC_AHB1PeriphResetCmd>
 800034a:	2080      	movs	r0, #128	; 0x80
 800034c:	2100      	movs	r1, #0
 800034e:	e8bd 4008 	ldmia.w	sp!, {r3, lr}
 8000352:	f000 bac7 	b.w	80008e4 <RCC_AHB1PeriphResetCmd>
 8000356:	f44f 7080 	mov.w	r0, #256	; 0x100
 800035a:	2101      	movs	r1, #1
 800035c:	f000 fac2 	bl	80008e4 <RCC_AHB1PeriphResetCmd>
 8000360:	f44f 7080 	mov.w	r0, #256	; 0x100
 8000364:	2100      	movs	r1, #0
 8000366:	e8bd 4008 	ldmia.w	sp!, {r3, lr}
 800036a:	f000 babb 	b.w	80008e4 <RCC_AHB1PeriphResetCmd>
 800036e:	f44f 7000 	mov.w	r0, #512	; 0x200
 8000372:	2101      	movs	r1, #1
 8000374:	f000 fab6 	bl	80008e4 <RCC_AHB1PeriphResetCmd>
 8000378:	f44f 7000 	mov.w	r0, #512	; 0x200
 800037c:	2100      	movs	r1, #0
 800037e:	e8bd 4008 	ldmia.w	sp!, {r3, lr}
 8000382:	f000 baaf 	b.w	80008e4 <RCC_AHB1PeriphResetCmd>
 8000386:	bf00      	nop
 8000388:	40020000 	andmi	r0, r2, r0
 800038c:	40020400 	andmi	r0, r2, r0, lsl #8
 8000390:	40020800 	andmi	r0, r2, r0, lsl #16
 8000394:	40020c00 	andmi	r0, r2, r0, lsl #24
 8000398:	40021000 	andmi	r1, r2, r0
 800039c:	40021400 	andmi	r1, r2, r0, lsl #8
 80003a0:	40021800 	andmi	r1, r2, r0, lsl #16
 80003a4:	40021c00 	andmi	r1, r2, r0, lsl #24
 80003a8:	40022000 	andmi	r2, r2, r0
 80003ac:	40022400 	andmi	r2, r2, r0, lsl #8
 80003b0:	40022800 	andmi	r2, r2, r0, lsl #16

080003b4 <GPIO_Init>:
 80003b4:	2200      	movs	r2, #0
 80003b6:	e92d 43f0 	stmdb	sp!, {r4, r5, r6, r7, r8, r9, lr}
 80003ba:	4613      	mov	r3, r2
 80003bc:	f8d1 e000 	ldr.w	lr, [r1]
 80003c0:	2701      	movs	r7, #1
 80003c2:	f04f 0c03 	mov.w	ip, #3
 80003c6:	e004      	b.n	80003d2 <GPIO_Init+0x1e>
 80003c8:	3301      	adds	r3, #1
 80003ca:	2b10      	cmp	r3, #16
 80003cc:	f102 0202 	add.w	r2, r2, #2
 80003d0:	d028      	beq.n	8000424 <GPIO_Init+0x70>
 80003d2:	fa07 f403 	lsl.w	r4, r7, r3
 80003d6:	ea04 050e 	and.w	r5, r4, lr
 80003da:	42a5      	cmp	r5, r4
 80003dc:	d1f4      	bne.n	80003c8 <GPIO_Init+0x14>
 80003de:	f8d0 8000 	ldr.w	r8, [r0]
 80003e2:	790e      	ldrb	r6, [r1, #4]
 80003e4:	fa0c f402 	lsl.w	r4, ip, r2
 80003e8:	43e4      	mvns	r4, r4
 80003ea:	ea04 0808 	and.w	r8, r4, r8
 80003ee:	f8c0 8000 	str.w	r8, [r0]
 80003f2:	f8d0 8000 	ldr.w	r8, [r0]
 80003f6:	fa06 f902 	lsl.w	r9, r6, r2
 80003fa:	3e01      	subs	r6, #1
 80003fc:	ea49 0808 	orr.w	r8, r9, r8
 8000400:	2e01      	cmp	r6, #1
 8000402:	f8c0 8000 	str.w	r8, [r0]
 8000406:	d90f      	bls.n	8000428 <GPIO_Init+0x74>
 8000408:	68c5      	ldr	r5, [r0, #12]
 800040a:	79ce      	ldrb	r6, [r1, #7]
 800040c:	402c      	ands	r4, r5
 800040e:	60c4      	str	r4, [r0, #12]
 8000410:	68c5      	ldr	r5, [r0, #12]
 8000412:	fa06 f402 	lsl.w	r4, r6, r2
 8000416:	3301      	adds	r3, #1
 8000418:	432c      	orrs	r4, r5
 800041a:	2b10      	cmp	r3, #16
 800041c:	60c4      	str	r4, [r0, #12]
 800041e:	f102 0202 	add.w	r2, r2, #2
 8000422:	d1d6      	bne.n	80003d2 <GPIO_Init+0x1e>
 8000424:	e8bd 83f0 	ldmia.w	sp!, {r4, r5, r6, r7, r8, r9, pc}
 8000428:	f8d0 9008 	ldr.w	r9, [r0, #8]
 800042c:	f891 8005 	ldrb.w	r8, [r1, #5]
 8000430:	798e      	ldrb	r6, [r1, #6]
 8000432:	ea04 0909 	and.w	r9, r4, r9
 8000436:	f8c0 9008 	str.w	r9, [r0, #8]
 800043a:	f8d0 9008 	ldr.w	r9, [r0, #8]
 800043e:	fa08 f802 	lsl.w	r8, r8, r2
 8000442:	ea48 0809 	orr.w	r8, r8, r9
 8000446:	f8c0 8008 	str.w	r8, [r0, #8]
 800044a:	f8d0 8004 	ldr.w	r8, [r0, #4]
 800044e:	ea28 0505 	bic.w	r5, r8, r5
 8000452:	6045      	str	r5, [r0, #4]
 8000454:	f8d0 8004 	ldr.w	r8, [r0, #4]
 8000458:	fa06 f503 	lsl.w	r5, r6, r3
 800045c:	b2ad      	uxth	r5, r5
 800045e:	ea45 0508 	orr.w	r5, r5, r8
 8000462:	6045      	str	r5, [r0, #4]
 8000464:	e7d0      	b.n	8000408 <GPIO_Init+0x54>
 8000466:	bf00      	nop

08000468 <GPIO_StructInit>:
 8000468:	2300      	movs	r3, #0
 800046a:	f64f 72ff 	movw	r2, #65535	; 0xffff
 800046e:	6002      	str	r2, [r0, #0]
 8000470:	7103      	strb	r3, [r0, #4]
 8000472:	7143      	strb	r3, [r0, #5]
 8000474:	7183      	strb	r3, [r0, #6]
 8000476:	71c3      	strb	r3, [r0, #7]
 8000478:	4770      	bx	lr
 800047a:	bf00      	nop

0800047c <GPIO_PinLockConfig>:
 800047c:	b082      	sub	sp, #8
 800047e:	f44f 3380 	mov.w	r3, #65536	; 0x10000
 8000482:	9301      	str	r3, [sp, #4]
 8000484:	9b01      	ldr	r3, [sp, #4]
 8000486:	430b      	orrs	r3, r1
 8000488:	9301      	str	r3, [sp, #4]
 800048a:	9b01      	ldr	r3, [sp, #4]
 800048c:	61c3      	str	r3, [r0, #28]
 800048e:	61c1      	str	r1, [r0, #28]
 8000490:	9b01      	ldr	r3, [sp, #4]
 8000492:	61c3      	str	r3, [r0, #28]
 8000494:	69c3      	ldr	r3, [r0, #28]
 8000496:	9301      	str	r3, [sp, #4]
 8000498:	69c3      	ldr	r3, [r0, #28]
 800049a:	9301      	str	r3, [sp, #4]
 800049c:	b002      	add	sp, #8
 800049e:	4770      	bx	lr

080004a0 <GPIO_ReadInputDataBit>:
 80004a0:	6903      	ldr	r3, [r0, #16]
 80004a2:	4219      	tst	r1, r3
 80004a4:	bf14      	ite	ne
 80004a6:	2001      	movne	r0, #1
 80004a8:	2000      	moveq	r0, #0
 80004aa:	4770      	bx	lr

080004ac <GPIO_ReadInputData>:
 80004ac:	6900      	ldr	r0, [r0, #16]
 80004ae:	b280      	uxth	r0, r0
 80004b0:	4770      	bx	lr
 80004b2:	bf00      	nop

080004b4 <GPIO_ReadOutputDataBit>:
 80004b4:	6943      	ldr	r3, [r0, #20]
 80004b6:	4219      	tst	r1, r3
 80004b8:	bf14      	ite	ne
 80004ba:	2001      	movne	r0, #1
 80004bc:	2000      	moveq	r0, #0
 80004be:	4770      	bx	lr

080004c0 <GPIO_ReadOutputData>:
 80004c0:	6940      	ldr	r0, [r0, #20]
 80004c2:	b280      	uxth	r0, r0
 80004c4:	4770      	bx	lr
 80004c6:	bf00      	nop

080004c8 <GPIO_SetBits>:
 80004c8:	8301      	strh	r1, [r0, #24]
 80004ca:	4770      	bx	lr

080004cc <GPIO_ResetBits>:
 80004cc:	8341      	strh	r1, [r0, #26]
 80004ce:	4770      	bx	lr

080004d0 <GPIO_WriteBit>:
 80004d0:	b90a      	cbnz	r2, 80004d6 <GPIO_WriteBit+0x6>
 80004d2:	8341      	strh	r1, [r0, #26]
 80004d4:	4770      	bx	lr
 80004d6:	8301      	strh	r1, [r0, #24]
 80004d8:	4770      	bx	lr
 80004da:	bf00      	nop

080004dc <GPIO_Write>:
 80004dc:	6141      	str	r1, [r0, #20]
 80004de:	4770      	bx	lr

080004e0 <GPIO_ToggleBits>:
 80004e0:	6943      	ldr	r3, [r0, #20]
 80004e2:	4059      	eors	r1, r3
 80004e4:	6141      	str	r1, [r0, #20]
 80004e6:	4770      	bx	lr

080004e8 <GPIO_PinAFConfig>:
 80004e8:	08cb      	lsrs	r3, r1, #3
 80004ea:	eb00 0083 	add.w	r0, r0, r3, lsl #2
 80004ee:	f001 0107 	and.w	r1, r1, #7
 80004f2:	b410      	push	{r4}
 80004f4:	0089      	lsls	r1, r1, #2
 80004f6:	6a04      	ldr	r4, [r0, #32]
 80004f8:	230f      	movs	r3, #15
 80004fa:	408b      	lsls	r3, r1
 80004fc:	ea24 0303 	bic.w	r3, r4, r3
 8000500:	6203      	str	r3, [r0, #32]
 8000502:	6a03      	ldr	r3, [r0, #32]
 8000504:	f85d 4b04 	ldr.w	r4, [sp], #4
 8000508:	408a      	lsls	r2, r1
 800050a:	4313      	orrs	r3, r2
 800050c:	6203      	str	r3, [r0, #32]
 800050e:	4770      	bx	lr

08000510 <RCC_DeInit>:
 8000510:	4b0f      	ldr	r3, [pc, #60]	; (8000550 <RCC_DeInit+0x40>)
 8000512:	4810      	ldr	r0, [pc, #64]	; (8000554 <RCC_DeInit+0x44>)
 8000514:	681a      	ldr	r2, [r3, #0]
 8000516:	2100      	movs	r1, #0
 8000518:	f042 0201 	orr.w	r2, r2, #1
 800051c:	b430      	push	{r4, r5}
 800051e:	601a      	str	r2, [r3, #0]
 8000520:	6099      	str	r1, [r3, #8]
 8000522:	681a      	ldr	r2, [r3, #0]
 8000524:	4d0c      	ldr	r5, [pc, #48]	; (8000558 <RCC_DeInit+0x48>)
 8000526:	4c0d      	ldr	r4, [pc, #52]	; (800055c <RCC_DeInit+0x4c>)
 8000528:	f022 52a8 	bic.w	r2, r2, #352321536	; 0x15000000
 800052c:	f422 2210 	bic.w	r2, r2, #589824	; 0x90000
 8000530:	601a      	str	r2, [r3, #0]
 8000532:	605d      	str	r5, [r3, #4]
 8000534:	f8c3 4084 	str.w	r4, [r3, #132]	; 0x84
 8000538:	f8c3 0088 	str.w	r0, [r3, #136]	; 0x88
 800053c:	681a      	ldr	r2, [r3, #0]
 800053e:	f422 2280 	bic.w	r2, r2, #262144	; 0x40000
 8000542:	601a      	str	r2, [r3, #0]
 8000544:	bc30      	pop	{r4, r5}
 8000546:	60d9      	str	r1, [r3, #12]
 8000548:	f8c3 108c 	str.w	r1, [r3, #140]	; 0x8c
 800054c:	4770      	bx	lr
 800054e:	bf00      	nop
 8000550:	40023800 	andmi	r3, r2, r0, lsl #16
 8000554:	24003000 	strcs	r3, [r0], #-0
 8000558:	24003010 	strcs	r3, [r0], #-16
 800055c:	20003000 	andcs	r3, r0, r0

08000560 <RCC_HSEConfig>:
 8000560:	4b02      	ldr	r3, [pc, #8]	; (800056c <RCC_HSEConfig+0xc>)
 8000562:	2200      	movs	r2, #0
 8000564:	701a      	strb	r2, [r3, #0]
 8000566:	7018      	strb	r0, [r3, #0]
 8000568:	4770      	bx	lr
 800056a:	bf00      	nop
 800056c:	40023802 	andmi	r3, r2, r2, lsl #16

08000570 <RCC_WaitForHSEStartUp>:
 8000570:	b082      	sub	sp, #8
 8000572:	2300      	movs	r3, #0
 8000574:	4a0a      	ldr	r2, [pc, #40]	; (80005a0 <RCC_WaitForHSEStartUp+0x30>)
 8000576:	9301      	str	r3, [sp, #4]
 8000578:	e002      	b.n	8000580 <RCC_WaitForHSEStartUp+0x10>
 800057a:	f5b3 4fa0 	cmp.w	r3, #20480	; 0x5000
 800057e:	d008      	beq.n	8000592 <RCC_WaitForHSEStartUp+0x22>
 8000580:	6813      	ldr	r3, [r2, #0]
 8000582:	f413 3f00 	tst.w	r3, #131072	; 0x20000
 8000586:	9b01      	ldr	r3, [sp, #4]
 8000588:	f103 0301 	add.w	r3, r3, #1
 800058c:	9301      	str	r3, [sp, #4]
 800058e:	9b01      	ldr	r3, [sp, #4]
 8000590:	d0f3      	beq.n	800057a <RCC_WaitForHSEStartUp+0xa>
 8000592:	4b03      	ldr	r3, [pc, #12]	; (80005a0 <RCC_WaitForHSEStartUp+0x30>)
 8000594:	6818      	ldr	r0, [r3, #0]
 8000596:	f3c0 4040 	ubfx	r0, r0, #17, #1
 800059a:	b002      	add	sp, #8
 800059c:	4770      	bx	lr
 800059e:	bf00      	nop
 80005a0:	40023800 	andmi	r3, r2, r0, lsl #16

080005a4 <RCC_AdjustHSICalibrationValue>:
 80005a4:	4a03      	ldr	r2, [pc, #12]	; (80005b4 <RCC_AdjustHSICalibrationValue+0x10>)
 80005a6:	6813      	ldr	r3, [r2, #0]
 80005a8:	f023 03f8 	bic.w	r3, r3, #248	; 0xf8
 80005ac:	ea43 00c0 	orr.w	r0, r3, r0, lsl #3
 80005b0:	6010      	str	r0, [r2, #0]
 80005b2:	4770      	bx	lr
 80005b4:	40023800 	andmi	r3, r2, r0, lsl #16

080005b8 <RCC_HSICmd>:
 80005b8:	4b01      	ldr	r3, [pc, #4]	; (80005c0 <RCC_HSICmd+0x8>)
 80005ba:	6018      	str	r0, [r3, #0]
 80005bc:	4770      	bx	lr
 80005be:	bf00      	nop
 80005c0:	42470000 	submi	r0, r7, #0

080005c4 <RCC_LSEConfig>:
 80005c4:	4b06      	ldr	r3, [pc, #24]	; (80005e0 <RCC_LSEConfig+0x1c>)
 80005c6:	2200      	movs	r2, #0
 80005c8:	2801      	cmp	r0, #1
 80005ca:	701a      	strb	r2, [r3, #0]
 80005cc:	701a      	strb	r2, [r3, #0]
 80005ce:	d005      	beq.n	80005dc <RCC_LSEConfig+0x18>
 80005d0:	2804      	cmp	r0, #4
 80005d2:	d102      	bne.n	80005da <RCC_LSEConfig+0x16>
 80005d4:	2205      	movs	r2, #5
 80005d6:	701a      	strb	r2, [r3, #0]
 80005d8:	4770      	bx	lr
 80005da:	4770      	bx	lr
 80005dc:	7018      	strb	r0, [r3, #0]
 80005de:	4770      	bx	lr
 80005e0:	40023870 	andmi	r3, r2, r0, ror r8

080005e4 <RCC_LSICmd>:
 80005e4:	4b01      	ldr	r3, [pc, #4]	; (80005ec <RCC_LSICmd+0x8>)
 80005e6:	6018      	str	r0, [r3, #0]
 80005e8:	4770      	bx	lr
 80005ea:	bf00      	nop
 80005ec:	42470e80 	submi	r0, r7, #128, 28	; 0x800

080005f0 <RCC_PLLConfig>:
 80005f0:	b430      	push	{r4, r5}
 80005f2:	9c02      	ldr	r4, [sp, #8]
 80005f4:	4d06      	ldr	r5, [pc, #24]	; (8000610 <RCC_PLLConfig+0x20>)
 80005f6:	ea40 6004 	orr.w	r0, r0, r4, lsl #24
 80005fa:	4301      	orrs	r1, r0
 80005fc:	085b      	lsrs	r3, r3, #1
 80005fe:	3b01      	subs	r3, #1
 8000600:	ea41 1282 	orr.w	r2, r1, r2, lsl #6
 8000604:	ea42 4003 	orr.w	r0, r2, r3, lsl #16
 8000608:	6068      	str	r0, [r5, #4]
 800060a:	bc30      	pop	{r4, r5}
 800060c:	4770      	bx	lr
 800060e:	bf00      	nop
 8000610:	40023800 	andmi	r3, r2, r0, lsl #16

08000614 <RCC_PLLCmd>:
 8000614:	4b01      	ldr	r3, [pc, #4]	; (800061c <RCC_PLLCmd+0x8>)
 8000616:	6018      	str	r0, [r3, #0]
 8000618:	4770      	bx	lr
 800061a:	bf00      	nop
 800061c:	42470060 	submi	r0, r7, #96	; 0x60

08000620 <RCC_PLLI2SConfig>:
 8000620:	0709      	lsls	r1, r1, #28
 8000622:	4b03      	ldr	r3, [pc, #12]	; (8000630 <RCC_PLLI2SConfig+0x10>)
 8000624:	ea41 1080 	orr.w	r0, r1, r0, lsl #6
 8000628:	f8c3 0084 	str.w	r0, [r3, #132]	; 0x84
 800062c:	4770      	bx	lr
 800062e:	bf00      	nop
 8000630:	40023800 	andmi	r3, r2, r0, lsl #16

08000634 <RCC_PLLI2SCmd>:
 8000634:	4b01      	ldr	r3, [pc, #4]	; (800063c <RCC_PLLI2SCmd+0x8>)
 8000636:	6018      	str	r0, [r3, #0]
 8000638:	4770      	bx	lr
 800063a:	bf00      	nop
 800063c:	42470068 	submi	r0, r7, #104	; 0x68

08000640 <RCC_PLLSAIConfig>:
 8000640:	0712      	lsls	r2, r2, #28
 8000642:	ea42 6101 	orr.w	r1, r2, r1, lsl #24
 8000646:	4b03      	ldr	r3, [pc, #12]	; (8000654 <RCC_PLLSAIConfig+0x14>)
 8000648:	ea41 1080 	orr.w	r0, r1, r0, lsl #6
 800064c:	f8c3 0088 	str.w	r0, [r3, #136]	; 0x88
 8000650:	4770      	bx	lr
 8000652:	bf00      	nop
 8000654:	40023800 	andmi	r3, r2, r0, lsl #16

08000658 <RCC_PLLSAICmd>:
 8000658:	4b01      	ldr	r3, [pc, #4]	; (8000660 <RCC_PLLSAICmd+0x8>)
 800065a:	6018      	str	r0, [r3, #0]
 800065c:	4770      	bx	lr
 800065e:	bf00      	nop
 8000660:	42470070 	submi	r0, r7, #112	; 0x70

08000664 <RCC_ClockSecuritySystemCmd>:
 8000664:	4b01      	ldr	r3, [pc, #4]	; (800066c <RCC_ClockSecuritySystemCmd+0x8>)
 8000666:	6018      	str	r0, [r3, #0]
 8000668:	4770      	bx	lr
 800066a:	bf00      	nop
 800066c:	4247004c 	submi	r0, r7, #76	; 0x4c

08000670 <RCC_MCO1Config>:
 8000670:	4a03      	ldr	r2, [pc, #12]	; (8000680 <RCC_MCO1Config+0x10>)
 8000672:	6893      	ldr	r3, [r2, #8]
 8000674:	f023 63ec 	bic.w	r3, r3, #123731968	; 0x7600000
 8000678:	4319      	orrs	r1, r3
 800067a:	4308      	orrs	r0, r1
 800067c:	6090      	str	r0, [r2, #8]
 800067e:	4770      	bx	lr
 8000680:	40023800 	andmi	r3, r2, r0, lsl #16

08000684 <RCC_MCO2Config>:
 8000684:	4a03      	ldr	r2, [pc, #12]	; (8000694 <RCC_MCO2Config+0x10>)
 8000686:	6893      	ldr	r3, [r2, #8]
 8000688:	f023 4378 	bic.w	r3, r3, #4160749568	; 0xf8000000
 800068c:	4319      	orrs	r1, r3
 800068e:	4308      	orrs	r0, r1
 8000690:	6090      	str	r0, [r2, #8]
 8000692:	4770      	bx	lr
 8000694:	40023800 	andmi	r3, r2, r0, lsl #16

08000698 <RCC_SYSCLKConfig>:
 8000698:	4a03      	ldr	r2, [pc, #12]	; (80006a8 <RCC_SYSCLKConfig+0x10>)
 800069a:	6893      	ldr	r3, [r2, #8]
 800069c:	f023 0303 	bic.w	r3, r3, #3
 80006a0:	4318      	orrs	r0, r3
 80006a2:	6090      	str	r0, [r2, #8]
 80006a4:	4770      	bx	lr
 80006a6:	bf00      	nop
 80006a8:	40023800 	andmi	r3, r2, r0, lsl #16

080006ac <RCC_GetSYSCLKSource>:
 80006ac:	4b02      	ldr	r3, [pc, #8]	; (80006b8 <RCC_GetSYSCLKSource+0xc>)
 80006ae:	6898      	ldr	r0, [r3, #8]
 80006b0:	f000 000c 	and.w	r0, r0, #12
 80006b4:	4770      	bx	lr
 80006b6:	bf00      	nop
 80006b8:	40023800 	andmi	r3, r2, r0, lsl #16

080006bc <RCC_HCLKConfig>:
 80006bc:	4a03      	ldr	r2, [pc, #12]	; (80006cc <RCC_HCLKConfig+0x10>)
 80006be:	6893      	ldr	r3, [r2, #8]
 80006c0:	f023 03f0 	bic.w	r3, r3, #240	; 0xf0
 80006c4:	4318      	orrs	r0, r3
 80006c6:	6090      	str	r0, [r2, #8]
 80006c8:	4770      	bx	lr
 80006ca:	bf00      	nop
 80006cc:	40023800 	andmi	r3, r2, r0, lsl #16

080006d0 <RCC_PCLK1Config>:
 80006d0:	4a03      	ldr	r2, [pc, #12]	; (80006e0 <RCC_PCLK1Config+0x10>)
 80006d2:	6893      	ldr	r3, [r2, #8]
 80006d4:	f423 53e0 	bic.w	r3, r3, #7168	; 0x1c00
 80006d8:	4318      	orrs	r0, r3
 80006da:	6090      	str	r0, [r2, #8]
 80006dc:	4770      	bx	lr
 80006de:	bf00      	nop
 80006e0:	40023800 	andmi	r3, r2, r0, lsl #16

080006e4 <RCC_PCLK2Config>:
 80006e4:	4a03      	ldr	r2, [pc, #12]	; (80006f4 <RCC_PCLK2Config+0x10>)
 80006e6:	6893      	ldr	r3, [r2, #8]
 80006e8:	f423 4360 	bic.w	r3, r3, #57344	; 0xe000
 80006ec:	ea43 00c0 	orr.w	r0, r3, r0, lsl #3
 80006f0:	6090      	str	r0, [r2, #8]
 80006f2:	4770      	bx	lr
 80006f4:	40023800 	andmi	r3, r2, r0, lsl #16

080006f8 <RCC_GetClocksFreq>:
 80006f8:	b410      	push	{r4}
 80006fa:	4c21      	ldr	r4, [pc, #132]	; (8000780 <RCC_GetClocksFreq+0x88>)
 80006fc:	68a3      	ldr	r3, [r4, #8]
 80006fe:	f003 030c 	and.w	r3, r3, #12
 8000702:	2b04      	cmp	r3, #4
 8000704:	d01b      	beq.n	800073e <RCC_GetClocksFreq+0x46>
 8000706:	2b08      	cmp	r3, #8
 8000708:	d01c      	beq.n	8000744 <RCC_GetClocksFreq+0x4c>
 800070a:	4b1e      	ldr	r3, [pc, #120]	; (8000784 <RCC_GetClocksFreq+0x8c>)
 800070c:	6003      	str	r3, [r0, #0]
 800070e:	4a1c      	ldr	r2, [pc, #112]	; (8000780 <RCC_GetClocksFreq+0x88>)
 8000710:	491d      	ldr	r1, [pc, #116]	; (8000788 <RCC_GetClocksFreq+0x90>)
 8000712:	6894      	ldr	r4, [r2, #8]
 8000714:	f3c4 1403 	ubfx	r4, r4, #4, #4
 8000718:	5d0c      	ldrb	r4, [r1, r4]
 800071a:	40e3      	lsrs	r3, r4
 800071c:	6043      	str	r3, [r0, #4]
 800071e:	6894      	ldr	r4, [r2, #8]
 8000720:	f3c4 2482 	ubfx	r4, r4, #10, #3
 8000724:	5d0c      	ldrb	r4, [r1, r4]
 8000726:	fa23 f404 	lsr.w	r4, r3, r4
 800072a:	6084      	str	r4, [r0, #8]
 800072c:	6892      	ldr	r2, [r2, #8]
 800072e:	f85d 4b04 	ldr.w	r4, [sp], #4
 8000732:	f3c2 3242 	ubfx	r2, r2, #13, #3
 8000736:	5c8a      	ldrb	r2, [r1, r2]
 8000738:	40d3      	lsrs	r3, r2
 800073a:	60c3      	str	r3, [r0, #12]
 800073c:	4770      	bx	lr
 800073e:	4b13      	ldr	r3, [pc, #76]	; (800078c <RCC_GetClocksFreq+0x94>)
 8000740:	6003      	str	r3, [r0, #0]
 8000742:	e7e4      	b.n	800070e <RCC_GetClocksFreq+0x16>
 8000744:	6863      	ldr	r3, [r4, #4]
 8000746:	6861      	ldr	r1, [r4, #4]
 8000748:	f413 0f80 	tst.w	r3, #4194304	; 0x400000
 800074c:	6863      	ldr	r3, [r4, #4]
 800074e:	bf18      	it	ne
 8000750:	4c0e      	ldrne	r4, [pc, #56]	; (800078c <RCC_GetClocksFreq+0x94>)
 8000752:	f001 023f 	and.w	r2, r1, #63	; 0x3f
 8000756:	bf0c      	ite	eq
 8000758:	490a      	ldreq	r1, [pc, #40]	; (8000784 <RCC_GetClocksFreq+0x8c>)
 800075a:	fbb4 f1f2 	udivne	r1, r4, r2
 800075e:	f3c3 1388 	ubfx	r3, r3, #6, #9
 8000762:	bf08      	it	eq
 8000764:	fbb1 f1f2 	udiveq	r1, r1, r2
 8000768:	fb01 f203 	mul.w	r2, r1, r3
 800076c:	4b04      	ldr	r3, [pc, #16]	; (8000780 <RCC_GetClocksFreq+0x88>)
 800076e:	685b      	ldr	r3, [r3, #4]
 8000770:	f3c3 4301 	ubfx	r3, r3, #16, #2
 8000774:	3301      	adds	r3, #1
 8000776:	005b      	lsls	r3, r3, #1
 8000778:	fbb2 f3f3 	udiv	r3, r2, r3
 800077c:	6003      	str	r3, [r0, #0]
 800077e:	e7c6      	b.n	800070e <RCC_GetClocksFreq+0x16>
 8000780:	40023800 	andmi	r3, r2, r0, lsl #16
 8000784:	00f42400 	rscseq	r2, r4, r0, lsl #8
 8000788:	20000004 	andcs	r0, r0, r4
 800078c:	017d7840 	cmneq	sp, r0, asr #16

08000790 <RCC_RTCCLKConfig>:
 8000790:	f400 7340 	and.w	r3, r0, #768	; 0x300
 8000794:	f5b3 7f40 	cmp.w	r3, #768	; 0x300
 8000798:	d109      	bne.n	80007ae <RCC_RTCCLKConfig+0x1e>
 800079a:	4908      	ldr	r1, [pc, #32]	; (80007bc <RCC_RTCCLKConfig+0x2c>)
 800079c:	688b      	ldr	r3, [r1, #8]
 800079e:	f020 4270 	bic.w	r2, r0, #4026531840	; 0xf0000000
 80007a2:	f423 13f8 	bic.w	r3, r3, #2031616	; 0x1f0000
 80007a6:	f422 7240 	bic.w	r2, r2, #768	; 0x300
 80007aa:	4313      	orrs	r3, r2
 80007ac:	608b      	str	r3, [r1, #8]
 80007ae:	4a03      	ldr	r2, [pc, #12]	; (80007bc <RCC_RTCCLKConfig+0x2c>)
 80007b0:	6f13      	ldr	r3, [r2, #112]	; 0x70
 80007b2:	f3c0 000b 	ubfx	r0, r0, #0, #12
 80007b6:	4318      	orrs	r0, r3
 80007b8:	6710      	str	r0, [r2, #112]	; 0x70
 80007ba:	4770      	bx	lr
 80007bc:	40023800 	andmi	r3, r2, r0, lsl #16

080007c0 <RCC_RTCCLKCmd>:
 80007c0:	4b01      	ldr	r3, [pc, #4]	; (80007c8 <RCC_RTCCLKCmd+0x8>)
 80007c2:	6018      	str	r0, [r3, #0]
 80007c4:	4770      	bx	lr
 80007c6:	bf00      	nop
 80007c8:	42470e3c 	submi	r0, r7, #60, 28	; 0x3c0

080007cc <RCC_BackupResetCmd>:
 80007cc:	4b01      	ldr	r3, [pc, #4]	; (80007d4 <RCC_BackupResetCmd+0x8>)
 80007ce:	6018      	str	r0, [r3, #0]
 80007d0:	4770      	bx	lr
 80007d2:	bf00      	nop
 80007d4:	42470e40 	submi	r0, r7, #64, 28	; 0x400

080007d8 <RCC_I2SCLKConfig>:
 80007d8:	4b01      	ldr	r3, [pc, #4]	; (80007e0 <RCC_I2SCLKConfig+0x8>)
 80007da:	6018      	str	r0, [r3, #0]
 80007dc:	4770      	bx	lr
 80007de:	bf00      	nop
 80007e0:	4247015c 	submi	r0, r7, #92, 2

080007e4 <RCC_SAIBlockACLKConfig>:
 80007e4:	4a04      	ldr	r2, [pc, #16]	; (80007f8 <RCC_SAIBlockACLKConfig+0x14>)
 80007e6:	f8d2 308c 	ldr.w	r3, [r2, #140]	; 0x8c
 80007ea:	f423 1340 	bic.w	r3, r3, #3145728	; 0x300000
 80007ee:	4318      	orrs	r0, r3
 80007f0:	f8c2 008c 	str.w	r0, [r2, #140]	; 0x8c
 80007f4:	4770      	bx	lr
 80007f6:	bf00      	nop
 80007f8:	40023800 	andmi	r3, r2, r0, lsl #16

080007fc <RCC_SAIBlockBCLKConfig>:
 80007fc:	4a04      	ldr	r2, [pc, #16]	; (8000810 <RCC_SAIBlockBCLKConfig+0x14>)
 80007fe:	f8d2 308c 	ldr.w	r3, [r2, #140]	; 0x8c
 8000802:	f423 0340 	bic.w	r3, r3, #12582912	; 0xc00000
 8000806:	4318      	orrs	r0, r3
 8000808:	f8c2 008c 	str.w	r0, [r2, #140]	; 0x8c
 800080c:	4770      	bx	lr
 800080e:	bf00      	nop
 8000810:	40023800 	andmi	r3, r2, r0, lsl #16

08000814 <RCC_SAIPLLI2SClkDivConfig>:
 8000814:	4a04      	ldr	r2, [pc, #16]	; (8000828 <RCC_SAIPLLI2SClkDivConfig+0x14>)
 8000816:	f8d2 308c 	ldr.w	r3, [r2, #140]	; 0x8c
 800081a:	3801      	subs	r0, #1
 800081c:	f023 031f 	bic.w	r3, r3, #31
 8000820:	4303      	orrs	r3, r0
 8000822:	f8c2 308c 	str.w	r3, [r2, #140]	; 0x8c
 8000826:	4770      	bx	lr
 8000828:	40023800 	andmi	r3, r2, r0, lsl #16

0800082c <RCC_SAIPLLSAIClkDivConfig>:
 800082c:	4a05      	ldr	r2, [pc, #20]	; (8000844 <RCC_SAIPLLSAIClkDivConfig+0x18>)
 800082e:	f8d2 308c 	ldr.w	r3, [r2, #140]	; 0x8c
 8000832:	3801      	subs	r0, #1
 8000834:	f423 53f8 	bic.w	r3, r3, #7936	; 0x1f00
 8000838:	ea43 2300 	orr.w	r3, r3, r0, lsl #8
 800083c:	f8c2 308c 	str.w	r3, [r2, #140]	; 0x8c
 8000840:	4770      	bx	lr
 8000842:	bf00      	nop
 8000844:	40023800 	andmi	r3, r2, r0, lsl #16

08000848 <RCC_LTDCCLKDivConfig>:
 8000848:	4a04      	ldr	r2, [pc, #16]	; (800085c <RCC_LTDCCLKDivConfig+0x14>)
 800084a:	f8d2 308c 	ldr.w	r3, [r2, #140]	; 0x8c
 800084e:	f423 3340 	bic.w	r3, r3, #196608	; 0x30000
 8000852:	4318      	orrs	r0, r3
 8000854:	f8c2 008c 	str.w	r0, [r2, #140]	; 0x8c
 8000858:	4770      	bx	lr
 800085a:	bf00      	nop
 800085c:	40023800 	andmi	r3, r2, r0, lsl #16

08000860 <RCC_TIMCLKPresConfig>:
 8000860:	4b01      	ldr	r3, [pc, #4]	; (8000868 <RCC_TIMCLKPresConfig+0x8>)
 8000862:	6018      	str	r0, [r3, #0]
 8000864:	4770      	bx	lr
 8000866:	bf00      	nop
 8000868:	424711e0 	submi	r1, r7, #224, 2	; 0x38

0800086c <RCC_AHB1PeriphClockCmd>:
 800086c:	4a04      	ldr	r2, [pc, #16]	; (8000880 <RCC_AHB1PeriphClockCmd+0x14>)
 800086e:	6b13      	ldr	r3, [r2, #48]	; 0x30
 8000870:	b919      	cbnz	r1, 800087a <RCC_AHB1PeriphClockCmd+0xe>
 8000872:	ea23 0000 	bic.w	r0, r3, r0
 8000876:	6310      	str	r0, [r2, #48]	; 0x30
 8000878:	4770      	bx	lr
 800087a:	4318      	orrs	r0, r3
 800087c:	6310      	str	r0, [r2, #48]	; 0x30
 800087e:	4770      	bx	lr
 8000880:	40023800 	andmi	r3, r2, r0, lsl #16

08000884 <RCC_AHB2PeriphClockCmd>:
 8000884:	4a04      	ldr	r2, [pc, #16]	; (8000898 <RCC_AHB2PeriphClockCmd+0x14>)
 8000886:	6b53      	ldr	r3, [r2, #52]	; 0x34
 8000888:	b919      	cbnz	r1, 8000892 <RCC_AHB2PeriphClockCmd+0xe>
 800088a:	ea23 0000 	bic.w	r0, r3, r0
 800088e:	6350      	str	r0, [r2, #52]	; 0x34
 8000890:	4770      	bx	lr
 8000892:	4318      	orrs	r0, r3
 8000894:	6350      	str	r0, [r2, #52]	; 0x34
 8000896:	4770      	bx	lr
 8000898:	40023800 	andmi	r3, r2, r0, lsl #16

0800089c <RCC_AHB3PeriphClockCmd>:
 800089c:	4a04      	ldr	r2, [pc, #16]	; (80008b0 <RCC_AHB3PeriphClockCmd+0x14>)
 800089e:	6b93      	ldr	r3, [r2, #56]	; 0x38
 80008a0:	b919      	cbnz	r1, 80008aa <RCC_AHB3PeriphClockCmd+0xe>
 80008a2:	ea23 0000 	bic.w	r0, r3, r0
 80008a6:	6390      	str	r0, [r2, #56]	; 0x38
 80008a8:	4770      	bx	lr
 80008aa:	4318      	orrs	r0, r3
 80008ac:	6390      	str	r0, [r2, #56]	; 0x38
 80008ae:	4770      	bx	lr
 80008b0:	40023800 	andmi	r3, r2, r0, lsl #16

080008b4 <RCC_APB1PeriphClockCmd>:
 80008b4:	4a04      	ldr	r2, [pc, #16]	; (80008c8 <RCC_APB1PeriphClockCmd+0x14>)
 80008b6:	6c13      	ldr	r3, [r2, #64]	; 0x40
 80008b8:	b919      	cbnz	r1, 80008c2 <RCC_APB1PeriphClockCmd+0xe>
 80008ba:	ea23 0000 	bic.w	r0, r3, r0
 80008be:	6410      	str	r0, [r2, #64]	; 0x40
 80008c0:	4770      	bx	lr
 80008c2:	4318      	orrs	r0, r3
 80008c4:	6410      	str	r0, [r2, #64]	; 0x40
 80008c6:	4770      	bx	lr
 80008c8:	40023800 	andmi	r3, r2, r0, lsl #16

080008cc <RCC_APB2PeriphClockCmd>:
 80008cc:	4a04      	ldr	r2, [pc, #16]	; (80008e0 <RCC_APB2PeriphClockCmd+0x14>)
 80008ce:	6c53      	ldr	r3, [r2, #68]	; 0x44
 80008d0:	b919      	cbnz	r1, 80008da <RCC_APB2PeriphClockCmd+0xe>
 80008d2:	ea23 0000 	bic.w	r0, r3, r0
 80008d6:	6450      	str	r0, [r2, #68]	; 0x44
 80008d8:	4770      	bx	lr
 80008da:	4318      	orrs	r0, r3
 80008dc:	6450      	str	r0, [r2, #68]	; 0x44
 80008de:	4770      	bx	lr
 80008e0:	40023800 	andmi	r3, r2, r0, lsl #16

080008e4 <RCC_AHB1PeriphResetCmd>:
 80008e4:	4a04      	ldr	r2, [pc, #16]	; (80008f8 <RCC_AHB1PeriphResetCmd+0x14>)
 80008e6:	6913      	ldr	r3, [r2, #16]
 80008e8:	b919      	cbnz	r1, 80008f2 <RCC_AHB1PeriphResetCmd+0xe>
 80008ea:	ea23 0000 	bic.w	r0, r3, r0
 80008ee:	6110      	str	r0, [r2, #16]
 80008f0:	4770      	bx	lr
 80008f2:	4318      	orrs	r0, r3
 80008f4:	6110      	str	r0, [r2, #16]
 80008f6:	4770      	bx	lr
 80008f8:	40023800 	andmi	r3, r2, r0, lsl #16

080008fc <RCC_AHB2PeriphResetCmd>:
 80008fc:	4a04      	ldr	r2, [pc, #16]	; (8000910 <RCC_AHB2PeriphResetCmd+0x14>)
 80008fe:	6953      	ldr	r3, [r2, #20]
 8000900:	b919      	cbnz	r1, 800090a <RCC_AHB2PeriphResetCmd+0xe>
 8000902:	ea23 0000 	bic.w	r0, r3, r0
 8000906:	6150      	str	r0, [r2, #20]
 8000908:	4770      	bx	lr
 800090a:	4318      	orrs	r0, r3
 800090c:	6150      	str	r0, [r2, #20]
 800090e:	4770      	bx	lr
 8000910:	40023800 	andmi	r3, r2, r0, lsl #16

08000914 <RCC_AHB3PeriphResetCmd>:
 8000914:	4a04      	ldr	r2, [pc, #16]	; (8000928 <RCC_AHB3PeriphResetCmd+0x14>)
 8000916:	6993      	ldr	r3, [r2, #24]
 8000918:	b919      	cbnz	r1, 8000922 <RCC_AHB3PeriphResetCmd+0xe>
 800091a:	ea23 0000 	bic.w	r0, r3, r0
 800091e:	6190      	str	r0, [r2, #24]
 8000920:	4770      	bx	lr
 8000922:	4318      	orrs	r0, r3
 8000924:	6190      	str	r0, [r2, #24]
 8000926:	4770      	bx	lr
 8000928:	40023800 	andmi	r3, r2, r0, lsl #16

0800092c <RCC_APB1PeriphResetCmd>:
 800092c:	4a04      	ldr	r2, [pc, #16]	; (8000940 <RCC_APB1PeriphResetCmd+0x14>)
 800092e:	6a13      	ldr	r3, [r2, #32]
 8000930:	b919      	cbnz	r1, 800093a <RCC_APB1PeriphResetCmd+0xe>
 8000932:	ea23 0000 	bic.w	r0, r3, r0
 8000936:	6210      	str	r0, [r2, #32]
 8000938:	4770      	bx	lr
 800093a:	4318      	orrs	r0, r3
 800093c:	6210      	str	r0, [r2, #32]
 800093e:	4770      	bx	lr
 8000940:	40023800 	andmi	r3, r2, r0, lsl #16

08000944 <RCC_APB2PeriphResetCmd>:
 8000944:	4a04      	ldr	r2, [pc, #16]	; (8000958 <RCC_APB2PeriphResetCmd+0x14>)
 8000946:	6a53      	ldr	r3, [r2, #36]	; 0x24
 8000948:	b919      	cbnz	r1, 8000952 <RCC_APB2PeriphResetCmd+0xe>
 800094a:	ea23 0000 	bic.w	r0, r3, r0
 800094e:	6250      	str	r0, [r2, #36]	; 0x24
 8000950:	4770      	bx	lr
 8000952:	4318      	orrs	r0, r3
 8000954:	6250      	str	r0, [r2, #36]	; 0x24
 8000956:	4770      	bx	lr
 8000958:	40023800 	andmi	r3, r2, r0, lsl #16

0800095c <RCC_AHB1PeriphClockLPModeCmd>:
 800095c:	4a04      	ldr	r2, [pc, #16]	; (8000970 <RCC_AHB1PeriphClockLPModeCmd+0x14>)
 800095e:	6d13      	ldr	r3, [r2, #80]	; 0x50
 8000960:	b919      	cbnz	r1, 800096a <RCC_AHB1PeriphClockLPModeCmd+0xe>
 8000962:	ea23 0000 	bic.w	r0, r3, r0
 8000966:	6510      	str	r0, [r2, #80]	; 0x50
 8000968:	4770      	bx	lr
 800096a:	4318      	orrs	r0, r3
 800096c:	6510      	str	r0, [r2, #80]	; 0x50
 800096e:	4770      	bx	lr
 8000970:	40023800 	andmi	r3, r2, r0, lsl #16

08000974 <RCC_AHB2PeriphClockLPModeCmd>:
 8000974:	4a04      	ldr	r2, [pc, #16]	; (8000988 <RCC_AHB2PeriphClockLPModeCmd+0x14>)
 8000976:	6d53      	ldr	r3, [r2, #84]	; 0x54
 8000978:	b919      	cbnz	r1, 8000982 <RCC_AHB2PeriphClockLPModeCmd+0xe>
 800097a:	ea23 0000 	bic.w	r0, r3, r0
 800097e:	6550      	str	r0, [r2, #84]	; 0x54
 8000980:	4770      	bx	lr
 8000982:	4318      	orrs	r0, r3
 8000984:	6550      	str	r0, [r2, #84]	; 0x54
 8000986:	4770      	bx	lr
 8000988:	40023800 	andmi	r3, r2, r0, lsl #16

0800098c <RCC_AHB3PeriphClockLPModeCmd>:
 800098c:	4a04      	ldr	r2, [pc, #16]	; (80009a0 <RCC_AHB3PeriphClockLPModeCmd+0x14>)
 800098e:	6d93      	ldr	r3, [r2, #88]	; 0x58
 8000990:	b919      	cbnz	r1, 800099a <RCC_AHB3PeriphClockLPModeCmd+0xe>
 8000992:	ea23 0000 	bic.w	r0, r3, r0
 8000996:	6590      	str	r0, [r2, #88]	; 0x58
 8000998:	4770      	bx	lr
 800099a:	4318      	orrs	r0, r3
 800099c:	6590      	str	r0, [r2, #88]	; 0x58
 800099e:	4770      	bx	lr
 80009a0:	40023800 	andmi	r3, r2, r0, lsl #16

080009a4 <RCC_APB1PeriphClockLPModeCmd>:
 80009a4:	4a04      	ldr	r2, [pc, #16]	; (80009b8 <RCC_APB1PeriphClockLPModeCmd+0x14>)
 80009a6:	6e13      	ldr	r3, [r2, #96]	; 0x60
 80009a8:	b919      	cbnz	r1, 80009b2 <RCC_APB1PeriphClockLPModeCmd+0xe>
 80009aa:	ea23 0000 	bic.w	r0, r3, r0
 80009ae:	6610      	str	r0, [r2, #96]	; 0x60
 80009b0:	4770      	bx	lr
 80009b2:	4318      	orrs	r0, r3
 80009b4:	6610      	str	r0, [r2, #96]	; 0x60
 80009b6:	4770      	bx	lr
 80009b8:	40023800 	andmi	r3, r2, r0, lsl #16

080009bc <RCC_APB2PeriphClockLPModeCmd>:
 80009bc:	4a04      	ldr	r2, [pc, #16]	; (80009d0 <RCC_APB2PeriphClockLPModeCmd+0x14>)
 80009be:	6e53      	ldr	r3, [r2, #100]	; 0x64
 80009c0:	b919      	cbnz	r1, 80009ca <RCC_APB2PeriphClockLPModeCmd+0xe>
 80009c2:	ea23 0000 	bic.w	r0, r3, r0
 80009c6:	6650      	str	r0, [r2, #100]	; 0x64
 80009c8:	4770      	bx	lr
 80009ca:	4318      	orrs	r0, r3
 80009cc:	6650      	str	r0, [r2, #100]	; 0x64
 80009ce:	4770      	bx	lr
 80009d0:	40023800 	andmi	r3, r2, r0, lsl #16

080009d4 <RCC_LSEModeConfig>:
 80009d4:	4a04      	ldr	r2, [pc, #16]	; (80009e8 <RCC_LSEModeConfig+0x14>)
 80009d6:	6f13      	ldr	r3, [r2, #112]	; 0x70
 80009d8:	2801      	cmp	r0, #1
 80009da:	bf0c      	ite	eq
 80009dc:	f043 0308 	orreq.w	r3, r3, #8
 80009e0:	f023 0308 	bicne.w	r3, r3, #8
 80009e4:	6713      	str	r3, [r2, #112]	; 0x70
 80009e6:	4770      	bx	lr
 80009e8:	40023800 	andmi	r3, r2, r0, lsl #16

080009ec <RCC_ITConfig>:
 80009ec:	4a04      	ldr	r2, [pc, #16]	; (8000a00 <RCC_ITConfig+0x14>)
 80009ee:	7813      	ldrb	r3, [r2, #0]
 80009f0:	b919      	cbnz	r1, 80009fa <RCC_ITConfig+0xe>
 80009f2:	ea23 0000 	bic.w	r0, r3, r0
 80009f6:	7010      	strb	r0, [r2, #0]
 80009f8:	4770      	bx	lr
 80009fa:	4318      	orrs	r0, r3
 80009fc:	7010      	strb	r0, [r2, #0]
 80009fe:	4770      	bx	lr
 8000a00:	4002380d 	andmi	r3, r2, sp, lsl #16

08000a04 <RCC_GetFlagStatus>:
 8000a04:	0943      	lsrs	r3, r0, #5
 8000a06:	2b01      	cmp	r3, #1
 8000a08:	d00b      	beq.n	8000a22 <RCC_GetFlagStatus+0x1e>
 8000a0a:	2b02      	cmp	r3, #2
 8000a0c:	4b09      	ldr	r3, [pc, #36]	; (8000a34 <RCC_GetFlagStatus+0x30>)
 8000a0e:	bf0c      	ite	eq
 8000a10:	6f1a      	ldreq	r2, [r3, #112]	; 0x70
 8000a12:	6f5a      	ldrne	r2, [r3, #116]	; 0x74
 8000a14:	f000 031f 	and.w	r3, r0, #31
 8000a18:	fa22 f003 	lsr.w	r0, r2, r3
 8000a1c:	f000 0001 	and.w	r0, r0, #1
 8000a20:	4770      	bx	lr
 8000a22:	4b04      	ldr	r3, [pc, #16]	; (8000a34 <RCC_GetFlagStatus+0x30>)
 8000a24:	681a      	ldr	r2, [r3, #0]
 8000a26:	f000 031f 	and.w	r3, r0, #31
 8000a2a:	fa22 f003 	lsr.w	r0, r2, r3
 8000a2e:	f000 0001 	and.w	r0, r0, #1
 8000a32:	4770      	bx	lr
 8000a34:	40023800 	andmi	r3, r2, r0, lsl #16

08000a38 <RCC_ClearFlag>:
 8000a38:	4a02      	ldr	r2, [pc, #8]	; (8000a44 <RCC_ClearFlag+0xc>)
 8000a3a:	6f53      	ldr	r3, [r2, #116]	; 0x74
 8000a3c:	f043 7380 	orr.w	r3, r3, #16777216	; 0x1000000
 8000a40:	6753      	str	r3, [r2, #116]	; 0x74
 8000a42:	4770      	bx	lr
 8000a44:	40023800 	andmi	r3, r2, r0, lsl #16

08000a48 <RCC_GetITStatus>:
 8000a48:	4b03      	ldr	r3, [pc, #12]	; (8000a58 <RCC_GetITStatus+0x10>)
 8000a4a:	68db      	ldr	r3, [r3, #12]
 8000a4c:	4218      	tst	r0, r3
 8000a4e:	bf14      	ite	ne
 8000a50:	2001      	movne	r0, #1
 8000a52:	2000      	moveq	r0, #0
 8000a54:	4770      	bx	lr
 8000a56:	bf00      	nop
 8000a58:	40023800 	andmi	r3, r2, r0, lsl #16

08000a5c <RCC_ClearITPendingBit>:
 8000a5c:	4b01      	ldr	r3, [pc, #4]	; (8000a64 <RCC_ClearITPendingBit+0x8>)
 8000a5e:	7018      	strb	r0, [r3, #0]
 8000a60:	4770      	bx	lr
 8000a62:	bf00      	nop
 8000a64:	4002380e 	andmi	r3, r2, lr, lsl #16

08000a68 <SystemInit>:
 8000a68:	4939      	ldr	r1, [pc, #228]	; (8000b50 <SystemInit+0xe8>)
 8000a6a:	4b3a      	ldr	r3, [pc, #232]	; (8000b54 <SystemInit+0xec>)
 8000a6c:	f8d1 2088 	ldr.w	r2, [r1, #136]	; 0x88
 8000a70:	4839      	ldr	r0, [pc, #228]	; (8000b58 <SystemInit+0xf0>)
 8000a72:	f442 0270 	orr.w	r2, r2, #15728640	; 0xf00000
 8000a76:	f8c1 2088 	str.w	r2, [r1, #136]	; 0x88
 8000a7a:	681a      	ldr	r2, [r3, #0]
 8000a7c:	2100      	movs	r1, #0
 8000a7e:	f042 0201 	orr.w	r2, r2, #1
 8000a82:	601a      	str	r2, [r3, #0]
 8000a84:	6099      	str	r1, [r3, #8]
 8000a86:	681a      	ldr	r2, [r3, #0]
 8000a88:	f022 7284 	bic.w	r2, r2, #17301504	; 0x1080000
 8000a8c:	f422 3280 	bic.w	r2, r2, #65536	; 0x10000
 8000a90:	601a      	str	r2, [r3, #0]
 8000a92:	6058      	str	r0, [r3, #4]
 8000a94:	681a      	ldr	r2, [r3, #0]
 8000a96:	b082      	sub	sp, #8
 8000a98:	f422 2280 	bic.w	r2, r2, #262144	; 0x40000
 8000a9c:	601a      	str	r2, [r3, #0]
 8000a9e:	60d9      	str	r1, [r3, #12]
 8000aa0:	9100      	str	r1, [sp, #0]
 8000aa2:	9101      	str	r1, [sp, #4]
 8000aa4:	681a      	ldr	r2, [r3, #0]
 8000aa6:	f442 3280 	orr.w	r2, r2, #65536	; 0x10000
 8000aaa:	601a      	str	r2, [r3, #0]
 8000aac:	461a      	mov	r2, r3
 8000aae:	e003      	b.n	8000ab8 <SystemInit+0x50>
 8000ab0:	9b00      	ldr	r3, [sp, #0]
 8000ab2:	f5b3 4fa0 	cmp.w	r3, #20480	; 0x5000
 8000ab6:	d009      	beq.n	8000acc <SystemInit+0x64>
 8000ab8:	6813      	ldr	r3, [r2, #0]
 8000aba:	f403 3300 	and.w	r3, r3, #131072	; 0x20000
 8000abe:	9301      	str	r3, [sp, #4]
 8000ac0:	9b00      	ldr	r3, [sp, #0]
 8000ac2:	3301      	adds	r3, #1
 8000ac4:	9300      	str	r3, [sp, #0]
 8000ac6:	9b01      	ldr	r3, [sp, #4]
 8000ac8:	2b00      	cmp	r3, #0
 8000aca:	d0f1      	beq.n	8000ab0 <SystemInit+0x48>
 8000acc:	4b21      	ldr	r3, [pc, #132]	; (8000b54 <SystemInit+0xec>)
 8000ace:	681b      	ldr	r3, [r3, #0]
 8000ad0:	f413 3300 	ands.w	r3, r3, #131072	; 0x20000
 8000ad4:	bf18      	it	ne
 8000ad6:	2301      	movne	r3, #1
 8000ad8:	9301      	str	r3, [sp, #4]
 8000ada:	9b01      	ldr	r3, [sp, #4]
 8000adc:	2b01      	cmp	r3, #1
 8000ade:	d005      	beq.n	8000aec <SystemInit+0x84>
 8000ae0:	4b1b      	ldr	r3, [pc, #108]	; (8000b50 <SystemInit+0xe8>)
 8000ae2:	f04f 6200 	mov.w	r2, #134217728	; 0x8000000
 8000ae6:	609a      	str	r2, [r3, #8]
 8000ae8:	b002      	add	sp, #8
 8000aea:	4770      	bx	lr
 8000aec:	4b19      	ldr	r3, [pc, #100]	; (8000b54 <SystemInit+0xec>)
 8000aee:	491b      	ldr	r1, [pc, #108]	; (8000b5c <SystemInit+0xf4>)
 8000af0:	6c1a      	ldr	r2, [r3, #64]	; 0x40
 8000af2:	481b      	ldr	r0, [pc, #108]	; (8000b60 <SystemInit+0xf8>)
 8000af4:	f042 5280 	orr.w	r2, r2, #268435456	; 0x10000000
 8000af8:	641a      	str	r2, [r3, #64]	; 0x40
 8000afa:	680a      	ldr	r2, [r1, #0]
 8000afc:	f442 4240 	orr.w	r2, r2, #49152	; 0xc000
 8000b00:	600a      	str	r2, [r1, #0]
 8000b02:	689a      	ldr	r2, [r3, #8]
 8000b04:	609a      	str	r2, [r3, #8]
 8000b06:	689a      	ldr	r2, [r3, #8]
 8000b08:	f442 4200 	orr.w	r2, r2, #32768	; 0x8000
 8000b0c:	609a      	str	r2, [r3, #8]
 8000b0e:	689a      	ldr	r2, [r3, #8]
 8000b10:	f442 52a0 	orr.w	r2, r2, #5120	; 0x1400
 8000b14:	609a      	str	r2, [r3, #8]
 8000b16:	6058      	str	r0, [r3, #4]
 8000b18:	681a      	ldr	r2, [r3, #0]
 8000b1a:	f042 7280 	orr.w	r2, r2, #16777216	; 0x1000000
 8000b1e:	601a      	str	r2, [r3, #0]
 8000b20:	461a      	mov	r2, r3
 8000b22:	6811      	ldr	r1, [r2, #0]
 8000b24:	4b0b      	ldr	r3, [pc, #44]	; (8000b54 <SystemInit+0xec>)
 8000b26:	0189      	lsls	r1, r1, #6
 8000b28:	d5fb      	bpl.n	8000b22 <SystemInit+0xba>
 8000b2a:	4a0e      	ldr	r2, [pc, #56]	; (8000b64 <SystemInit+0xfc>)
 8000b2c:	f240 7105 	movw	r1, #1797	; 0x705
 8000b30:	6011      	str	r1, [r2, #0]
 8000b32:	689a      	ldr	r2, [r3, #8]
 8000b34:	f022 0203 	bic.w	r2, r2, #3
 8000b38:	609a      	str	r2, [r3, #8]
 8000b3a:	689a      	ldr	r2, [r3, #8]
 8000b3c:	f042 0202 	orr.w	r2, r2, #2
 8000b40:	609a      	str	r2, [r3, #8]
 8000b42:	461a      	mov	r2, r3
 8000b44:	6893      	ldr	r3, [r2, #8]
 8000b46:	f003 030c 	and.w	r3, r3, #12
 8000b4a:	2b08      	cmp	r3, #8
 8000b4c:	d1fa      	bne.n	8000b44 <SystemInit+0xdc>
 8000b4e:	e7c7      	b.n	8000ae0 <SystemInit+0x78>
 8000b50:	e000ed00 	and	lr, r0, r0, lsl #26
 8000b54:	40023800 	andmi	r3, r2, r0, lsl #16
 8000b58:	24003010 	strcs	r3, [r0], #-16
 8000b5c:	40007000 	andmi	r7, r0, r0
 8000b60:	07405419 	smlaldeq	r5, r0, r9, r4
 8000b64:	40023c00 	andmi	r3, r2, r0, lsl #24

08000b68 <SystemCoreClockUpdate>:
 8000b68:	4818      	ldr	r0, [pc, #96]	; (8000bcc <SystemCoreClockUpdate+0x64>)
 8000b6a:	6883      	ldr	r3, [r0, #8]
 8000b6c:	f003 030c 	and.w	r3, r3, #12
 8000b70:	2b04      	cmp	r3, #4
 8000b72:	d028      	beq.n	8000bc6 <SystemCoreClockUpdate+0x5e>
 8000b74:	2b08      	cmp	r3, #8
 8000b76:	d009      	beq.n	8000b8c <SystemCoreClockUpdate+0x24>
 8000b78:	4b15      	ldr	r3, [pc, #84]	; (8000bd0 <SystemCoreClockUpdate+0x68>)
 8000b7a:	4a14      	ldr	r2, [pc, #80]	; (8000bcc <SystemCoreClockUpdate+0x64>)
 8000b7c:	4915      	ldr	r1, [pc, #84]	; (8000bd4 <SystemCoreClockUpdate+0x6c>)
 8000b7e:	6892      	ldr	r2, [r2, #8]
 8000b80:	f3c2 1203 	ubfx	r2, r2, #4, #4
 8000b84:	5c8a      	ldrb	r2, [r1, r2]
 8000b86:	40d3      	lsrs	r3, r2
 8000b88:	610b      	str	r3, [r1, #16]
 8000b8a:	4770      	bx	lr
 8000b8c:	6843      	ldr	r3, [r0, #4]
 8000b8e:	6841      	ldr	r1, [r0, #4]
 8000b90:	f413 0f80 	tst.w	r3, #4194304	; 0x400000
 8000b94:	6843      	ldr	r3, [r0, #4]
 8000b96:	bf18      	it	ne
 8000b98:	480f      	ldrne	r0, [pc, #60]	; (8000bd8 <SystemCoreClockUpdate+0x70>)
 8000b9a:	f001 023f 	and.w	r2, r1, #63	; 0x3f
 8000b9e:	bf0c      	ite	eq
 8000ba0:	490b      	ldreq	r1, [pc, #44]	; (8000bd0 <SystemCoreClockUpdate+0x68>)
 8000ba2:	fbb0 f1f2 	udivne	r1, r0, r2
 8000ba6:	f3c3 1388 	ubfx	r3, r3, #6, #9
 8000baa:	bf08      	it	eq
 8000bac:	fbb1 f1f2 	udiveq	r1, r1, r2
 8000bb0:	fb01 f203 	mul.w	r2, r1, r3
 8000bb4:	4b05      	ldr	r3, [pc, #20]	; (8000bcc <SystemCoreClockUpdate+0x64>)
 8000bb6:	685b      	ldr	r3, [r3, #4]
 8000bb8:	f3c3 4301 	ubfx	r3, r3, #16, #2
 8000bbc:	3301      	adds	r3, #1
 8000bbe:	005b      	lsls	r3, r3, #1
 8000bc0:	fbb2 f3f3 	udiv	r3, r2, r3
 8000bc4:	e7d9      	b.n	8000b7a <SystemCoreClockUpdate+0x12>
 8000bc6:	4b04      	ldr	r3, [pc, #16]	; (8000bd8 <SystemCoreClockUpdate+0x70>)
 8000bc8:	e7d7      	b.n	8000b7a <SystemCoreClockUpdate+0x12>
 8000bca:	bf00      	nop
 8000bcc:	40023800 	andmi	r3, r2, r0, lsl #16
 8000bd0:	00f42400 	rscseq	r2, r4, r0, lsl #8
 8000bd4:	20000014 	andcs	r0, r0, r4, lsl r0
 8000bd8:	017d7840 	cmneq	sp, r0, asr #16
 8000bdc:	08000fdc 	stmdaeq	r0, {r2, r3, r4, r6, r7, r8, r9, sl, fp}
 8000be0:	20000000 	andcs	r0, r0, r0
 8000be4:	20000454 	andcs	r0, r0, r4, asr r4
 8000be8:	20000458 	andcs	r0, r0, r8, asr r4
 8000bec:	20000474 	andcs	r0, r0, r4, ror r4

08000bf0 <main>:
 8000bf0:	b570      	push	{r4, r5, r6, lr}
 8000bf2:	2008      	movs	r0, #8
 8000bf4:	b084      	sub	sp, #16
 8000bf6:	2101      	movs	r1, #1
 8000bf8:	f7ff fe38 	bl	800086c <RCC_AHB1PeriphClockCmd>
 8000bfc:	2500      	movs	r5, #0
 8000bfe:	2401      	movs	r4, #1
 8000c00:	f44f 4380 	mov.w	r3, #16384	; 0x4000
 8000c04:	a902      	add	r1, sp, #8
 8000c06:	2603      	movs	r6, #3
 8000c08:	481c      	ldr	r0, [pc, #112]	; (8000c7c <main+0x8c>)
 8000c0a:	9302      	str	r3, [sp, #8]
 8000c0c:	f88d 400c 	strb.w	r4, [sp, #12]
 8000c10:	f88d 500e 	strb.w	r5, [sp, #14]
 8000c14:	f88d 500f 	strb.w	r5, [sp, #15]
 8000c18:	f88d 600d 	strb.w	r6, [sp, #13]
 8000c1c:	f7ff fbca 	bl	80003b4 <GPIO_Init>
 8000c20:	4620      	mov	r0, r4
 8000c22:	4621      	mov	r1, r4
 8000c24:	f7ff fe22 	bl	800086c <RCC_AHB1PeriphClockCmd>
 8000c28:	2302      	movs	r3, #2
 8000c2a:	a902      	add	r1, sp, #8
 8000c2c:	4814      	ldr	r0, [pc, #80]	; (8000c80 <main+0x90>)
 8000c2e:	f88d 600d 	strb.w	r6, [sp, #13]
 8000c32:	9402      	str	r4, [sp, #8]
 8000c34:	f88d 500c 	strb.w	r5, [sp, #12]
 8000c38:	f88d 500e 	strb.w	r5, [sp, #14]
 8000c3c:	f88d 300f 	strb.w	r3, [sp, #15]
 8000c40:	f7ff fbb8 	bl	80003b4 <GPIO_Init>
 8000c44:	f88d 5007 	strb.w	r5, [sp, #7]
 8000c48:	480d      	ldr	r0, [pc, #52]	; (8000c80 <main+0x90>)
 8000c4a:	2101      	movs	r1, #1
 8000c4c:	f7ff fc28 	bl	80004a0 <GPIO_ReadInputDataBit>
 8000c50:	b180      	cbz	r0, 8000c74 <main+0x84>
 8000c52:	f89d 3007 	ldrb.w	r3, [sp, #7]
 8000c56:	2b00      	cmp	r3, #0
 8000c58:	d1f6      	bne.n	8000c48 <main+0x58>
 8000c5a:	4808      	ldr	r0, [pc, #32]	; (8000c7c <main+0x8c>)
 8000c5c:	f88d 4007 	strb.w	r4, [sp, #7]
 8000c60:	f44f 4180 	mov.w	r1, #16384	; 0x4000
 8000c64:	f7ff fc3c 	bl	80004e0 <GPIO_ToggleBits>
 8000c68:	4805      	ldr	r0, [pc, #20]	; (8000c80 <main+0x90>)
 8000c6a:	2101      	movs	r1, #1
 8000c6c:	f7ff fc18 	bl	80004a0 <GPIO_ReadInputDataBit>
 8000c70:	2800      	cmp	r0, #0
 8000c72:	d1ee      	bne.n	8000c52 <main+0x62>
 8000c74:	f88d 0007 	strb.w	r0, [sp, #7]
 8000c78:	e7e6      	b.n	8000c48 <main+0x58>
 8000c7a:	bf00      	nop
 8000c7c:	40020c00 	andmi	r0, r2, r0, lsl #24
 8000c80:	40020000 	andmi	r0, r2, r0

08000c84 <Reset_Handler>:
 8000c84:	2100      	movs	r1, #0
 8000c86:	e003      	b.n	8000c90 <LoopCopyDataInit>

08000c88 <CopyDataInit>:
 8000c88:	4b0b      	ldr	r3, [pc, #44]	; (8000cb8 <LoopFillZerobss+0x14>)
 8000c8a:	585b      	ldr	r3, [r3, r1]
 8000c8c:	5043      	str	r3, [r0, r1]
 8000c8e:	3104      	adds	r1, #4

08000c90 <LoopCopyDataInit>:
 8000c90:	480a      	ldr	r0, [pc, #40]	; (8000cbc <LoopFillZerobss+0x18>)
 8000c92:	4b0b      	ldr	r3, [pc, #44]	; (8000cc0 <LoopFillZerobss+0x1c>)
 8000c94:	1842      	adds	r2, r0, r1
 8000c96:	429a      	cmp	r2, r3
 8000c98:	d3f6      	bcc.n	8000c88 <CopyDataInit>
 8000c9a:	4a0a      	ldr	r2, [pc, #40]	; (8000cc4 <LoopFillZerobss+0x20>)
 8000c9c:	e002      	b.n	8000ca4 <LoopFillZerobss>

08000c9e <FillZerobss>:
 8000c9e:	2300      	movs	r3, #0
 8000ca0:	f842 3b04 	str.w	r3, [r2], #4

08000ca4 <LoopFillZerobss>:
 8000ca4:	4b08      	ldr	r3, [pc, #32]	; (8000cc8 <LoopFillZerobss+0x24>)
 8000ca6:	429a      	cmp	r2, r3
 8000ca8:	d3f9      	bcc.n	8000c9e <FillZerobss>
 8000caa:	f7ff fedd 	bl	8000a68 <SystemInit>
 8000cae:	f000 f81f 	bl	8000cf0 <__libc_init_array>
 8000cb2:	f7ff ff9d 	bl	8000bf0 <main>
 8000cb6:	4770      	bx	lr
 8000cb8:	08000fdc 	stmdaeq	r0, {r2, r3, r4, r6, r7, r8, r9, sl, fp}
 8000cbc:	20000000 	andcs	r0, r0, r0
 8000cc0:	20000454 	andcs	r0, r0, r4, asr r4
 8000cc4:	20000458 	andcs	r0, r0, r8, asr r4
 8000cc8:	20000474 	andcs	r0, r0, r4, ror r4

08000ccc <ADC_IRQHandler>:
 8000ccc:	e7fe      	b.n	8000ccc <ADC_IRQHandler>
	...

08000cd0 <exit>:
 8000cd0:	b508      	push	{r3, lr}
 8000cd2:	2100      	movs	r1, #0
 8000cd4:	4604      	mov	r4, r0
 8000cd6:	f000 f88b 	bl	8000df0 <__call_exitprocs>
 8000cda:	4b04      	ldr	r3, [pc, #16]	; (8000cec <exit+0x1c>)
 8000cdc:	6818      	ldr	r0, [r3, #0]
 8000cde:	6bc3      	ldr	r3, [r0, #60]	; 0x3c
 8000ce0:	b103      	cbz	r3, 8000ce4 <exit+0x14>
 8000ce2:	4798      	blx	r3
 8000ce4:	4620      	mov	r0, r4
 8000ce6:	f000 f95b 	bl	8000fa0 <_exit>
 8000cea:	bf00      	nop
 8000cec:	08000fc4 	stmdaeq	r0, {r2, r6, r7, r8, r9, sl, fp}

08000cf0 <__libc_init_array>:
 8000cf0:	b570      	push	{r4, r5, r6, lr}
 8000cf2:	4e0f      	ldr	r6, [pc, #60]	; (8000d30 <__libc_init_array+0x40>)
 8000cf4:	4d0f      	ldr	r5, [pc, #60]	; (8000d34 <__libc_init_array+0x44>)
 8000cf6:	1b76      	subs	r6, r6, r5
 8000cf8:	10b6      	asrs	r6, r6, #2
 8000cfa:	bf18      	it	ne
 8000cfc:	2400      	movne	r4, #0
 8000cfe:	d005      	beq.n	8000d0c <__libc_init_array+0x1c>
 8000d00:	3401      	adds	r4, #1
 8000d02:	f855 3b04 	ldr.w	r3, [r5], #4
 8000d06:	4798      	blx	r3
 8000d08:	42a6      	cmp	r6, r4
 8000d0a:	d1f9      	bne.n	8000d00 <__libc_init_array+0x10>
 8000d0c:	4e0a      	ldr	r6, [pc, #40]	; (8000d38 <__libc_init_array+0x48>)
 8000d0e:	4d0b      	ldr	r5, [pc, #44]	; (8000d3c <__libc_init_array+0x4c>)
 8000d10:	1b76      	subs	r6, r6, r5
 8000d12:	f000 f949 	bl	8000fa8 <_init>
 8000d16:	10b6      	asrs	r6, r6, #2
 8000d18:	bf18      	it	ne
 8000d1a:	2400      	movne	r4, #0
 8000d1c:	d006      	beq.n	8000d2c <__libc_init_array+0x3c>
 8000d1e:	3401      	adds	r4, #1
 8000d20:	f855 3b04 	ldr.w	r3, [r5], #4
 8000d24:	4798      	blx	r3
 8000d26:	42a6      	cmp	r6, r4
 8000d28:	d1f9      	bne.n	8000d1e <__libc_init_array+0x2e>
 8000d2a:	bd70      	pop	{r4, r5, r6, pc}
 8000d2c:	bd70      	pop	{r4, r5, r6, pc}
 8000d2e:	bf00      	nop
 8000d30:	08000fd0 	stmdaeq	r0, {r4, r6, r7, r8, r9, sl, fp}
 8000d34:	08000fd0 	stmdaeq	r0, {r4, r6, r7, r8, r9, sl, fp}
 8000d38:	08000fd8 	stmdaeq	r0, {r3, r4, r6, r7, r8, r9, sl, fp}
 8000d3c:	08000fd0 	stmdaeq	r0, {r4, r6, r7, r8, r9, sl, fp}

08000d40 <memset>:
 8000d40:	b470      	push	{r4, r5, r6}
 8000d42:	0784      	lsls	r4, r0, #30
 8000d44:	d046      	beq.n	8000dd4 <memset+0x94>
 8000d46:	1e54      	subs	r4, r2, #1
 8000d48:	2a00      	cmp	r2, #0
 8000d4a:	d041      	beq.n	8000dd0 <memset+0x90>
 8000d4c:	b2cd      	uxtb	r5, r1
 8000d4e:	4603      	mov	r3, r0
 8000d50:	e002      	b.n	8000d58 <memset+0x18>
 8000d52:	1e62      	subs	r2, r4, #1
 8000d54:	b3e4      	cbz	r4, 8000dd0 <memset+0x90>
 8000d56:	4614      	mov	r4, r2
 8000d58:	f803 5b01 	strb.w	r5, [r3], #1
 8000d5c:	079a      	lsls	r2, r3, #30
 8000d5e:	d1f8      	bne.n	8000d52 <memset+0x12>
 8000d60:	2c03      	cmp	r4, #3
 8000d62:	d92e      	bls.n	8000dc2 <memset+0x82>
 8000d64:	b2cd      	uxtb	r5, r1
 8000d66:	ea45 2505 	orr.w	r5, r5, r5, lsl #8
 8000d6a:	2c0f      	cmp	r4, #15
 8000d6c:	ea45 4505 	orr.w	r5, r5, r5, lsl #16
 8000d70:	d919      	bls.n	8000da6 <memset+0x66>
 8000d72:	f103 0210 	add.w	r2, r3, #16
 8000d76:	4626      	mov	r6, r4
 8000d78:	3e10      	subs	r6, #16
 8000d7a:	2e0f      	cmp	r6, #15
 8000d7c:	f842 5c10 	str.w	r5, [r2, #-16]
 8000d80:	f842 5c0c 	str.w	r5, [r2, #-12]
 8000d84:	f842 5c08 	str.w	r5, [r2, #-8]
 8000d88:	f842 5c04 	str.w	r5, [r2, #-4]
 8000d8c:	f102 0210 	add.w	r2, r2, #16
 8000d90:	d8f2      	bhi.n	8000d78 <memset+0x38>
 8000d92:	f1a4 0210 	sub.w	r2, r4, #16
 8000d96:	f022 020f 	bic.w	r2, r2, #15
 8000d9a:	f004 040f 	and.w	r4, r4, #15
 8000d9e:	3210      	adds	r2, #16
 8000da0:	2c03      	cmp	r4, #3
 8000da2:	4413      	add	r3, r2
 8000da4:	d90d      	bls.n	8000dc2 <memset+0x82>
 8000da6:	461e      	mov	r6, r3
 8000da8:	4622      	mov	r2, r4
 8000daa:	3a04      	subs	r2, #4
 8000dac:	2a03      	cmp	r2, #3
 8000dae:	f846 5b04 	str.w	r5, [r6], #4
 8000db2:	d8fa      	bhi.n	8000daa <memset+0x6a>
 8000db4:	1f22      	subs	r2, r4, #4
 8000db6:	f022 0203 	bic.w	r2, r2, #3
 8000dba:	3204      	adds	r2, #4
 8000dbc:	4413      	add	r3, r2
 8000dbe:	f004 0403 	and.w	r4, r4, #3
 8000dc2:	b12c      	cbz	r4, 8000dd0 <memset+0x90>
 8000dc4:	b2c9      	uxtb	r1, r1
 8000dc6:	441c      	add	r4, r3
 8000dc8:	f803 1b01 	strb.w	r1, [r3], #1
 8000dcc:	42a3      	cmp	r3, r4
 8000dce:	d1fb      	bne.n	8000dc8 <memset+0x88>
 8000dd0:	bc70      	pop	{r4, r5, r6}
 8000dd2:	4770      	bx	lr
 8000dd4:	4614      	mov	r4, r2
 8000dd6:	4603      	mov	r3, r0
 8000dd8:	e7c2      	b.n	8000d60 <memset+0x20>
 8000dda:	bf00      	nop

08000ddc <register_fini>:
 8000ddc:	4b02      	ldr	r3, [pc, #8]	; (8000de8 <register_fini+0xc>)
 8000dde:	b113      	cbz	r3, 8000de6 <register_fini+0xa>
 8000de0:	4802      	ldr	r0, [pc, #8]	; (8000dec <register_fini+0x10>)
 8000de2:	f000 b86f 	b.w	8000ec4 <atexit>
 8000de6:	4770      	bx	lr
 8000de8:	00000000 	andeq	r0, r0, r0
 8000dec:	08000ed1 	stmdaeq	r0, {r0, r4, r6, r7, r9, sl, fp}

08000df0 <__call_exitprocs>:
 8000df0:	e92d 4ff0 	stmdb	sp!, {r4, r5, r6, r7, r8, r9, sl, fp, lr}
 8000df4:	4b31      	ldr	r3, [pc, #196]	; (8000ebc <__call_exitprocs+0xcc>)
 8000df6:	b083      	sub	sp, #12
 8000df8:	681b      	ldr	r3, [r3, #0]
 8000dfa:	9300      	str	r3, [sp, #0]
 8000dfc:	f503 73a4 	add.w	r3, r3, #328	; 0x148
 8000e00:	4681      	mov	r9, r0
 8000e02:	460e      	mov	r6, r1
 8000e04:	9301      	str	r3, [sp, #4]
 8000e06:	9b00      	ldr	r3, [sp, #0]
 8000e08:	f8d3 7148 	ldr.w	r7, [r3, #328]	; 0x148
 8000e0c:	b327      	cbz	r7, 8000e58 <__call_exitprocs+0x68>
 8000e0e:	f8dd a004 	ldr.w	sl, [sp, #4]
 8000e12:	687c      	ldr	r4, [r7, #4]
 8000e14:	1e65      	subs	r5, r4, #1
 8000e16:	d40e      	bmi.n	8000e36 <__call_exitprocs+0x46>
 8000e18:	3401      	adds	r4, #1
 8000e1a:	eb07 0484 	add.w	r4, r7, r4, lsl #2
 8000e1e:	f04f 0800 	mov.w	r8, #0
 8000e22:	b1e6      	cbz	r6, 8000e5e <__call_exitprocs+0x6e>
 8000e24:	f8d4 3100 	ldr.w	r3, [r4, #256]	; 0x100
 8000e28:	42b3      	cmp	r3, r6
 8000e2a:	d018      	beq.n	8000e5e <__call_exitprocs+0x6e>
 8000e2c:	3d01      	subs	r5, #1
 8000e2e:	1c6b      	adds	r3, r5, #1
 8000e30:	f1a4 0404 	sub.w	r4, r4, #4
 8000e34:	d1f5      	bne.n	8000e22 <__call_exitprocs+0x32>
 8000e36:	4b22      	ldr	r3, [pc, #136]	; (8000ec0 <__call_exitprocs+0xd0>)
 8000e38:	b173      	cbz	r3, 8000e58 <__call_exitprocs+0x68>
 8000e3a:	687b      	ldr	r3, [r7, #4]
 8000e3c:	2b00      	cmp	r3, #0
 8000e3e:	d136      	bne.n	8000eae <__call_exitprocs+0xbe>
 8000e40:	683b      	ldr	r3, [r7, #0]
 8000e42:	2b00      	cmp	r3, #0
 8000e44:	d034      	beq.n	8000eb0 <__call_exitprocs+0xc0>
 8000e46:	4638      	mov	r0, r7
 8000e48:	f8ca 3000 	str.w	r3, [sl]
 8000e4c:	f3af 8000 	nop.w
 8000e50:	f8da 7000 	ldr.w	r7, [sl]
 8000e54:	2f00      	cmp	r7, #0
 8000e56:	d1dc      	bne.n	8000e12 <__call_exitprocs+0x22>
 8000e58:	b003      	add	sp, #12
 8000e5a:	e8bd 8ff0 	ldmia.w	sp!, {r4, r5, r6, r7, r8, r9, sl, fp, pc}
 8000e5e:	687b      	ldr	r3, [r7, #4]
 8000e60:	6822      	ldr	r2, [r4, #0]
 8000e62:	3b01      	subs	r3, #1
 8000e64:	42ab      	cmp	r3, r5
 8000e66:	bf0c      	ite	eq
 8000e68:	607d      	streq	r5, [r7, #4]
 8000e6a:	f8c4 8000 	strne.w	r8, [r4]
 8000e6e:	2a00      	cmp	r2, #0
 8000e70:	d0dc      	beq.n	8000e2c <__call_exitprocs+0x3c>
 8000e72:	f8d7 3188 	ldr.w	r3, [r7, #392]	; 0x188
 8000e76:	f8d7 b004 	ldr.w	fp, [r7, #4]
 8000e7a:	2101      	movs	r1, #1
 8000e7c:	40a9      	lsls	r1, r5
 8000e7e:	4219      	tst	r1, r3
 8000e80:	d108      	bne.n	8000e94 <__call_exitprocs+0xa4>
 8000e82:	4790      	blx	r2
 8000e84:	687b      	ldr	r3, [r7, #4]
 8000e86:	455b      	cmp	r3, fp
 8000e88:	d1bd      	bne.n	8000e06 <__call_exitprocs+0x16>
 8000e8a:	f8da 3000 	ldr.w	r3, [sl]
 8000e8e:	42bb      	cmp	r3, r7
 8000e90:	d0cc      	beq.n	8000e2c <__call_exitprocs+0x3c>
 8000e92:	e7b8      	b.n	8000e06 <__call_exitprocs+0x16>
 8000e94:	f8d7 318c 	ldr.w	r3, [r7, #396]	; 0x18c
 8000e98:	4219      	tst	r1, r3
 8000e9a:	d104      	bne.n	8000ea6 <__call_exitprocs+0xb6>
 8000e9c:	4648      	mov	r0, r9
 8000e9e:	f8d4 1080 	ldr.w	r1, [r4, #128]	; 0x80
 8000ea2:	4790      	blx	r2
 8000ea4:	e7ee      	b.n	8000e84 <__call_exitprocs+0x94>
 8000ea6:	f8d4 0080 	ldr.w	r0, [r4, #128]	; 0x80
 8000eaa:	4790      	blx	r2
 8000eac:	e7ea      	b.n	8000e84 <__call_exitprocs+0x94>
 8000eae:	683b      	ldr	r3, [r7, #0]
 8000eb0:	46ba      	mov	sl, r7
 8000eb2:	461f      	mov	r7, r3
 8000eb4:	2f00      	cmp	r7, #0
 8000eb6:	d1ac      	bne.n	8000e12 <__call_exitprocs+0x22>
 8000eb8:	e7ce      	b.n	8000e58 <__call_exitprocs+0x68>
 8000eba:	bf00      	nop
 8000ebc:	08000fc4 	stmdaeq	r0, {r2, r6, r7, r8, r9, sl, fp}
 8000ec0:	00000000 	andeq	r0, r0, r0

08000ec4 <atexit>:
 8000ec4:	4601      	mov	r1, r0
 8000ec6:	2000      	movs	r0, #0
 8000ec8:	4602      	mov	r2, r0
 8000eca:	4603      	mov	r3, r0
 8000ecc:	f000 b816 	b.w	8000efc <__register_exitproc>

08000ed0 <__libc_fini_array>:
 8000ed0:	b538      	push	{r3, r4, r5, lr}
 8000ed2:	4b08      	ldr	r3, [pc, #32]	; (8000ef4 <__libc_fini_array+0x24>)
 8000ed4:	4d08      	ldr	r5, [pc, #32]	; (8000ef8 <__libc_fini_array+0x28>)
 8000ed6:	1aed      	subs	r5, r5, r3
 8000ed8:	10ac      	asrs	r4, r5, #2
 8000eda:	bf18      	it	ne
 8000edc:	18ed      	addne	r5, r5, r3
 8000ede:	d005      	beq.n	8000eec <__libc_fini_array+0x1c>
 8000ee0:	3c01      	subs	r4, #1
 8000ee2:	f855 3d04 	ldr.w	r3, [r5, #-4]!
 8000ee6:	4798      	blx	r3
 8000ee8:	2c00      	cmp	r4, #0
 8000eea:	d1f9      	bne.n	8000ee0 <__libc_fini_array+0x10>
 8000eec:	e8bd 4038 	ldmia.w	sp!, {r3, r4, r5, lr}
 8000ef0:	f000 b860 	b.w	8000fb4 <_fini>
 8000ef4:	08000fd8 	stmdaeq	r0, {r3, r4, r6, r7, r8, r9, sl, fp}
 8000ef8:	08000fdc 	stmdaeq	r0, {r2, r3, r4, r6, r7, r8, r9, sl, fp}

08000efc <__register_exitproc>:
 8000efc:	e92d 47f0 	stmdb	sp!, {r4, r5, r6, r7, r8, r9, sl, lr}
 8000f00:	4c25      	ldr	r4, [pc, #148]	; (8000f98 <__register_exitproc+0x9c>)
 8000f02:	6825      	ldr	r5, [r4, #0]
 8000f04:	f8d5 4148 	ldr.w	r4, [r5, #328]	; 0x148
 8000f08:	4606      	mov	r6, r0
 8000f0a:	4688      	mov	r8, r1
 8000f0c:	4692      	mov	sl, r2
 8000f0e:	4699      	mov	r9, r3
 8000f10:	b3cc      	cbz	r4, 8000f86 <__register_exitproc+0x8a>
 8000f12:	6860      	ldr	r0, [r4, #4]
 8000f14:	281f      	cmp	r0, #31
 8000f16:	dc18      	bgt.n	8000f4a <__register_exitproc+0x4e>
 8000f18:	1c43      	adds	r3, r0, #1
 8000f1a:	b17e      	cbz	r6, 8000f3c <__register_exitproc+0x40>
 8000f1c:	eb04 0580 	add.w	r5, r4, r0, lsl #2
 8000f20:	2101      	movs	r1, #1
 8000f22:	f8c5 a088 	str.w	sl, [r5, #136]	; 0x88
 8000f26:	f8d4 7188 	ldr.w	r7, [r4, #392]	; 0x188
 8000f2a:	fa01 f200 	lsl.w	r2, r1, r0
 8000f2e:	4317      	orrs	r7, r2
 8000f30:	2e02      	cmp	r6, #2
 8000f32:	f8c4 7188 	str.w	r7, [r4, #392]	; 0x188
 8000f36:	f8c5 9108 	str.w	r9, [r5, #264]	; 0x108
 8000f3a:	d01e      	beq.n	8000f7a <__register_exitproc+0x7e>
 8000f3c:	3002      	adds	r0, #2
 8000f3e:	6063      	str	r3, [r4, #4]
 8000f40:	f844 8020 	str.w	r8, [r4, r0, lsl #2]
 8000f44:	2000      	movs	r0, #0
 8000f46:	e8bd 87f0 	ldmia.w	sp!, {r4, r5, r6, r7, r8, r9, sl, pc}
 8000f4a:	4b14      	ldr	r3, [pc, #80]	; (8000f9c <__register_exitproc+0xa0>)
 8000f4c:	b303      	cbz	r3, 8000f90 <__register_exitproc+0x94>
 8000f4e:	f44f 70c8 	mov.w	r0, #400	; 0x190
 8000f52:	f3af 8000 	nop.w
 8000f56:	4604      	mov	r4, r0
 8000f58:	b1d0      	cbz	r0, 8000f90 <__register_exitproc+0x94>
 8000f5a:	f8d5 3148 	ldr.w	r3, [r5, #328]	; 0x148
 8000f5e:	2700      	movs	r7, #0
 8000f60:	e880 0088 	stmia.w	r0, {r3, r7}
 8000f64:	f8c5 4148 	str.w	r4, [r5, #328]	; 0x148
 8000f68:	4638      	mov	r0, r7
 8000f6a:	2301      	movs	r3, #1
 8000f6c:	f8c4 7188 	str.w	r7, [r4, #392]	; 0x188
 8000f70:	f8c4 718c 	str.w	r7, [r4, #396]	; 0x18c
 8000f74:	2e00      	cmp	r6, #0
 8000f76:	d0e1      	beq.n	8000f3c <__register_exitproc+0x40>
 8000f78:	e7d0      	b.n	8000f1c <__register_exitproc+0x20>
 8000f7a:	f8d4 118c 	ldr.w	r1, [r4, #396]	; 0x18c
 8000f7e:	430a      	orrs	r2, r1
 8000f80:	f8c4 218c 	str.w	r2, [r4, #396]	; 0x18c
 8000f84:	e7da      	b.n	8000f3c <__register_exitproc+0x40>
 8000f86:	f505 74a6 	add.w	r4, r5, #332	; 0x14c
 8000f8a:	f8c5 4148 	str.w	r4, [r5, #328]	; 0x148
 8000f8e:	e7c0      	b.n	8000f12 <__register_exitproc+0x16>
 8000f90:	f04f 30ff 	mov.w	r0, #4294967295
 8000f94:	e8bd 87f0 	ldmia.w	sp!, {r4, r5, r6, r7, r8, r9, sl, pc}
 8000f98:	08000fc4 	stmdaeq	r0, {r2, r6, r7, r8, r9, sl, fp}
 8000f9c:	00000000 	andeq	r0, r0, r0

08000fa0 <_exit>:
 8000fa0:	e7fe      	b.n	8000fa0 <_exit>
 8000fa2:	bf00      	nop

08000fa4 <__EH_FRAME_BEGIN__>:
 8000fa4:	00000000 	andeq	r0, r0, r0

08000fa8 <_init>:
 8000fa8:	b5f8      	push	{r3, r4, r5, r6, r7, lr}
 8000faa:	bf00      	nop
 8000fac:	bcf8      	pop	{r3, r4, r5, r6, r7}
 8000fae:	bc08      	pop	{r3}
 8000fb0:	469e      	mov	lr, r3
 8000fb2:	4770      	bx	lr

08000fb4 <_fini>:
 8000fb4:	b5f8      	push	{r3, r4, r5, r6, r7, lr}
 8000fb6:	bf00      	nop
 8000fb8:	bcf8      	pop	{r3, r4, r5, r6, r7}
 8000fba:	bc08      	pop	{r3}
 8000fbc:	469e      	mov	lr, r3
 8000fbe:	4770      	bx	lr

Disassembly of section .ARM:

08000fc8 <__exidx_start>:
 8000fc8:	7ffff21c 	svcvc	0x00fff21c
 8000fcc:	00000001 	andeq	r0, r0, r1
