
dttoggle.elf:     file format elf32-littlearm


Disassembly of section .isr_vector:

08000000 <g_pfnVectors>:
 8000000:	2001ffff 	strdcs	pc, [r1], -pc	; <UNPREDICTABLE>
 8000004:	08000c85 	stmdaeq	r0, {r0, r2, r7, sl, fp}
 8000008:	08000ccd 	stmdaeq	r0, {r0, r2, r3, r6, r7, sl, fp}
 800000c:	08000ccd 	stmdaeq	r0, {r0, r2, r3, r6, r7, sl, fp}
 8000010:	08000ccd 	stmdaeq	r0, {r0, r2, r3, r6, r7, sl, fp}
 8000014:	08000ccd 	stmdaeq	r0, {r0, r2, r3, r6, r7, sl, fp}
 8000018:	08000ccd 	stmdaeq	r0, {r0, r2, r3, r6, r7, sl, fp}
	...
 800002c:	08000ccd 	stmdaeq	r0, {r0, r2, r3, r6, r7, sl, fp}
 8000030:	08000ccd 	stmdaeq	r0, {r0, r2, r3, r6, r7, sl, fp}
 8000034:	00000000 	andeq	r0, r0, r0
 8000038:	08000ccd 	stmdaeq	r0, {r0, r2, r3, r6, r7, sl, fp}
 800003c:	08000ccd 	stmdaeq	r0, {r0, r2, r3, r6, r7, sl, fp}
 8000040:	08000ccd 	stmdaeq	r0, {r0, r2, r3, r6, r7, sl, fp}
 8000044:	08000ccd 	stmdaeq	r0, {r0, r2, r3, r6, r7, sl, fp}
 8000048:	08000ccd 	stmdaeq	r0, {r0, r2, r3, r6, r7, sl, fp}
 800004c:	08000ccd 	stmdaeq	r0, {r0, r2, r3, r6, r7, sl, fp}
 8000050:	08000ccd 	stmdaeq	r0, {r0, r2, r3, r6, r7, sl, fp}
 8000054:	08000ccd 	stmdaeq	r0, {r0, r2, r3, r6, r7, sl, fp}
 8000058:	08000ccd 	stmdaeq	r0, {r0, r2, r3, r6, r7, sl, fp}
 800005c:	08000ccd 	stmdaeq	r0, {r0, r2, r3, r6, r7, sl, fp}
 8000060:	08000ccd 	stmdaeq	r0, {r0, r2, r3, r6, r7, sl, fp}
 8000064:	08000ccd 	stmdaeq	r0, {r0, r2, r3, r6, r7, sl, fp}
 8000068:	08000ccd 	stmdaeq	r0, {r0, r2, r3, r6, r7, sl, fp}
 800006c:	08000ccd 	stmdaeq	r0, {r0, r2, r3, r6, r7, sl, fp}
 8000070:	08000ccd 	stmdaeq	r0, {r0, r2, r3, r6, r7, sl, fp}
 8000074:	08000ccd 	stmdaeq	r0, {r0, r2, r3, r6, r7, sl, fp}
 8000078:	08000ccd 	stmdaeq	r0, {r0, r2, r3, r6, r7, sl, fp}
 800007c:	08000ccd 	stmdaeq	r0, {r0, r2, r3, r6, r7, sl, fp}
 8000080:	08000ccd 	stmdaeq	r0, {r0, r2, r3, r6, r7, sl, fp}
 8000084:	08000ccd 	stmdaeq	r0, {r0, r2, r3, r6, r7, sl, fp}
 8000088:	08000ccd 	stmdaeq	r0, {r0, r2, r3, r6, r7, sl, fp}
 800008c:	08000ccd 	stmdaeq	r0, {r0, r2, r3, r6, r7, sl, fp}
 8000090:	08000ccd 	stmdaeq	r0, {r0, r2, r3, r6, r7, sl, fp}
 8000094:	08000ccd 	stmdaeq	r0, {r0, r2, r3, r6, r7, sl, fp}
 8000098:	08000ccd 	stmdaeq	r0, {r0, r2, r3, r6, r7, sl, fp}
 800009c:	08000ccd 	stmdaeq	r0, {r0, r2, r3, r6, r7, sl, fp}
 80000a0:	08000ccd 	stmdaeq	r0, {r0, r2, r3, r6, r7, sl, fp}
 80000a4:	08000ccd 	stmdaeq	r0, {r0, r2, r3, r6, r7, sl, fp}
 80000a8:	08000ccd 	stmdaeq	r0, {r0, r2, r3, r6, r7, sl, fp}
 80000ac:	08000ccd 	stmdaeq	r0, {r0, r2, r3, r6, r7, sl, fp}
 80000b0:	08000ccd 	stmdaeq	r0, {r0, r2, r3, r6, r7, sl, fp}
 80000b4:	08000ccd 	stmdaeq	r0, {r0, r2, r3, r6, r7, sl, fp}
 80000b8:	08000ccd 	stmdaeq	r0, {r0, r2, r3, r6, r7, sl, fp}
 80000bc:	08000ccd 	stmdaeq	r0, {r0, r2, r3, r6, r7, sl, fp}
 80000c0:	08000ccd 	stmdaeq	r0, {r0, r2, r3, r6, r7, sl, fp}
 80000c4:	08000ccd 	stmdaeq	r0, {r0, r2, r3, r6, r7, sl, fp}
 80000c8:	08000ccd 	stmdaeq	r0, {r0, r2, r3, r6, r7, sl, fp}
 80000cc:	08000ccd 	stmdaeq	r0, {r0, r2, r3, r6, r7, sl, fp}
 80000d0:	08000ccd 	stmdaeq	r0, {r0, r2, r3, r6, r7, sl, fp}
 80000d4:	08000ccd 	stmdaeq	r0, {r0, r2, r3, r6, r7, sl, fp}
 80000d8:	08000ccd 	stmdaeq	r0, {r0, r2, r3, r6, r7, sl, fp}
 80000dc:	08000ccd 	stmdaeq	r0, {r0, r2, r3, r6, r7, sl, fp}
 80000e0:	08000ccd 	stmdaeq	r0, {r0, r2, r3, r6, r7, sl, fp}
 80000e4:	08000ccd 	stmdaeq	r0, {r0, r2, r3, r6, r7, sl, fp}
 80000e8:	08000ccd 	stmdaeq	r0, {r0, r2, r3, r6, r7, sl, fp}
 80000ec:	08000ccd 	stmdaeq	r0, {r0, r2, r3, r6, r7, sl, fp}
 80000f0:	08000ccd 	stmdaeq	r0, {r0, r2, r3, r6, r7, sl, fp}
 80000f4:	08000ccd 	stmdaeq	r0, {r0, r2, r3, r6, r7, sl, fp}
 80000f8:	08000ccd 	stmdaeq	r0, {r0, r2, r3, r6, r7, sl, fp}
 80000fc:	08000ccd 	stmdaeq	r0, {r0, r2, r3, r6, r7, sl, fp}
 8000100:	08000ccd 	stmdaeq	r0, {r0, r2, r3, r6, r7, sl, fp}
 8000104:	08000ccd 	stmdaeq	r0, {r0, r2, r3, r6, r7, sl, fp}
 8000108:	08000ccd 	stmdaeq	r0, {r0, r2, r3, r6, r7, sl, fp}
 800010c:	08000ccd 	stmdaeq	r0, {r0, r2, r3, r6, r7, sl, fp}
 8000110:	08000ccd 	stmdaeq	r0, {r0, r2, r3, r6, r7, sl, fp}
 8000114:	08000ccd 	stmdaeq	r0, {r0, r2, r3, r6, r7, sl, fp}
 8000118:	08000ccd 	stmdaeq	r0, {r0, r2, r3, r6, r7, sl, fp}
 800011c:	08000ccd 	stmdaeq	r0, {r0, r2, r3, r6, r7, sl, fp}
 8000120:	08000ccd 	stmdaeq	r0, {r0, r2, r3, r6, r7, sl, fp}
 8000124:	08000ccd 	stmdaeq	r0, {r0, r2, r3, r6, r7, sl, fp}
 8000128:	08000ccd 	stmdaeq	r0, {r0, r2, r3, r6, r7, sl, fp}
 800012c:	08000ccd 	stmdaeq	r0, {r0, r2, r3, r6, r7, sl, fp}
 8000130:	08000ccd 	stmdaeq	r0, {r0, r2, r3, r6, r7, sl, fp}
 8000134:	08000ccd 	stmdaeq	r0, {r0, r2, r3, r6, r7, sl, fp}
 8000138:	08000ccd 	stmdaeq	r0, {r0, r2, r3, r6, r7, sl, fp}
 800013c:	08000ccd 	stmdaeq	r0, {r0, r2, r3, r6, r7, sl, fp}
 8000140:	08000ccd 	stmdaeq	r0, {r0, r2, r3, r6, r7, sl, fp}
 8000144:	08000ccd 	stmdaeq	r0, {r0, r2, r3, r6, r7, sl, fp}
 8000148:	08000ccd 	stmdaeq	r0, {r0, r2, r3, r6, r7, sl, fp}
 800014c:	08000ccd 	stmdaeq	r0, {r0, r2, r3, r6, r7, sl, fp}
 8000150:	08000ccd 	stmdaeq	r0, {r0, r2, r3, r6, r7, sl, fp}
 8000154:	08000ccd 	stmdaeq	r0, {r0, r2, r3, r6, r7, sl, fp}
 8000158:	08000ccd 	stmdaeq	r0, {r0, r2, r3, r6, r7, sl, fp}
 800015c:	08000ccd 	stmdaeq	r0, {r0, r2, r3, r6, r7, sl, fp}
 8000160:	08000ccd 	stmdaeq	r0, {r0, r2, r3, r6, r7, sl, fp}
 8000164:	08000ccd 	stmdaeq	r0, {r0, r2, r3, r6, r7, sl, fp}
 8000168:	08000ccd 	stmdaeq	r0, {r0, r2, r3, r6, r7, sl, fp}
 800016c:	08000ccd 	stmdaeq	r0, {r0, r2, r3, r6, r7, sl, fp}
 8000170:	08000ccd 	stmdaeq	r0, {r0, r2, r3, r6, r7, sl, fp}
 8000174:	08000ccd 	stmdaeq	r0, {r0, r2, r3, r6, r7, sl, fp}
 8000178:	08000ccd 	stmdaeq	r0, {r0, r2, r3, r6, r7, sl, fp}
 800017c:	08000ccd 	stmdaeq	r0, {r0, r2, r3, r6, r7, sl, fp}
 8000180:	08000ccd 	stmdaeq	r0, {r0, r2, r3, r6, r7, sl, fp}
 8000184:	08000ccd 	stmdaeq	r0, {r0, r2, r3, r6, r7, sl, fp}

Disassembly of section .text:

08000188 <__do_global_dtors_aux>:
 8000188:	b510      	push	{r4, lr}
 800018a:	4c05      	ldr	r4, [pc, #20]	; (80001a0 <__do_global_dtors_aux+0x18>)
 800018c:	7823      	ldrb	r3, [r4, #0]
 800018e:	b933      	cbnz	r3, 800019e <__do_global_dtors_aux+0x16>
 8000190:	4b04      	ldr	r3, [pc, #16]	; (80001a4 <__do_global_dtors_aux+0x1c>)
 8000192:	b113      	cbz	r3, 800019a <__do_global_dtors_aux+0x12>
 8000194:	4804      	ldr	r0, [pc, #16]	; (80001a8 <__do_global_dtors_aux+0x20>)
 8000196:	f3af 8000 	nop.w
 800019a:	2301      	movs	r3, #1
 800019c:	7023      	strb	r3, [r4, #0]
 800019e:	bd10      	pop	{r4, pc}
 80001a0:	20000458 	andcs	r0, r0, r8, asr r4
 80001a4:	00000000 	andeq	r0, r0, r0
 80001a8:	08000fa4 	stmdaeq	r0, {r2, r5, r7, r8, r9, sl, fp}

080001ac <frame_dummy>:
 80001ac:	4b08      	ldr	r3, [pc, #32]	; (80001d0 <frame_dummy+0x24>)
 80001ae:	b510      	push	{r4, lr}
 80001b0:	b11b      	cbz	r3, 80001ba <frame_dummy+0xe>
 80001b2:	4808      	ldr	r0, [pc, #32]	; (80001d4 <frame_dummy+0x28>)
 80001b4:	4908      	ldr	r1, [pc, #32]	; (80001d8 <frame_dummy+0x2c>)
 80001b6:	f3af 8000 	nop.w
 80001ba:	4808      	ldr	r0, [pc, #32]	; (80001dc <frame_dummy+0x30>)
 80001bc:	6803      	ldr	r3, [r0, #0]
 80001be:	b903      	cbnz	r3, 80001c2 <frame_dummy+0x16>
 80001c0:	bd10      	pop	{r4, pc}
 80001c2:	4b07      	ldr	r3, [pc, #28]	; (80001e0 <frame_dummy+0x34>)
 80001c4:	2b00      	cmp	r3, #0
 80001c6:	d0fb      	beq.n	80001c0 <frame_dummy+0x14>
 80001c8:	e8bd 4010 	ldmia.w	sp!, {r4, lr}
 80001cc:	4718      	bx	r3
 80001ce:	bf00      	nop
 80001d0:	00000000 	andeq	r0, r0, r0
 80001d4:	08000fa4 	stmdaeq	r0, {r2, r5, r7, r8, r9, sl, fp}
 80001d8:	2000045c 	andcs	r0, r0, ip, asr r4
 80001dc:	20000454 	andcs	r0, r0, r4, asr r4
 80001e0:	00000000 	andeq	r0, r0, r0

080001e4 <_mainCRTStartup>:
 80001e4:	4b15      	ldr	r3, [pc, #84]	; (800023c <_mainCRTStartup+0x58>)
 80001e6:	2b00      	cmp	r3, #0
 80001e8:	bf08      	it	eq
 80001ea:	4b13      	ldreq	r3, [pc, #76]	; (8000238 <_mainCRTStartup+0x54>)
 80001ec:	469d      	mov	sp, r3
 80001ee:	f5a3 3a80 	sub.w	sl, r3, #65536	; 0x10000
 80001f2:	2100      	movs	r1, #0
 80001f4:	468b      	mov	fp, r1
 80001f6:	460f      	mov	r7, r1
 80001f8:	4813      	ldr	r0, [pc, #76]	; (8000248 <_mainCRTStartup+0x64>)
 80001fa:	4a14      	ldr	r2, [pc, #80]	; (800024c <_mainCRTStartup+0x68>)
 80001fc:	1a12      	subs	r2, r2, r0
 80001fe:	f000 fd9f 	bl	8000d40 <memset>
 8000202:	4b0f      	ldr	r3, [pc, #60]	; (8000240 <_mainCRTStartup+0x5c>)
 8000204:	2b00      	cmp	r3, #0
 8000206:	d000      	beq.n	800020a <_mainCRTStartup+0x26>
 8000208:	4798      	blx	r3
 800020a:	4b0e      	ldr	r3, [pc, #56]	; (8000244 <_mainCRTStartup+0x60>)
 800020c:	2b00      	cmp	r3, #0
 800020e:	d000      	beq.n	8000212 <_mainCRTStartup+0x2e>
 8000210:	4798      	blx	r3
 8000212:	2000      	movs	r0, #0
 8000214:	2100      	movs	r1, #0
 8000216:	0004      	movs	r4, r0
 8000218:	000d      	movs	r5, r1
 800021a:	480d      	ldr	r0, [pc, #52]	; (8000250 <_mainCRTStartup+0x6c>)
 800021c:	2800      	cmp	r0, #0
 800021e:	d002      	beq.n	8000226 <_mainCRTStartup+0x42>
 8000220:	480c      	ldr	r0, [pc, #48]	; (8000254 <_mainCRTStartup+0x70>)
 8000222:	f000 fe4f 	bl	8000ec4 <atexit>
 8000226:	f000 fd63 	bl	8000cf0 <__libc_init_array>
 800022a:	0020      	movs	r0, r4
 800022c:	0029      	movs	r1, r5
 800022e:	f000 fcdf 	bl	8000bf0 <main>
 8000232:	f000 fd4d 	bl	8000cd0 <exit>
 8000236:	bf00      	nop
 8000238:	00080000 	andeq	r0, r8, r0
	...
 8000248:	20000458 	andcs	r0, r0, r8, asr r4
 800024c:	20000474 	andcs	r0, r0, r4, ror r4
 8000250:	08000ec5 	stmdaeq	r0, {r0, r2, r6, r7, r9, sl, fp}
 8000254:	08000ed1 	stmdaeq	r0, {r0, r4, r6, r7, r9, sl, fp}

08000258 <GPIO_DeInit>:
 8000258:	b508      	push	{r3, lr}
 800025a:	4b4b      	ldr	r3, [pc, #300]	; (8000388 <GPIO_DeInit+0x130>)
 800025c:	4298      	cmp	r0, r3
 800025e:	d02a      	beq.n	80002b6 <GPIO_DeInit+0x5e>
 8000260:	4b4a      	ldr	r3, [pc, #296]	; (800038c <GPIO_DeInit+0x134>)
 8000262:	4298      	cmp	r0, r3
 8000264:	d031      	beq.n	80002ca <GPIO_DeInit+0x72>
 8000266:	4b4a      	ldr	r3, [pc, #296]	; (8000390 <GPIO_DeInit+0x138>)
 8000268:	4298      	cmp	r0, r3
 800026a:	d038      	beq.n	80002de <GPIO_DeInit+0x86>
 800026c:	4b49      	ldr	r3, [pc, #292]	; (8000394 <GPIO_DeInit+0x13c>)
 800026e:	4298      	cmp	r0, r3
 8000270:	d03f      	beq.n	80002f2 <GPIO_DeInit+0x9a>
 8000272:	4b49      	ldr	r3, [pc, #292]	; (8000398 <GPIO_DeInit+0x140>)
 8000274:	4298      	cmp	r0, r3
 8000276:	d046      	beq.n	8000306 <GPIO_DeInit+0xae>
 8000278:	4b48      	ldr	r3, [pc, #288]	; (800039c <GPIO_DeInit+0x144>)
 800027a:	4298      	cmp	r0, r3
 800027c:	d04d      	beq.n	800031a <GPIO_DeInit+0xc2>
 800027e:	4b48      	ldr	r3, [pc, #288]	; (80003a0 <GPIO_DeInit+0x148>)
 8000280:	4298      	cmp	r0, r3
 8000282:	d054      	beq.n	800032e <GPIO_DeInit+0xd6>
 8000284:	4b47      	ldr	r3, [pc, #284]	; (80003a4 <GPIO_DeInit+0x14c>)
 8000286:	4298      	cmp	r0, r3
 8000288:	d05b      	beq.n	8000342 <GPIO_DeInit+0xea>
 800028a:	4b47      	ldr	r3, [pc, #284]	; (80003a8 <GPIO_DeInit+0x150>)
 800028c:	4298      	cmp	r0, r3
 800028e:	d062      	beq.n	8000356 <GPIO_DeInit+0xfe>
 8000290:	4b46      	ldr	r3, [pc, #280]	; (80003ac <GPIO_DeInit+0x154>)
 8000292:	4298      	cmp	r0, r3
 8000294:	d06b      	beq.n	800036e <GPIO_DeInit+0x116>
 8000296:	4b46      	ldr	r3, [pc, #280]	; (80003b0 <GPIO_DeInit+0x158>)
 8000298:	4298      	cmp	r0, r3
 800029a:	d000      	beq.n	800029e <GPIO_DeInit+0x46>
 800029c:	bd08      	pop	{r3, pc}
 800029e:	f44f 6080 	mov.w	r0, #1024	; 0x400
 80002a2:	2101      	movs	r1, #1
 80002a4:	f000 fb1e 	bl	80008e4 <RCC_AHB1PeriphResetCmd>
 80002a8:	f44f 6080 	mov.w	r0, #1024	; 0x400
 80002ac:	2100      	movs	r1, #0
 80002ae:	e8bd 4008 	ldmia.w	sp!, {r3, lr}
 80002b2:	f000 bb17 	b.w	80008e4 <RCC_AHB1PeriphResetCmd>
 80002b6:	2001      	movs	r0, #1
 80002b8:	4601      	mov	r1, r0
 80002ba:	f000 fb13 	bl	80008e4 <RCC_AHB1PeriphResetCmd>
 80002be:	2001      	movs	r0, #1
 80002c0:	2100      	movs	r1, #0
 80002c2:	e8bd 4008 	ldmia.w	sp!, {r3, lr}
 80002c6:	f000 bb0d 	b.w	80008e4 <RCC_AHB1PeriphResetCmd>
 80002ca:	2002      	movs	r0, #2
 80002cc:	2101      	movs	r1, #1
 80002ce:	f000 fb09 	bl	80008e4 <RCC_AHB1PeriphResetCmd>
 80002d2:	2002      	movs	r0, #2
 80002d4:	2100      	movs	r1, #0
 80002d6:	e8bd 4008 	ldmia.w	sp!, {r3, lr}
 80002da:	f000 bb03 	b.w	80008e4 <RCC_AHB1PeriphResetCmd>
 80002de:	2004      	movs	r0, #4
 80002e0:	2101      	movs	r1, #1
 80002e2:	f000 faff 	bl	80008e4 <RCC_AHB1PeriphResetCmd>
 80002e6:	2004      	movs	r0, #4
 80002e8:	2100      	movs	r1, #0
 80002ea:	e8bd 4008 	ldmia.w	sp!, {r3, lr}
 80002ee:	f000 baf9 	b.w	80008e4 <RCC_AHB1PeriphResetCmd>
 80002f2:	2008      	movs	r0, #8
 80002f4:	2101      	movs	r1, #1
 80002f6:	f000 faf5 	bl	80008e4 <RCC_AHB1PeriphResetCmd>
 80002fa:	2008      	movs	r0, #8
 80002fc:	2100      	movs	r1, #0
 80002fe:	e8bd 4008 	ldmia.w	sp!, {r3, lr}
 8000302:	f000 baef 	b.w	80008e4 <RCC_AHB1PeriphResetCmd>
 8000306:	2010      	movs	r0, #16
 8000308:	2101      	movs	r1, #1
 800030a:	f000 faeb 	bl	80008e4 <RCC_AHB1PeriphResetCmd>
 800030e:	2010      	movs	r0, #16
 8000310:	2100      	movs	r1, #0
 8000312:	e8bd 4008 	ldmia.w	sp!, {r3, lr}
 8000316:	f000 bae5 	b.w	80008e4 <RCC_AHB1PeriphResetCmd>
 800031a:	2020      	movs	r0, #32
 800031c:	2101      	movs	r1, #1
 800031e:	f000 fae1 	bl	80008e4 <RCC_AHB1PeriphResetCmd>
 8000322:	2020      	movs	r0, #32
 8000324:	2100      	movs	r1, #0
 8000326:	e8bd 4008 	ldmia.w	sp!, {r3, lr}
 800032a:	f000 badb 	b.w	80008e4 <RCC_AHB1PeriphResetCmd>
 800032e:	2040      	movs	r0, #64	; 0x40
 8000330:	2101      	movs	r1, #1
 8000332:	f000 fad7 	bl	80008e4 <RCC_AHB1PeriphResetCmd>
 8000336:	2040      	movs	r0, #64	; 0x40
 8000338:	2100      	movs	r1, #0
 800033a:	e8bd 4008 	ldmia.w	sp!, {r3, lr}
 800033e:	f000 bad1 	b.w	80008e4 <RCC_AHB1PeriphResetCmd>
 8000342:	2080      	movs	r0, #128	; 0x80
 8000344:	2101      	movs	r1, #1
 8000346:	f000 facd 	bl	80008e4 <RCC_AHB1PeriphResetCmd>
 800034a:	2080      	movs	r0, #128	; 0x80
 800034c:	2100      	movs	r1, #0
 800034e:	e8bd 4008 	ldmia.w	sp!, {r3, lr}
 8000352:	f000 bac7 	b.w	80008e4 <RCC_AHB1PeriphResetCmd>
 8000356:	f44f 7080 	mov.w	r0, #256	; 0x100
 800035a:	2101      	movs	r1, #1
 800035c:	f000 fac2 	bl	80008e4 <RCC_AHB1PeriphResetCmd>
 8000360:	f44f 7080 	mov.w	r0, #256	; 0x100
 8000364:	2100      	movs	r1, #0
 8000366:	e8bd 4008 	ldmia.w	sp!, {r3, lr}
 800036a:	f000 babb 	b.w	80008e4 <RCC_AHB1PeriphResetCmd>
 800036e:	f44f 7000 	mov.w	r0, #512	; 0x200
 8000372:	2101      	movs	r1, #1
 8000374:	f000 fab6 	bl	80008e4 <RCC_AHB1PeriphResetCmd>
 8000378:	f44f 7000 	mov.w	r0, #512	; 0x200
 800037c:	2100      	movs	r1, #0
 800037e:	e8bd 4008 	ldmia.w	sp!, {r3, lr}
 8000382:	f000 baaf 	b.w	80008e4 <RCC_AHB1PeriphResetCmd>
 8000386:	bf00      	nop
 8000388:	40020000 	andmi	r0, r2, r0
 800038c:	40020400 	andmi	r0, r2, r0, lsl #8
 8000390:	40020800 	andmi	r0, r2, r0, lsl #16
 8000394:	40020c00 	andmi	r0, r2, r0, lsl #24
 8000398:	40021000 	andmi	r1, r2, r0
 800039c:	40021400 	andmi	r1, r2, r0, lsl #8
 80003a0:	40021800 	andmi	r1, r2, r0, lsl #16
 80003a4:	40021c00 	andmi	r1, r2, r0, lsl #24
 80003a8:	40022000 	andmi	r2, r2, r0
 80003ac:	40022400 	andmi	r2, r2, r0, lsl #8
 80003b0:	40022800 	andmi	r2, r2, r0, lsl #16

080003b4 <GPIO_Init>:
 80003b4:	2200      	movs	r2, #0
 80003b6:	e92d 43f0 	stmdb	sp!, {r4, r5, r6, r7, r8, r9, lr}
 80003ba:	4613      	mov	r3, r2
 80003bc:	f8d1 e000 	ldr.w	lr, [r1]
 80003c0:	2701      	movs	r7, #1
 80003c2:	f04f 0c03 	mov.w	ip, #3
 80003c6:	e004      	b.n	80003d2 <GPIO_Init+0x1e>
 80003c8:	3301      	adds	r3, #1
 80003ca:	2b10      	cmp	r3, #16
 80003cc:	f102 0202 	add.w	r2, r2, #2
 80003d0:	d028      	beq.n	8000424 <GPIO_Init+0x70>
 80003d2:	fa07 f403 	lsl.w	r4, r7, r3
 80003d6:	ea04 050e 	and.w	r5, r4, lr
 80003da:	42a5      	cmp	r5, r4
 80003dc:	d1f4      	bne.n	80003c8 <GPIO_Init+0x14>
 80003de:	f8d0 8000 	ldr.w	r8, [r0]
 80003e2:	790e      	ldrb	r6, [r1, #4]
 80003e4:	fa0c f402 	lsl.w	r4, ip, r2
 80003e8:	43e4      	mvns	r4, r4
 80003ea:	ea04 0808 	and.w	r8, r4, r8
 80003ee:	f8c0 8000 	str.w	r8, [r0]
 80003f2:	f8d0 8000 	ldr.w	r8, [r0]
 80003f6:	fa06 f902 	lsl.w	r9, r6, r2
 80003fa:	3e01      	subs	r6, #1
 80003fc:	ea49 0808 	orr.w	r8, r9, r8
 8000400:	2e01      	cmp	r6, #1
 8000402:	f8c0 8000 	str.w	r8, [r0]
 8000406:	d90f      	bls.n	8000428 <GPIO_Init+0x74>
 8000408:	68c5      	ldr	r5, [r0, #12]
 800040a:	79ce      	ldrb	r6, [r1, #7]
 800040c:	402c      	ands	r4, r5
 800040e:	60c4      	str	r4, [r0, #12]
 8000410:	68c5      	ldr	r5, [r0, #12]
 8000412:	fa06 f402 	lsl.w	r4, r6, r2
 8000416:	3301      	adds	r3, #1
 8000418:	432c      	orrs	r4, r5
 800041a:	2b10      	cmp	r3, #16
 800041c:	60c4      	str	r4, [r0, #12]
 800041e:	f102 0202 	add.w	r2, r2, #2
 8000422:	d1d6      	bne.n	80003d2 <GPIO_Init+0x1e>
 8000424:	e8bd 83f0 	ldmia.w	sp!, {r4, r5, r6, r7, r8, r9, pc}
 8000428:	f8d0 9008 	ldr.w	r9, [r0, #8]
 800042c:	f891 8005 	ldrb.w	r8, [r1, #5]
 8000430:	798e      	ldrb	r6, [r1, #6]
 8000432:	ea04 0909 	and.w	r9, r4, r9
 8000436:	f8c0 9008 	str.w	r9, [r0, #8]
 800043a:	f8d0 9008 	ldr.w	r9, [r0, #8]
 800043e:	fa08 f802 	lsl.w	r8, r8, r2
 8000442:	ea48 0809 	orr.w	r8, r8, r9
 8000446:	f8c0 8008 	str.w	r8, [r0, #8]
 800044a:	f8d0 8004 	ldr.w	r8, [r0, #4]
 800044e:	ea28 0505 	bic.w	r5, r8, r5
 8000452:	6045      	str	r5, [r0, #4]
 8000454:	f8d0 8004 	ldr.w	r8, [r0, #4]
 8000458:	fa06 f503 	lsl.w	r5, r6, r3
 800045c:	b2ad      	uxth	r5, r5
 800045e:	ea45 0508 	orr.w	r5, r5, r8
 8000462:	6045      	str	r5, [r0, #4]
 8000464:	e7d0      	b.n	8000408 <GPIO_Init+0x54>
 8000466:	bf00      	nop

08000468 <GPIO_StructInit>:
 8000468:	2300      	movs	r3, #0
 800046a:	f64f 72ff 	movw	r2, #65535	; 0xffff
 800046e:	6002      	str	r2, [r0, #0]
 8000470:	7103      	strb	r3, [r0, #4]
 8000472:	7143      	strb	r3, [r0, #5]
 8000474:	7183      	strb	r3, [r0, #6]
 8000476:	71c3      	strb	r3, [r0, #7]
 8000478:	4770      	bx	lr
 800047a:	bf00      	nop

0800047c <GPIO_PinLockConfig>:
 800047c:	b082      	sub	sp, #8
 800047e:	f44f 3380 	mov.w	r3, #65536	; 0x10000
 8000482:	9301      	str	r3, [sp, #4]
 8000484:	9b01      	ldr	r3, [sp, #4]
 8000486:	430b      	orrs	r3, r1
 8000488:	9301      	str	r3, [sp, #4]
 800048a:	9b01      	ldr	r3, [sp, #4]
 800048c:	61c3      	str	r3, [r0, #28]
 800048e:	61c1      	str	r1, [r0, #28]
 8000490:	9b01      	ldr	r3, [sp, #4]
 8000492:	61c3      	str	r3, [r0, #28]
 8000494:	69c3      	ldr	r3, [r0, #28]
 8000496:	9301      	str	r3, [sp, #4]
 8000498:	69c3      	ldr	r3, [r0, #28]
 800049a:	9301      	str	r3, [sp, #4]
 800049c:	b002      	add	sp, #8
 800049e:	4770      	bx	lr

080004a0 <GPIO_ReadInputDataBit>:
 80004a0:	6903      	ldr	r3, [r0, #16]
 80004a2:	4219      	tst	r1, r3
 80004a4:	bf14      	ite	ne
 80004a6:	2001      	movne	r0, #1
 80004a8:	2000      	moveq	r0, #0
 80004aa:	4770      	bx	lr

080004ac <GPIO_ReadInputData>:
 80004ac:	6900      	ldr	r0, [r0, #16]
 80004ae:	b280      	uxth	r0, r0
 80004b0:	4770      	bx	lr
 80004b2:	bf00      	nop

080004b4 <GPIO_ReadOutputDataBit>:
 80004b4:	6943      	ldr	r3, [r0, #20]
 80004b6:	4219      	tst	r1, r3
 80004b8:	bf14      	ite	ne
 80004ba:	2001      	movne	r0, #1
 80004bc:	2000      	moveq	r0, #0
 80004be:	4770      	bx	lr

080004c0 <GPIO_ReadOutputData>:
 80004c0:	6940      	ldr	r0, [r0, #20]
 80004c2:	b280      	uxth	r0, r0
 80004c4:	4770      	bx	lr
 80004c6:	bf00      	nop

080004c8 <GPIO_SetBits>:
 80004c8:	8301      	strh	r1, [r0, #24]
 80004ca:	4770      	bx	lr

080004cc <GPIO_ResetBits>:
 80004cc:	8341      	strh	r1, [r0, #26]
 80004ce:	4770      	bx	lr

080004d0 <GPIO_WriteBit>:
 80004d0:	b90a      	cbnz	r2, 80004d6 <GPIO_WriteBit+0x6>
 80004d2:	8341      	strh	r1, [r0, #26]
 80004d4:	4770      	bx	lr
 80004d6:	8301      	strh	r1, [r0, #24]
 80004d8:	4770      	bx	lr
 80004da:	bf00      	nop

080004dc <GPIO_Write>:
 80004dc:	6141      	str	r1, [r0, #20]
 80004de:	4770      	bx	lr

080004e0 <GPIO_ToggleBits>:
 80004e0:	6943      	ldr	r3, [r0, #20]
 80004e2:	4059      	eors	r1, r3
 80004e4:	6141      	str	r1, [r0, #20]
 80004e6:	4770      	bx	lr

080004e8 <GPIO_PinAFConfig>:
 80004e8:	08cb      	lsrs	r3, r1, #3
 80004ea:	eb00 0083 	add.w	r0, r0, r3, lsl #2
 80004ee:	f001 0107 	and.w	r1, r1, #7
 80004f2:	b410      	push	{r4}
 80004f4:	0089      	lsls	r1, r1, #2
 80004f6:	6a04      	ldr	r4, [r0, #32]
 80004f8:	230f      	movs	r3, #15
 80004fa:	408b      	lsls	r3, r1
 80004fc:	ea24 0303 	bic.w	r3, r4, r3
 8000500:	6203      	str	r3, [r0, #32]
 8000502:	6a03      	ldr	r3, [r0, #32]
 8000504:	f85d 4b04 	ldr.w	r4, [sp], #4
 8000508:	408a      	lsls	r2, r1
 800050a:	4313      	orrs	r3, r2
 800050c:	6203      	str	r3, [r0, #32]
 800050e:	4770      	bx	lr

08000510 <RCC_DeInit>:
 8000510:	4b0f      	ldr	r3, [pc, #60]	; (8000550 <RCC_DeInit+0x40>)
 8000512:	4810      	ldr	r0, [pc, #64]	; (8000554 <RCC_DeInit+0x44>)
 8000514:	681a      	ldr	r2, [r3, #0]
 8000516:	2100      	movs	r1, #0
 8000518:	f042 0201 	orr.w	r2, r2, #1
 800051c:	b430      	push	{r4, r5}
 800051e:	601a      	str	r2, [r3, #0]
 8000520:	6099      	str	r1, [r3, #8]
 8000522:	681a      	ldr	r2, [r3, #0]
 8000524:	4d0c      	ldr	r5, [pc, #48]	; (8000558 <RCC_DeInit+0x48>)
 8000526:	4c0d      	ldr	r4, [pc, #52]	; (800055c <RCC_DeInit+0x4c>)
 8000528:	f022 52a8 	bic.w	r2, r2, #352321536	; 0x15000000
 800052c:	f422 2210 	bic.w	r2, r2, #589824	; 0x90000
 8000530:	601a      	str	r2, [r3, #0]
 8000532:	605d      	str	r5, [r3, #4]
 8000534:	f8c3 4084 	str.w	r4, [r3, #132]	; 0x84
 8000538:	f8c3 0088 	str.w	r0, [r3, #136]	; 0x88
 800053c:	681a      	ldr	r2, [r3, #0]
 800053e:	f422 2280 	bic.w	r2, r2, #262144	; 0x40000
 8000542:	601a      	str	r2, [r3, #0]
 8000544:	bc30      	pop	{r4, r5}
 8000546:	60d9      	str	r1, [r3, #12]
 8000548:	f8c3 108c 	str.w	r1, [r3, #140]	; 0x8c
 800054c:	4770      	bx	lr
 800054e:	bf00      	nop
 8000550:	40023800 	andmi	r3, r2, r0, lsl #16
 8000554:	24003000 	strcs	r3, [r0], #-0
 8000558:	24003010 	strcs	r3, [r0], #-16
 800055c:	20003000 	andcs	r3, r0, r0

08000560 <RCC_HSEConfig>:
 8000560:	4b02      	ldr	r3, [pc, #8]	; (800056c <RCC_HSEConfig+0xc>)
 8000562:	2200      	movs	r2, #0
 8000564:	701a      	strb	r2, [r3, #0]
 8000566:	7018      	strb	r0, [r3, #0]
 8000568:	4770      	bx	lr
 800056a:	bf00      	nop
 800056c:	40023802 	andmi	r3, r2, r2, lsl #16

08000570 <RCC_WaitForHSEStartUp>:
 8000570:	b082      	sub	sp, #8
 8000572:	2300      	movs	r3, #0
 8000574:	4a0a      	ldr	r2, [pc, #40]	; (80005a0 <RCC_WaitForHSEStartUp+0x30>)
 8000576:	9301      	str	r3, [sp, #4]
 8000578:	e002      	b.n	8000580 <RCC_WaitForHSEStartUp+0x10>
 800057a:	f5b3 4fa0 	cmp.w	r3, #20480	; 0x5000
 800057e:	d008      	beq.n	8000592 <RCC_WaitForHSEStartUp+0x22>
 8000580:	6813      	ldr	r3, [r2, #0]
 8000582:	f413 3f00 	tst.w	r3, #131072	; 0x20000
 8000586:	9b01      	ldr	r3, [sp, #4]
 8000588:	f103 0301 	add.w	r3, r3, #1
 800058c:	9301      	str	r3, [sp, #4]
 800058e:	9b01      	ldr	r3, [sp, #4]
 8000590:	d0f3      	beq.n	800057a <RCC_WaitForHSEStartUp+0xa>
 8000592:	4b03      	ldr	r3, [pc, #12]	; (80005a0 <RCC_WaitForHSEStartUp+0x30>)
 8000594:	6818      	ldr	r0, [r3, #0]
 8000596:	f3c0 4040 	ubfx	r0, r0, #17, #1
 800059a:	b002      	add	sp, #8
 800059c:	4770      	bx	lr
 800059e:	bf00      	nop
 80005a0:	40023800 	andmi	r3, r2, r0, lsl #16

080005a4 <RCC_AdjustHSICalibrationValue>:
 80005a4:	4a03      	ldr	r2, [pc, #12]	; (80005b4 <RCC_AdjustHSICalibrationValue+0x10>)
 80005a6:	6813      	ldr	r3, [r2, #0]
 80005a8:	f023 03f8 	bic.w	r3, r3, #248	; 0xf8
 80005ac:	ea43 00c0 	orr.w	r0, r3, r0, lsl #3
 80005b0:	6010      	str	r0, [r2, #0]
 80005b2:	4770      	bx	lr
 80005b4:	40023800 	andmi	r3, r2, r0, lsl #16

080005b8 <RCC_HSICmd>:
 80005b8:	4b01      	ldr	r3, [pc, #4]	; (80005c0 <RCC_HSICmd+0x8>)
 80005ba:	6018      	str	r0, [r3, #0]
 80005bc:	4770      	bx	lr
 80005be:	bf00      	nop
 80005c0:	42470000 	submi	r0, r7, #0

080005c4 <RCC_LSEConfig>:
 80005c4:	4b06      	ldr	r3, [pc, #24]	; (80005e0 <RCC_LSEConfig+0x1c>)
 80005c6:	2200      	movs	r2, #0
 80005c8:	2801      	cmp	r0, #1
 80005ca:	701a      	strb	r2, [r3, #0]
 80005cc:	701a      	strb	r2, [r3, #0]
 80005ce:	d005      	beq.n	80005dc <RCC_LSEConfig+0x18>
 80005d0:	2804      	cmp	r0, #4
 80005d2:	d102      	bne.n	80005da <RCC_LSEConfig+0x16>
 80005d4:	2205      	movs	r2, #5
 80005d6:	701a      	strb	r2, [r3, #0]
 80005d8:	4770      	bx	lr
 80005da:	4770      	bx	lr
 80005dc:	7018      	strb	r0, [r3, #0]
 80005de:	4770      	bx	lr
 80005e0:	40023870 	andmi	r3, r2, r0, ror r8

080005e4 <RCC_LSICmd>:
 80005e4:	4b01      	ldr	r3, [pc, #4]	; (80005ec <RCC_LSICmd+0x8>)
 80005e6:	6018      	str	r0, [r3, #0]
 80005e8:	4770      	bx	lr
 80005ea:	bf00      	nop
 80005ec:	42470e80 	submi	r0, r7, #128, 28	; 0x800

080005f0 <RCC_PLLConfig>:
 80005f0:	b430      	push	{r4, r5}
 80005f2:	9c02      	ldr	r4, [sp, #8]
 80005f4:	4d06      	ldr	r5, [pc, #24]	; (8000610 <RCC_PLLConfig+0x20>)
 80005f6:	ea40 6004 	orr.w	r0, r0, r4, lsl #24
 80005fa:	4301      	orrs	r1, r0
 80005fc:	085b      	lsrs	r3, r3, #1
 80005fe:	3b01      	subs	r3, #1
 8000600:	ea41 1282 	orr.w	r2, r1, r2, lsl #6
 8000604:	ea42 4003 	orr.w	r0, r2, r3, lsl #16
 8000608:	6068      	str	r0, [r5, #4]
 800060a:	bc30      	pop	{r4, r5}
 800060c:	4770      	bx	lr
 800060e:	bf00      	nop
 8000610:	40023800 	andmi	r3, r2, r0, lsl #16

08000614 <RCC_PLLCmd>:
 8000614:	4b01      	ldr	r3, [pc, #4]	; (800061c <RCC_PLLCmd+0x8>)
 8000616:	6018      	str	r0, [r3, #0]
 8000618:	4770      	bx	lr
 800061a:	bf00      	nop
 800061c:	42470060 	submi	r0, r7, #96	; 0x60

08000620 <RCC_PLLI2SConfig>:
 8000620:	0709      	lsls	r1, r1, #28
 8000622:	4b03      	ldr	r3, [pc, #12]	; (8000630 <RCC_PLLI2SConfig+0x10>)
 8000624:	ea41 1080 	orr.w	r0, r1, r0, lsl #6
 8000628:	f8c3 0084 	str.w	r0, [r3, #132]	; 0x84
 800062c:	4770      	bx	lr
 800062e:	bf00      	nop
 8000630:	40023800 	andmi	r3, r2, r0, lsl #16

08000634 <RCC_PLLI2SCmd>:
 8000634:	4b01      	ldr	r3, [pc, #4]	; (800063c <RCC_PLLI2SCmd+0x8>)
 8000636:	6018      	str	r0, [r3, #0]
 8000638:	4770      	bx	lr
 800063a:	bf00      	nop
 800063c:	42470068 	submi	r0, r7, #104	; 0x68

08000640 <RCC_PLLSAIConfig>:
 8000640:	0712      	lsls	r2, r2, #28
 8000642:	ea42 6101 	orr.w	r1, r2, r1, lsl #24
 8000646:	4b03      	ldr	r3, [pc, #12]	; (8000654 <RCC_PLLSAIConfig+0x14>)
 8000648:	ea41 1080 	orr.w	r0, r1, r0, lsl #6
 800064c:	f8c3 0088 	str.w	r0, [r3, #136]	; 0x88
 8000650:	4770      	bx	lr
 8000652:	bf00      	nop
 8000654:	40023800 	andmi	r3, r2, r0, lsl #16

08000658 <RCC_PLLSAICmd>:
 8000658:	4b01      	ldr	r3, [pc, #4]	; (8000660 <RCC_PLLSAICmd+0x8>)
 800065a:	6018      	str	r0, [r3, #0]
 800065c:	4770      	bx	lr
 800065e:	bf00      	nop
 8000660:	42470070 	submi	r0, r7, #112	; 0x70

08000664 <RCC_ClockSecuritySystemCmd>:
 8000664:	4b01      	ldr	r3, [pc, #4]	; (800066c <RCC_ClockSecuritySystemCmd+0x8>)
 8000666:	6018      	str	r0, [r3, #0]
 8000668:	4770      	bx	lr
 800066a:	bf00      	nop
 800066c:	4247004c 	submi	r0, r7, #76	; 0x4c

08000670 <RCC_MCO1Config>:
 8000670:	4a03      	ldr	r2, [pc, #12]	; (8000680 <RCC_MCO1Config+0x10>)
 8000672:	6893      	ldr	r3, [r2, #8]
 8000674:	f023 63ec 	bic.w	r3, r3, #123731968	; 0x7600000
 8000678:	4319      	orrs	r1, r3
 800067a:	4308      	orrs	r0, r1
 800067c:	6090      	str	r0, [r2, #8]
 800067e:	4770      	bx	lr
 8000680:	40023800 	andmi	r3, r2, r0, lsl #16

08000684 <RCC_MCO2Config>:
 8000684:	4a03      	ldr	r2, [pc, #12]	; (8000694 <RCC_MCO2Config+0x10>)
 8000686:	6893      	ldr	r3, [r2, #8]
 8000688:	f023 4378 	bic.w	r3, r3, #4160749568	; 0xf8000000
 800068c:	4319      	orrs	r1, r3
 800068e:	4308      	orrs	r0, r1
 8000690:	6090      	str	r0, [r2, #8]
 8000692:	4770      	bx	lr
 8000694:	40023800 	andmi	r3, r2, r0, lsl #16

08000698 <RCC_SYSCLKConfig>:
 8000698:	4a03      	ldr	r2, [pc, #12]	; (80006a8 <RCC_SYSCLKConfig+0x10>)
 800069a:	6893      	ldr	r3, [r2, #8]
 800069c:	f023 0303 	bic.w	r3, r3, #3
 80006a0:	4318      	orrs	r0, r3
 80006a2:	6090      	str	r0, [r2, #8]
 80006a4:	4770      	bx	lr
 80006a6:	bf00      	nop
 80006a8:	40023800 	andmi	r3, r2, r0, lsl #16

080006ac <RCC_GetSYSCLKSource>:
 80006ac:	4b02      	ldr	r3, [pc, #8]	; (80006b8 <RCC_GetSYSCLKSource+0xc>)
 80006ae:	6898      	ldr	r0, [r3, #8]
 80006b0:	f000 000c 	and.w	r0, r0, #12
 80006b4:	4770      	bx	lr
 80006b6:	bf00      	nop
 80006b8:	40023800 	andmi	r3, r2, r0, lsl #16

080006bc <RCC_HCLKConfig>:
 80006bc:	4a03      	ldr	r2, [pc, #12]	; (80006cc <RCC_HCLKConfig+0x10>)
 80006be:	6893      	ldr	r3, [r2, #8]
 80006c0:	f023 03f0 	bic.w	r3, r3, #240	; 0xf0
 80006c4:	4318      	orrs	r0, r3
 80006c6:	6090      	str	r0, [r2, #8]
 80006c8:	4770      	bx	lr
 80006ca:	bf00      	nop
 80006cc:	40023800 	andmi	r3, r2, r0, lsl #16

080006d0 <RCC_PCLK1Config>:
 80006d0:	4a03      	ldr	r2, [pc, #12]	; (80006e0 <RCC_PCLK1Config+0x10>)
 80006d2:	6893      	ldr	r3, [r2, #8]
 80006d4:	f423 53e0 	bic.w	r3, r3, #7168	; 0x1c00
 80006d8:	4318      	orrs	r0, r3
 80006da:	6090      	str	r0, [r2, #8]
 80006dc:	4770      	bx	lr
 80006de:	bf00      	nop
 80006e0:	40023800 	andmi	r3, r2, r0, lsl #16

080006e4 <RCC_PCLK2Config>:
 80006e4:	4a03      	ldr	r2, [pc, #12]	; (80006f4 <RCC_PCLK2Config+0x10>)
 80006e6:	6893      	ldr	r3, [r2, #8]
 80006e8:	f423 4360 	bic.w	r3, r3, #57344	; 0xe000
 80006ec:	ea43 00c0 	orr.w	r0, r3, r0, lsl #3
 80006f0:	6090      	str	r0, [r2, #8]
 80006f2:	4770      	bx	lr
 80006f4:	40023800 	andmi	r3, r2, r0, lsl #16

080006f8 <RCC_GetClocksFreq>:
 80006f8:	b410      	push	{r4}
 80006fa:	4c21      	ldr	r4, [pc, #132]	; (8000780 <RCC_GetClocksFreq+0x88>)
 80006fc:	68a3      	ldr	r3, [r4, #8]
 80006fe:	f003 030c 	and.w	r3, r3, #12
 8000702:	2b04      	cmp	r3, #4
 8000704:	d01b      	beq.n	800073e <RCC_GetClocksFreq+0x46>
 8000706:	2b08      	cmp	r3, #8
 8000708:	d01c      	beq.n	8000744 <RCC_GetClocksFreq+0x4c>
 800070a:	4b1e      	ldr	r3, [pc, #120]	; (8000784 <RCC_GetClocksFreq+0x8c>)
 800070c:	6003      	str	r3, [r0, #0]
 800070e:	4a1c      	ldr	r2, [pc, #112]	; (8000780 <RCC_GetClocksFreq+0x88>)
 8000710:	491d      	ldr	r1, [pc, #116]	; (8000788 <RCC_GetClocksFreq+0x90>)
 8000712:	6894      	ldr	r4, [r2, #8]
 8000714:	f3c4 1403 	ubfx	r4, r4, #4, #4
 8000718:	5d0c      	ldrb	r4, [r1, r4]
 800071a:	40e3      	lsrs	r3, r4
 800071c:	6043      	str	r3, [r0, #4]
 800071e:	6894      	ldr	r4, [r2, #8]
 8000720:	f3c4 2482 	ubfx	r4, r4, #10, #3
 8000724:	5d0c      	ldrb	r4, [r1, r4]
 8000726:	fa23 f404 	lsr.w	r4, r3, r4
 800072a:	6084      	str	r4, [r0, #8]
 800072c:	6892      	ldr	r2, [r2, #8]
 800072e:	f85d 4b04 	ldr.w	r4, [sp], #4
 8000732:	f3c2 3242 	ubfx	r2, r2, #13, #3
 8000736:	5c8a      	ldrb	r2, [r1, r2]
 8000738:	40d3      	lsrs	r3, r2
 800073a:	60c3      	str	r3, [r0, #12]
 800073c:	4770      	bx	lr
 800073e:	4b13      	ldr	r3, [pc, #76]	; (800078c <RCC_GetClocksFreq+0x94>)
 8000740:	6003      	str	r3, [r0, #0]
 8000742:	e7e4      	b.n	800070e <RCC_GetClocksFreq+0x16>
 8000744:	6863      	ldr	r3, [r4, #4]
 8000746:	6861      	ldr	r1, [r4, #4]
 8000748:	f413 0f80 	tst.w	r3, #4194304	; 0x400000
 800074c:	6863      	ldr	r3, [r4, #4]
 800074e:	bf18      	it	ne
 8000750:	4c0e      	ldrne	r4, [pc, #56]	; (800078c <RCC_GetClocksFreq+0x94>)
 8000752:	f001 023f 	and.w	r2, r1, #63	; 0x3f
 8000756:	bf0c      	ite	eq
 8000758:	490a      	ldreq	r1, [pc, #40]	; (8000784 <RCC_GetClocksFreq+0x8c>)
 800075a:	fbb4 f1f2 	udivne	r1, r4, r2
 800075e:	f3c3 1388 	ubfx	r3, r3, #6, #9
 8000762:	bf08      	it	eq
 8000764:	fbb1 f1f2 	udiveq	r1, r1, r2
 8000768:	fb01 f203 	mul.w	r2, r1, r3
 800076c:	4b04      	ldr	r3, [pc, #16]	; (8000780 <RCC_GetClocksFreq+0x88>)
 800076e:	685b      	ldr	r3, [r3, #4]
 8000770:	f3c3 4301 	ubfx	r3, r3, #16, #2
 8000774:	3301      	adds	r3, #1
 8000776:	005b      	lsls	r3, r3, #1
 8000778:	fbb2 f3f3 	udiv	r3, r2, r3
 800077c:	6003      	str	r3, [r0, #0]
 800077e:	e7c6      	b.n	800070e <RCC_GetClocksFreq+0x16>
 8000780:	40023800 	andmi	r3, r2, r0, lsl #16
 8000784:	00f42400 	rscseq	r2, r4, r0, lsl #8
 8000788:	20000004 	andcs	r0, r0, r4
 800078c:	017d7840 	cmneq	sp, r0, asr #16

08000790 <RCC_RTCCLKConfig>:
 8000790:	f400 7340 	and.w	r3, r0, #768	; 0x300
 8000794:	f5b3 7f40 	cmp.w	r3, #768	; 0x300
 8000798:	d109      	bne.n	80007ae <RCC_RTCCLKConfig+0x1e>
 800079a:	4908      	ldr	r1, [pc, #32]	; (80007bc <RCC_RTCCLKConfig+0x2c>)
 800079c:	688b      	ldr	r3, [r1, #8]
 800079e:	f020 4270 	bic.w	r2, r0, #4026531840	; 0xf0000000
 80007a2:	f423 13f8 	bic.w	r3, r3, #2031616	; 0x1f0000
 80007a6:	f422 7240 	bic.w	r2, r2, #768	; 0x300
 80007aa:	4313      	orrs	r3, r2
 80007ac:	608b      	str	r3, [r1, #8]
 80007ae:	4a03      	ldr	r2, [pc, #12]	; (80007bc <RCC_RTCCLKConfig+0x2c>)
 80007b0:	6f13      	ldr	r3, [r2, #112]	; 0x70
 80007b2:	f3c0 000b 	ubfx	r0, r0, #0, #12
 80007b6:	4318      	orrs	r0, r3
 80007b8:	6710      	str	r0, [r2, #112]	; 0x70
 80007ba:	4770      	bx	lr
 80007bc:	40023800 	andmi	r3, r2, r0, lsl #16

080007c0 <RCC_RTCCLKCmd>:
 80007c0:	4b01      	ldr	r3, [pc, #4]	; (80007c8 <RCC_RTCCLKCmd+0x8>)
 80007c2:	6018      	str	r0, [r3, #0]
 80007c4:	4770      	bx	lr
 80007c6:	bf00      	nop
 80007c8:	42470e3c 	submi	r0, r7, #60, 28	; 0x3c0

080007cc <RCC_BackupResetCmd>:
 80007cc:	4b01      	ldr	r3, [pc, #4]	; (80007d4 <RCC_BackupResetCmd+0x8>)
 80007ce:	6018      	str	r0, [r3, #0]
 80007d0:	4770      	bx	lr
 80007d2:	bf00      	nop
 80007d4:	42470e40 	submi	r0, r7, #64, 28	; 0x400

080007d8 <RCC_I2SCLKConfig>:
 80007d8:	4b01      	ldr	r3, [pc, #4]	; (80007e0 <RCC_I2SCLKConfig+0x8>)
 80007da:	6018      	str	r0, [r3, #0]
 80007dc:	4770      	bx	lr
 80007de:	bf00      	nop
 80007e0:	4247015c 	submi	r0, r7, #92, 2

080007e4 <RCC_SAIBlockACLKConfig>:
 80007e4:	4a04      	ldr	r2, [pc, #16]	; (80007f8 <RCC_SAIBlockACLKConfig+0x14>)
 80007e6:	f8d2 308c 	ldr.w	r3, [r2, #140]	; 0x8c
 80007ea:	f423 1340 	bic.w	r3, r3, #3145728	; 0x300000
 80007ee:	4318      	orrs	r0, r3
 80007f0:	f8c2 008c 	str.w	r0, [r2, #140]	; 0x8c
 80007f4:	4770      	bx	lr
 80007f6:	bf00      	nop
 80007f8:	40023800 	andmi	r3, r2, r0, lsl #16

080007fc <RCC_SAIBlockBCLKConfig>:
 80007fc:	4a04      	ldr	r2, [pc, #16]	; (8000810 <RCC_SAIBlockBCLKConfig+0x14>)
 80007fe:	f8d2 308c 	ldr.w	r3, [r2, #140]	; 0x8c
 8000802:	f423 0340 	bic.w	r3, r3, #12582912	; 0xc00000
 8000806:	4318      	orrs	r0, r3
 8000808:	f8c2 008c 	str.w	r0, [r2, #140]	; 0x8c
 800080c:	4770      	bx	lr
 800080e:	bf00      	nop
 8000810:	40023800 	andmi	r3, r2, r0, lsl #16

08000814 <RCC_SAIPLLI2SClkDivConfig>:
 8000814:	4a04      	ldr	r2, [pc, #16]	; (8000828 <RCC_SAIPLLI2SClkDivConfig+0x14>)
 8000816:	f8d2 308c 	ldr.w	r3, [r2, #140]	; 0x8c
 800081a:	3801      	subs	r0, #1
 800081c:	f023 031f 	bic.w	r3, r3, #31
 8000820:	4303      	orrs	r3, r0
 8000822:	f8c2 308c 	str.w	r3, [r2, #140]	; 0x8c
 8000826:	4770      	bx	lr
 8000828:	40023800 	andmi	r3, r2, r0, lsl #16

0800082c <RCC_SAIPLLSAIClkDivConfig>:
 800082c:	4a05      	ldr	r2, [pc, #20]	; (8000844 <RCC_SAIPLLSAIClkDivConfig+0x18>)
 800082e:	f8d2 308c 	ldr.w	r3, [r2, #140]	; 0x8c
 8000832:	3801      	subs	r0, #1
 8000834:	f423 53f8 	bic.w	r3, r3, #7936	; 0x1f00
 8000838:	ea43 2300 	orr.w	r3, r3, r0, lsl #8
 800083c:	f8c2 308c 	str.w	r3, [r2, #140]	; 0x8c
 8000840:	4770      	bx	lr
 8000842:	bf00      	nop
 8000844:	40023800 	andmi	r3, r2, r0, lsl #16

08000848 <RCC_LTDCCLKDivConfig>:
 8000848:	4a04      	ldr	r2, [pc, #16]	; (800085c <RCC_LTDCCLKDivConfig+0x14>)
 800084a:	f8d2 308c 	ldr.w	r3, [r2, #140]	; 0x8c
 800084e:	f423 3340 	bic.w	r3, r3, #196608	; 0x30000
 8000852:	4318      	orrs	r0, r3
 8000854:	f8c2 008c 	str.w	r0, [r2, #140]	; 0x8c
 8000858:	4770      	bx	lr
 800085a:	bf00      	nop
 800085c:	40023800 	andmi	r3, r2, r0, lsl #16

08000860 <RCC_TIMCLKPresConfig>:
 8000860:	4b01      	ldr	r3, [pc, #4]	; (8000868 <RCC_TIMCLKPresConfig+0x8>)
 8000862:	6018      	str	r0, [r3, #0]
 8000864:	4770      	bx	lr
 8000866:	bf00      	nop
 8000868:	424711e0 	submi	r1, r7, #224, 2	; 0x38

0800086c <RCC_AHB1PeriphClockCmd>:
 800086c:	4a04      	ldr	r2, [pc, #16]	; (8000880 <RCC_AHB1PeriphClockCmd+0x14>)
 800086e:	6b13      	ldr	r3, [r2, #48]	; 0x30
 8000870:	b919      	cbnz	r1, 800087a <RCC_AHB1PeriphClockCmd+0xe>
 8000872:	ea23 0000 	bic.w	r0, r3, r0
 8000876:	6310      	str	r0, [r2, #48]	; 0x30
 8000878:	4770      	bx	lr
 800087a:	4318      	orrs	r0, r3
 800087c:	6310      	str	r0, [r2, #48]	; 0x30
 800087e:	4770      	bx	lr
 8000880:	40023800 	andmi	r3, r2, r0, lsl #16

08000884 <RCC_AHB2PeriphClockCmd>:
 8000884:	4a04      	ldr	r2, [pc, #16]	; (8000898 <RCC_AHB2PeriphClockCmd+0x14>)
 8000886:	6b53      	ldr	r3, [r2, #52]	; 0x34
 8000888:	b919      	cbnz	r1, 8000892 <RCC_AHB2PeriphClockCmd+0xe>
 800088a:	ea23 0000 	bic.w	r0, r3, r0
 800088e:	6350      	str	r0, [r2, #52]	; 0x34
 8000890:	4770      	bx	lr
 8000892:	4318      	orrs	r0, r3
 8000894:	6350      	str	r0, [r2, #52]	; 0x34
 8000896:	4770      	bx	lr
 8000898:	40023800 	andmi	r3, r2, r0, lsl #16

0800089c <RCC_AHB3PeriphClockCmd>:
 800089c:	4a04      	ldr	r2, [pc, #16]	; (80008b0 <RCC_AHB3PeriphClockCmd+0x14>)
 800089e:	6b93      	ldr	r3, [r2, #56]	; 0x38
 80008a0:	b919      	cbnz	r1, 80008aa <RCC_AHB3PeriphClockCmd+0xe>
 80008a2:	ea23 0000 	bic.w	r0, r3, r0
 80008a6:	6390      	str	r0, [r2, #56]	; 0x38
 80008a8:	4770      	bx	lr
 80008aa:	4318      	orrs	r0, r3
 80008ac:	6390      	str	r0, [r2, #56]	; 0x38
 80008ae:	4770      	bx	lr
 80008b0:	40023800 	andmi	r3, r2, r0, lsl #16

080008b4 <RCC_APB1PeriphClockCmd>:
 80008b4:	4a04      	ldr	r2, [pc, #16]	; (80008c8 <RCC_APB1PeriphClockCmd+0x14>)
 80008b6:	6c13      	ldr	r3, [r2, #64]	; 0x40
 80008b8:	b919      	cbnz	r1, 80008c2 <RCC_APB1PeriphClockCmd+0xe>
 80008ba:	ea23 0000 	bic.w	r0, r3, r0
 80008be:	6410      	str	r0, [r2, #64]	; 0x40
 80008c0:	4770      	bx	lr
 80008c2:	4318      	orrs	r0, r3
 80008c4:	6410      	str	r0, [r2, #64]	; 0x40
 80008c6:	4770      	bx	lr
 80008c8:	40023800 	andmi	r3, r2, r0, lsl #16

080008cc <RCC_APB2PeriphClockCmd>:
 80008cc:	4a04      	ldr	r2, [pc, #16]	; (80008e0 <RCC_APB2PeriphClockCmd+0x14>)
 80008ce:	6c53      	ldr	r3, [r2, #68]	; 0x44
 80008d0:	b919      	cbnz	r1, 80008da <RCC_APB2PeriphClockCmd+0xe>
 80008d2:	ea23 0000 	bic.w	r0, r3, r0
 80008d6:	6450      	str	r0, [r2, #68]	; 0x44
 80008d8:	4770      	bx	lr
 80008da:	4318      	orrs	r0, r3
 80008dc:	6450      	str	r0, [r2, #68]	; 0x44
 80008de:	4770      	bx	lr
 80008e0:	40023800 	andmi	r3, r2, r0, lsl #16

080008e4 <RCC_AHB1PeriphResetCmd>:
 80008e4:	4a04      	ldr	r2, [pc, #16]	; (80008f8 <RCC_AHB1PeriphResetCmd+0x14>)
 80008e6:	6913      	ldr	r3, [r2, #16]
 80008e8:	b919      	cbnz	r1, 80008f2 <RCC_AHB1PeriphResetCmd+0xe>
 80008ea:	ea23 0000 	bic.w	r0, r3, r0
 80008ee:	6110      	str	r0, [r2, #16]
 80008f0:	4770      	bx	lr
 80008f2:	4318      	orrs	r0, r3
 80008f4:	6110      	str	r0, [r2, #16]
 80008f6:	4770      	bx	lr
 80008f8:	40023800 	andmi	r3, r2, r0, lsl #16

080008fc <RCC_AHB2PeriphResetCmd>:
 80008fc:	4a04      	ldr	r2, [pc, #16]	; (8000910 <RCC_AHB2PeriphResetCmd+0x14>)
 80008fe:	6953      	ldr	r3, [r2, #20]
 8000900:	b919      	cbnz	r1, 800090a <RCC_AHB2PeriphResetCmd+0xe>
 8000902:	ea23 0000 	bic.w	r0, r3, r0
 8000906:	6150      	str	r0, [r2, #20]
 8000908:	4770      	bx	lr
 800090a:	4318      	orrs	r0, r3
 800090c:	6150      	str	r0, [r2, #20]
 800090e:	4770      	bx	lr
 8000910:	40023800 	andmi	r3, r2, r0, lsl #16

08000914 <RCC_AHB3PeriphResetCmd>:
 8000914:	4a04      	ldr	r2, [pc, #16]	; (8000928 <RCC_AHB3PeriphResetCmd+0x14>)
 8000916:	6993      	ldr	r3, [r2, #24]
 8000918:	b919      	cbnz	r1, 8000922 <RCC_AHB3PeriphResetCmd+0xe>
 800091a:	ea23 0000 	bic.w	r0, r3, r0
 800091e:	6190      	str	r0, [r2, #24]
 8000920:	4770      	bx	lr
 8000922:	4318      	orrs	r0, r3
 8000924:	6190      	str	r0, [r2, #24]
 8000926:	4770      	bx	lr
 8000928:	40023800 	andmi	r3, r2, r0, lsl #16

0800092c <RCC_APB1PeriphResetCmd>:
 800092c:	4a04      	ldr	r2, [pc, #16]	; (8000940 <RCC_APB1PeriphResetCmd+0x14>)
 800092e:	6a13      	ldr	r3, [r2, #32]
 8000930:	b919      	cbnz	r1, 800093a <RCC_APB1PeriphResetCmd+0xe>
 8000932:	ea23 0000 	bic.w	r0, r3, r0
 8000936:	6210      	str	r0, [r2, #32]
 8000938:	4770      	bx	lr
 800093a:	4318      	orrs	r0, r3
 800093c:	6210      	str	r0, [r2, #32]
 800093e:	4770      	bx	lr
 8000940:	40023800 	andmi	r3, r2, r0, lsl #16

08000944 <RCC_APB2PeriphResetCmd>:
 8000944:	4a04      	ldr	r2, [pc, #16]	; (8000958 <RCC_APB2PeriphResetCmd+0x14>)
 8000946:	6a53      	ldr	r3, [r2, #36]	; 0x24
 8000948:	b919      	cbnz	r1, 8000952 <RCC_APB2PeriphResetCmd+0xe>
 800094a:	ea23 0000 	bic.w	r0, r3, r0
 800094e:	6250      	str	r0, [r2, #36]	; 0x24
 8000950:	4770      	bx	lr
 8000952:	4318      	orrs	r0, r3
 8000954:	6250      	str	r0, [r2, #36]	; 0x24
 8000956:	4770      	bx	lr
 8000958:	40023800 	andmi	r3, r2, r0, lsl #16

0800095c <RCC_AHB1PeriphClockLPModeCmd>:
 800095c:	4a04      	ldr	r2, [pc, #16]	; (8000970 <RCC_AHB1PeriphClockLPModeCmd+0x14>)
 800095e:	6d13      	ldr	r3, [r2, #80]	; 0x50
 8000960:	b919      	cbnz	r1, 800096a <RCC_AHB1PeriphClockLPModeCmd+0xe>
 8000962:	ea23 0000 	bic.w	r0, r3, r0
 8000966:	6510      	str	r0, [r2, #80]	; 0x50
 8000968:	4770      	bx	lr
 800096a:	4318      	orrs	r0, r3
 800096c:	6510      	str	r0, [r2, #80]	; 0x50
 800096e:	4770      	bx	lr
 8000970:	40023800 	andmi	r3, r2, r0, lsl #16

08000974 <RCC_AHB2PeriphClockLPModeCmd>:
 8000974:	4a04      	ldr	r2, [pc, #16]	; (8000988 <RCC_AHB2PeriphClockLPModeCmd+0x14>)
 8000976:	6d53      	ldr	r3, [r2, #84]	; 0x54
 8000978:	b919      	cbnz	r1, 8000982 <RCC_AHB2PeriphClockLPModeCmd+0xe>
 800097a:	ea23 0000 	bic.w	r0, r3, r0
 800097e:	6550      	str	r0, [r2, #84]	; 0x54
 8000980:	4770      	bx	lr
 8000982:	4318      	orrs	r0, r3
 8000984:	6550      	str	r0, [r2, #84]	; 0x54
 8000986:	4770      	bx	lr
 8000988:	40023800 	andmi	r3, r2, r0, lsl #16

0800098c <RCC_AHB3PeriphClockLPModeCmd>:
 800098c:	4a04      	ldr	r2, [pc, #16]	; (80009a0 <RCC_AHB3PeriphClockLPModeCmd+0x14>)
 800098e:	6d93      	ldr	r3, [r2, #88]	; 0x58
 8000990:	b919      	cbnz	r1, 800099a <RCC_AHB3PeriphClockLPModeCmd+0xe>
 8000992:	ea23 0000 	bic.w	r0, r3, r0
 8000996:	6590      	str	r0, [r2, #88]	; 0x58
 8000998:	4770      	bx	lr
 800099a:	4318      	orrs	r0, r3
 800099c:	6590      	str	r0, [r2, #88]	; 0x58
 800099e:	4770      	bx	lr
 80009a0:	40023800 	andmi	r3, r2, r0, lsl #16

080009a4 <RCC_APB1PeriphClockLPModeCmd>:
 80009a4:	4a04      	ldr	r2, [pc, #16]	; (80009b8 <RCC_APB1PeriphClockLPModeCmd+0x14>)
 80009a6:	6e13      	ldr	r3, [r2, #96]	; 0x60
 80009a8:	b919      	cbnz	r1, 80009b2 <RCC_APB1PeriphClockLPModeCmd+0xe>
 80009aa:	ea23 0000 	bic.w	r0, r3, r0
 80009ae:	6610      	str	r0, [r2, #96]	; 0x60
 80009b0:	4770      	bx	lr
 80009b2:	4318      	orrs	r0, r3
 80009b4:	6610      	str	r0, [r2, #96]	; 0x60
 80009b6:	4770      	bx	lr
 80009b8:	40023800 	andmi	r3, r2, r0, lsl #16

080009bc <RCC_APB2PeriphClockLPModeCmd>:
 80009bc:	4a04      	ldr	r2, [pc, #16]	; (80009d0 <RCC_APB2PeriphClockLPModeCmd+0x14>)
 80009be:	6e53      	ldr	r3, [r2, #100]	; 0x64
 80009c0:	b919      	cbnz	r1, 80009ca <RCC_APB2PeriphClockLPModeCmd+0xe>
 80009c2:	ea23 0000 	bic.w	r0, r3, r0
 80009c6:	6650      	str	r0, [r2, #100]	; 0x64
 80009c8:	4770      	bx	lr
 80009ca:	4318      	orrs	r0, r3
 80009cc:	6650      	str	r0, [r2, #100]	; 0x64
 80009ce:	4770      	bx	lr
 80009d0:	40023800 	andmi	r3, r2, r0, lsl #16

080009d4 <RCC_LSEModeConfig>:
 80009d4:	4a04      	ldr	r2, [pc, #16]	; (80009e8 <RCC_LSEModeConfig+0x14>)
 80009d6:	6f13      	ldr	r3, [r2, #112]	; 0x70
 80009d8:	2801      	cmp	r0, #1
 80009da:	bf0c      	ite	eq
 80009dc:	f043 0308 	orreq.w	r3, r3, #8
 80009e0:	f023 0308 	bicne.w	r3, r3, #8
 80009e4:	6713      	str	r3, [r2, #112]	; 0x70
 80009e6:	4770      	bx	lr
 80009e8:	40023800 	andmi	r3, r2, r0, lsl #16

080009ec <RCC_ITConfig>:
 80009ec:	4a04      	ldr	r2, [pc, #16]	; (8000a00 <RCC_ITConfig+0x14>)
 80009ee:	7813      	ldrb	r3, [r2, #0]
 80009f0:	b919      	cbnz	r1, 80009fa <RCC_ITConfig+0xe>
 80009f2:	ea23 0000 	bic.w	r0, r3, r0
 80009f6:	7010      	strb	r0, [r2, #0]
 80009f8:	4770      	bx	lr
 80009fa:	4318      	orrs	r0, r3
 80009fc:	7010      	strb	r0, [r2, #0]
 80009fe:	4770      	bx	lr
 8000a00:	4002380d 	andmi	r3, r2, sp, lsl #16

08000a04 <RCC_GetFlagStatus>:
 8000a04:	0943      	lsrs	r3, r0, #5
 8000a06:	2b01      	cmp	r3, #1
 8000a08:	d00b      	beq.n	8000a22 <RCC_GetFlagStatus+0x1e>
 8000a0a:	2b02      	cmp	r3, #2
 8000a0c:	4b09      	ldr	r3, [pc, #36]	; (8000a34 <RCC_GetFlagStatus+0x30>)
 8000a0e:	bf0c      	ite	eq
 8000a10:	6f1a      	ldreq	r2, [r3, #112]	; 0x70
 8000a12:	6f5a      	ldrne	r2, [r3, #116]	; 0x74
 8000a14:	f000 031f 	and.w	r3, r0, #31
 8000a18:	fa22 f003 	lsr.w	r0, r2, r3
 8000a1c:	f000 0001 	and.w	r0, r0, #1
 8000a20:	4770      	bx	lr
 8000a22:	4b04      	ldr	r3, [pc, #16]	; (8000a34 <RCC_GetFlagStatus+0x30>)
 8000a24:	681a      	ldr	r2, [r3, #0]
 8000a26:	f000 031f 	and.w	r3, r0, #31
 8000a2a:	fa22 f003 	lsr.w	r0, r2, r3
 8000a2e:	f000 0001 	and.w	r0, r0, #1
 8000a32:	4770      	bx	lr
 8000a34:	40023800 	andmi	r3, r2, r0, lsl #16

08000a38 <RCC_ClearFlag>:
 8000a38:	4a02      	ldr	r2, [pc, #8]	; (8000a44 <RCC_ClearFlag+0xc>)
 8000a3a:	6f53      	ldr	r3, [r2, #116]	; 0x74
 8000a3c:	f043 7380 	orr.w	r3, r3, #16777216	; 0x1000000
 8000a40:	6753      	str	r3, [r2, #116]	; 0x74
 8000a42:	4770      	bx	lr
 8000a44:	40023800 	andmi	r3, r2, r0, lsl #16

08000a48 <RCC_GetITStatus>:
 8000a48:	4b03      	ldr	r3, [pc, #12]	; (8000a58 <RCC_GetITStatus+0x10>)
 8000a4a:	68db      	ldr	r3, [r3, #12]
 8000a4c:	4218      	tst	r0, r3
 8000a4e:	bf14      	ite	ne
 8000a50:	2001      	movne	r0, #1
 8000a52:	2000      	moveq	r0, #0
 8000a54:	4770      	bx	lr
 8000a56:	bf00      	nop
 8000a58:	40023800 	andmi	r3, r2, r0, lsl #16

08000a5c <RCC_ClearITPendingBit>:
 8000a5c:	4b01      	ldr	r3, [pc, #4]	; (8000a64 <RCC_ClearITPendingBit+0x8>)
 8000a5e:	7018      	strb	r0, [r3, #0]
 8000a60:	4770      	bx	lr
 8000a62:	bf00      	nop
 8000a64:	4002380e 	andmi	r3, r2, lr, lsl #16

08000a68 <SystemInit>:
 8000a68:	4939      	ldr	r1, [pc, #228]	; (8000b50 <SystemInit+0xe8>)
 8000a6a:	4b3a      	ldr	r3, [pc, #232]	; (8000b54 <SystemInit+0xec>)
 8000a6c:	f8d1 2088 	ldr.w	r2, [r1, #136]	; 0x88
 8000a70:	4839      	ldr	r0, [pc, #228]	; (8000b58 <SystemInit+0xf0>)
 8000a72:	f442 0270 	orr.w	r2, r2, #15728640	; 0xf00000
 8000a76:	f8c1 2088 	str.w	r2, [r1, #136]	; 0x88
 8000a7a:	681a      	ldr	r2, [r3, #0]
 8000a7c:	2100      	movs	r1, #0
 8000a7e:	f042 0201 	orr.w	r2, r2, #1
 8000a82:	601a      	str	r2, [r3, #0]
 8000a84:	6099      	str	r1, [r3, #8]
 8000a86:	681a      	ldr	r2, [r3, #0]
 8000a88:	f022 7284 	bic.w	r2, r2, #17301504	; 0x1080000
 8000a8c:	f422 3280 	bic.w	r2, r2, #65536	; 0x10000
 8000a90:	601a      	str	r2, [r3, #0]
 8000a92:	6058      	str	r0, [r3, #4]
 8000a94:	681a      	ldr	r2, [r3, #0]
 8000a96:	b082      	sub	sp, #8
 8000a98:	f422 2280 	bic.w	r2, r2, #262144	; 0x40000
 8000a9c:	601a      	str	r2, [r3, #0]
 8000a9e:	60d9      	str	r1, [r3, #12]
 8000aa0:	9100      	str	r1, [sp, #0]
 8000aa2:	9101      	str	r1, [sp, #4]
 8000aa4:	681a      	ldr	r2, [r3, #0]
 8000aa6:	f442 3280 	orr.w	r2, r2, #65536	; 0x10000
 8000aaa:	601a      	str	r2, [r3, #0]
 8000aac:	461a      	mov	r2, r3
 8000aae:	e003      	b.n	8000ab8 <SystemInit+0x50>
 8000ab0:	9b00      	ldr	r3, [sp, #0]
 8000ab2:	f5b3 4fa0 	cmp.w	r3, #20480	; 0x5000
 8000ab6:	d009      	beq.n	8000acc <SystemInit+0x64>
 8000ab8:	6813      	ldr	r3, [r2, #0]
 8000aba:	f403 3300 	and.w	r3, r3, #131072	; 0x20000
 8000abe:	9301      	str	r3, [sp, #4]
 8000ac0:	9b00      	ldr	r3, [sp, #0]
 8000ac2:	3301      	adds	r3, #1
 8000ac4:	9300      	str	r3, [sp, #0]
 8000ac6:	9b01      	ldr	r3, [sp, #4]
 8000ac8:	2b00      	cmp	r3, #0
 8000aca:	d0f1      	beq.n	8000ab0 <SystemInit+0x48>
 8000acc:	4b21      	ldr	r3, [pc, #132]	; (8000b54 <SystemInit+0xec>)
 8000ace:	681b      	ldr	r3, [r3, #0]
 8000ad0:	f413 3300 	ands.w	r3, r3, #131072	; 0x20000
 8000ad4:	bf18      	it	ne
 8000ad6:	2301      	movne	r3, #1
 8000ad8:	9301      	str	r3, [sp, #4]
 8000ada:	9b01      	ldr	r3, [sp, #4]
 8000adc:	2b01      	cmp	r3, #1
 8000ade:	d005      	beq.n	8000aec <SystemInit+0x84>
 8000ae0:	4b1b      	ldr	r3, [pc, #108]	; (8000b50 <SystemInit+0xe8>)
 8000ae2:	f04f 6200 	mov.w	r2, #134217728	; 0x8000000
 8000ae6:	609a      	str	r2, [r3, #8]
 8000ae8:	b002      	add	sp, #8
 8000aea:	4770      	bx	lr
 8000aec:	4b19      	ldr	r3, [pc, #100]	; (8000b54 <SystemInit+0xec>)
 8000aee:	491b      	ldr	r1, [pc, #108]	; (8000b5c <SystemInit+0xf4>)
 8000af0:	6c1a      	ldr	r2, [r3, #64]	; 0x40
 8000af2:	481b      	ldr	r0, [pc, #108]	; (8000b60 <SystemInit+0xf8>)
 8000af4:	f042 5280 	orr.w	r2, r2, #268435456	; 0x10000000
 8000af8:	641a      	str	r2, [r3, #64]	; 0x40
 8000afa:	680a      	ldr	r2, [r1, #0]
 8000afc:	f442 4240 	orr.w	r2, r2, #49152	; 0xc000
 8000b00:	600a      	str	r2, [r1, #0]
 8000b02:	689a      	ldr	r2, [r3, #8]
 8000b04:	609a      	str	r2, [r3, #8]
 8000b06:	689a      	ldr	r2, [r3, #8]
 8000b08:	f442 4200 	orr.w	r2, r2, #32768	; 0x8000
 8000b0c:	609a      	str	r2, [r3, #8]
 8000b0e:	689a      	ldr	r2, [r3, #8]
 8000b10:	f442 52a0 	orr.w	r2, r2, #5120	; 0x1400
 8000b14:	609a      	str	r2, [r3, #8]
 8000b16:	6058      	str	r0, [r3, #4]
 8000b18:	681a      	ldr	r2, [r3, #0]
 8000b1a:	f042 7280 	orr.w	r2, r2, #16777216	; 0x1000000
 8000b1e:	601a      	str	r2, [r3, #0]
 8000b20:	461a      	mov	r2, r3
 8000b22:	6811      	ldr	r1, [r2, #0]
 8000b24:	4b0b      	ldr	r3, [pc, #44]	; (8000b54 <SystemInit+0xec>)
 8000b26:	0189      	lsls	r1, r1, #6
 8000b28:	d5fb      	bpl.n	8000b22 <SystemInit+0xba>
 8000b2a:	4a0e      	ldr	r2, [pc, #56]	; (8000b64 <SystemInit+0xfc>)
 8000b2c:	f240 7105 	movw	r1, #1797	; 0x705
 8000b30:	6011      	str	r1, [r2, #0]
 8000b32:	689a      	ldr	r2, [r3, #8]
 8000b34:	f022 0203 	bic.w	r2, r2, #3
 8000b38:	609a      	str	r2, [r3, #8]
 8000b3a:	689a      	ldr	r2, [r3, #8]
 8000b3c:	f042 0202 	orr.w	r2, r2, #2
 8000b40:	609a      	str	r2, [r3, #8]
 8000b42:	461a      	mov	r2, r3
 8000b44:	6893      	ldr	r3, [r2, #8]
 8000b46:	f003 030c 	and.w	r3, r3, #12
 8000b4a:	2b08      	cmp	r3, #8
 8000b4c:	d1fa      	bne.n	8000b44 <SystemInit+0xdc>
 8000b4e:	e7c7      	b.n	8000ae0 <SystemInit+0x78>
 8000b50:	e000ed00 	and	lr, r0, r0, lsl #26
 8000b54:	40023800 	andmi	r3, r2, r0, lsl #16
 8000b58:	24003010 	strcs	r3, [r0], #-16
 8000b5c:	40007000 	andmi	r7, r0, r0
 8000b60:	07405419 	smlaldeq	r5, r0, r9, r4
 8000b64:	40023c00 	andmi	r3, r2, r0, lsl #24

08000b68 <SystemCoreClockUpdate>:
 8000b68:	4818      	ldr	r0, [pc, #96]	; (8000bcc <SystemCoreClockUpdate+0x64>)
 8000b6a:	6883      	ldr	r3, [r0, #8]
 8000b6c:	f003 030c 	and.w	r3, r3, #12
 8000b70:	2b04      	cmp	r3, #4
 8000b72:	d028      	beq.n	8000bc6 <SystemCoreClockUpdate+0x5e>
 8000b74:	2b08      	cmp	r3, #8
 8000b76:	d009      	beq.n	8000b8c <SystemCoreClockUpdate+0x24>
 8000b78:	4b15      	ldr	r3, [pc, #84]	; (8000bd0 <SystemCoreClockUpdate+0x68>)
 8000b7a:	4a14      	ldr	r2, [pc, #80]	; (8000bcc <SystemCoreClockUpdate+0x64>)
 8000b7c:	4915      	ldr	r1, [pc, #84]	; (8000bd4 <SystemCoreClockUpdate+0x6c>)
 8000b7e:	6892      	ldr	r2, [r2, #8]
 8000b80:	f3c2 1203 	ubfx	r2, r2, #4, #4
 8000b84:	5c8a      	ldrb	r2, [r1, r2]
 8000b86:	40d3      	lsrs	r3, r2
 8000b88:	610b      	str	r3, [r1, #16]
 8000b8a:	4770      	bx	lr
 8000b8c:	6843      	ldr	r3, [r0, #4]
 8000b8e:	6841      	ldr	r1, [r0, #4]
 8000b90:	f413 0f80 	tst.w	r3, #4194304	; 0x400000
 8000b94:	6843      	ldr	r3, [r0, #4]
 8000b96:	bf18      	it	ne
 8000b98:	480f      	ldrne	r0, [pc, #60]	; (8000bd8 <SystemCoreClockUpdate+0x70>)
 8000b9a:	f001 023f 	and.w	r2, r1, #63	; 0x3f
 8000b9e:	bf0c      	ite	eq
 8000ba0:	490b      	ldreq	r1, [pc, #44]	; (8000bd0 <SystemCoreClockUpdate+0x68>)
 8000ba2:	fbb0 f1f2 	udivne	r1, r0, r2
 8000ba6:	f3c3 1388 	ubfx	r3, r3, #6, #9
 8000baa:	bf08      	it	eq
 8000bac:	fbb1 f1f2 	udiveq	r1, r1, r2
 8000bb0:	fb01 f203 	mul.w	r2, r1, r3
 8000bb4:	4b05      	ldr	r3, [pc, #20]	; (8000bcc <SystemCoreClockUpdate+0x64>)
 8000bb6:	685b      	ldr	r3, [r3, #4]
 8000bb8:	f3c3 4301 	ubfx	r3, r3, #16, #2
 8000bbc:	3301      	adds	r3, #1
 8000bbe:	005b      	lsls	r3, r3, #1
 8000bc0:	fbb2 f3f3 	udiv	r3, r2, r3
 8000bc4:	e7d9      	b.n	8000b7a <SystemCoreClockUpdate+0x12>
 8000bc6:	4b04      	ldr	r3, [pc, #16]	; (8000bd8 <SystemCoreClockUpdate+0x70>)
 8000bc8:	e7d7      	b.n	8000b7a <SystemCoreClockUpdate+0x12>
 8000bca:	bf00      	nop
 8000bcc:	40023800 	andmi	r3, r2, r0, lsl #16
 8000bd0:	00f42400 	rscseq	r2, r4, r0, lsl #8
 8000bd4:	20000014 	andcs	r0, r0, r4, lsl r0
 8000bd8:	017d7840 	cmneq	sp, r0, asr #16
 8000bdc:	08000fdc 	stmdaeq	r0, {r2, r3, r4, r6, r7, r8, r9, sl, fp}
 8000be0:	20000000 	andcs	r0, r0, r0
 8000be4:	20000454 	andcs	r0, r0, r4, asr r4
 8000be8:	20000458 	andcs	r0, r0, r8, asr r4
 8000bec:	20000474 	andcs	r0, r0, r4, ror r4

08000bf0 <main>:
 8000bf0:	b570      	push	{r4, r5, r6, lr}
 8000bf2:	2008      	movs	r0, #8
 8000bf4:	b084      	sub	sp, #16
 8000bf6:	2101      	movs	r1, #1
 8000bf8:	f7ff fe38 	bl	800086c <RCC_AHB1PeriphClockCmd>
 8000bfc:	2500      	movs	r5, #0
 8000bfe:	2401      	movs	r4, #1
 8000c00:	f44f 4380 	mov.w	r3, #16384	; 0x4000
 8000c04:	a902      	add	r1, sp, #8
 8000c06:	2603      	movs	r6, #3
 8000c08:	481c      	ldr	r0, [pc, #112]	; (8000c7c <main+0x8c>)
 8000c0a:	9302      	str	r3, [sp, #8]
 8000c0c:	f88d 400c 	strb.w	r4, [sp, #12]
 8000c10:	f88d 500e 	strb.w	r5, [sp, #14]
 8000c14:	f88d 500f 	strb.w	r5, [sp, #15]
 8000c18:	f88d 600d 	strb.w	r6, [sp, #13]
 8000c1c:	f7ff fbca 	bl	80003b4 <GPIO_Init>
 8000c20:	4620      	mov	r0, r4
 8000c22:	4621      	mov	r1, r4
 8000c24:	f7ff fe22 	bl	800086c <RCC_AHB1PeriphClockCmd>
 8000c28:	2302      	movs	r3, #2
 8000c2a:	a902      	add	r1, sp, #8
 8000c2c:	4814      	ldr	r0, [pc, #80]	; (8000c80 <main+0x90>)
 8000c2e:	f88d 600d 	strb.w	r6, [sp, #13]
 8000c32:	9402      	str	r4, [sp, #8]
 8000c34:	f88d 500c 	strb.w	r5, [sp, #12]
 8000c38:	f88d 500e 	strb.w	r5, [sp, #14]
 8000c3c:	f88d 300f 	strb.w	r3, [sp, #15]
 8000c40:	f7ff fbb8 	bl	80003b4 <GPIO_Init>
 8000c44:	f88d 5007 	strb.w	r5, [sp, #7]
 8000c48:	480d      	ldr	r0, [pc, #52]	; (8000c80 <main+0x90>)
 8000c4a:	2101      	movs	r1, #1
 8000c4c:	f7ff fc28 	bl	80004a0 <GPIO_ReadInputDataBit>
 8000c50:	b180      	cbz	r0, 8000c74 <main+0x84>
 8000c52:	f89d 3007 	ldrb.w	r3, [sp, #7]
 8000c56:	2b00      	cmp	r3, #0
 8000c58:	d1f6      	bne.n	8000c48 <main+0x58>
 8000c5a:	4808      	ldr	r0, [pc, #32]	; (8000c7c <main+0x8c>)
 8000c5c:	f88d 4007 	strb.w	r4, [sp, #7]
 8000c60:	f44f 4180 	mov.w	r1, #16384	; 0x4000
 8000c64:	f7ff fc3c 	bl	80004e0 <GPIO_ToggleBits>
 8000c68:	4805      	ldr	r0, [pc, #20]	; (8000c80 <main+0x90>)
 8000c6a:	2101      	movs	r1, #1
 8000c6c:	f7ff fc18 	bl	80004a0 <GPIO_ReadInputDataBit>
 8000c70:	2800      	cmp	r0, #0
 8000c72:	d1ee      	bne.n	8000c52 <main+0x62>
 8000c74:	f88d 0007 	strb.w	r0, [sp, #7]
 8000c78:	e7e6      	b.n	8000c48 <main+0x58>
 8000c7a:	bf00      	nop
 8000c7c:	40020c00 	andmi	r0, r2, r0, lsl #24
 8000c80:	40020000 	andmi	r0, r2, r0

08000c84 <Reset_Handler>:
 8000c84:	2100      	movs	r1, #0
 8000c86:	e003      	b.n	8000c90 <LoopCopyDataInit>

08000c88 <CopyDataInit>:
 8000c88:	4b0b      	ldr	r3, [pc, #44]	; (8000cb8 <LoopFillZerobss+0x14>)
 8000c8a:	585b      	ldr	r3, [r3, r1]
 8000c8c:	5043      	str	r3, [r0, r1]
 8000c8e:	3104      	adds	r1, #4

08000c90 <LoopCopyDataInit>:
 8000c90:	480a      	ldr	r0, [pc, #40]	; (8000cbc <LoopFillZerobss+0x18>)
 8000c92:	4b0b      	ldr	r3, [pc, #44]	; (8000cc0 <LoopFillZerobss+0x1c>)
 8000c94:	1842      	adds	r2, r0, r1
 8000c96:	429a      	cmp	r2, r3
 8000c98:	d3f6      	bcc.n	8000c88 <CopyDataInit>
 8000c9a:	4a0a      	ldr	r2, [pc, #40]	; (8000cc4 <LoopFillZerobss+0x20>)
 8000c9c:	e002      	b.n	8000ca4 <LoopFillZerobss>

08000c9e <FillZerobss>:
 8000c9e:	2300      	movs	r3, #0
 8000ca0:	f842 3b04 	str.w	r3, [r2], #4

08000ca4 <LoopFillZerobss>:
 8000ca4:	4b08      	ldr	r3, [pc, #32]	; (8000cc8 <LoopFillZerobss+0x24>)
 8000ca6:	429a      	cmp	r2, r3
 8000ca8:	d3f9      	bcc.n	8000c9e <FillZerobss>
 8000caa:	f7ff fedd 	bl	8000a68 <SystemInit>
 8000cae:	f000 f81f 	bl	8000cf0 <__libc_init_array>
 8000cb2:	f7ff ff9d 	bl	8000bf0 <main>
 8000cb6:	4770      	bx	lr
 8000cb8:	08000fdc 	stmdaeq	r0, {r2, r3, r4, r6, r7, r8, r9, sl, fp}
 8000cbc:	20000000 	andcs	r0, r0, r0
 8000cc0:	20000454 	andcs	r0, r0, r4, asr r4
 8000cc4:	20000458 	andcs	r0, r0, r8, asr r4
 8000cc8:	20000474 	andcs	r0, r0, r4, ror r4

08000ccc <ADC_IRQHandler>:
 8000ccc:	e7fe      	b.n	8000ccc <ADC_IRQHandler>
	...

08000cd0 <exit>:
 8000cd0:	b508      	push	{r3, lr}
 8000cd2:	2100      	movs	r1, #0
 8000cd4:	4604      	mov	r4, r0
 8000cd6:	f000 f88b 	bl	8000df0 <__call_exitprocs>
 8000cda:	4b04      	ldr	r3, [pc, #16]	; (8000cec <exit+0x1c>)
 8000cdc:	6818      	ldr	r0, [r3, #0]
 8000cde:	6bc3      	ldr	r3, [r0, #60]	; 0x3c
 8000ce0:	b103      	cbz	r3, 8000ce4 <exit+0x14>
 8000ce2:	4798      	blx	r3
 8000ce4:	4620      	mov	r0, r4
 8000ce6:	f000 f95b 	bl	8000fa0 <_exit>
 8000cea:	bf00      	nop
 8000cec:	08000fc4 	stmdaeq	r0, {r2, r6, r7, r8, r9, sl, fp}

08000cf0 <__libc_init_array>:
 8000cf0:	b570      	push	{r4, r5, r6, lr}
 8000cf2:	4e0f      	ldr	r6, [pc, #60]	; (8000d30 <__libc_init_array+0x40>)
 8000cf4:	4d0f      	ldr	r5, [pc, #60]	; (8000d34 <__libc_init_array+0x44>)
 8000cf6:	1b76      	subs	r6, r6, r5
 8000cf8:	10b6      	asrs	r6, r6, #2
 8000cfa:	bf18      	it	ne
 8000cfc:	2400      	movne	r4, #0
 8000cfe:	d005      	beq.n	8000d0c <__libc_init_array+0x1c>
 8000d00:	3401      	adds	r4, #1
 8000d02:	f855 3b04 	ldr.w	r3, [r5], #4
 8000d06:	4798      	blx	r3
 8000d08:	42a6      	cmp	r6, r4
 8000d0a:	d1f9      	bne.n	8000d00 <__libc_init_array+0x10>
 8000d0c:	4e0a      	ldr	r6, [pc, #40]	; (8000d38 <__libc_init_array+0x48>)
 8000d0e:	4d0b      	ldr	r5, [pc, #44]	; (8000d3c <__libc_init_array+0x4c>)
 8000d10:	1b76      	subs	r6, r6, r5
 8000d12:	f000 f949 	bl	8000fa8 <_init>
 8000d16:	10b6      	asrs	r6, r6, #2
 8000d18:	bf18      	it	ne
 8000d1a:	2400      	movne	r4, #0
 8000d1c:	d006      	beq.n	8000d2c <__libc_init_array+0x3c>
 8000d1e:	3401      	adds	r4, #1
 8000d20:	f855 3b04 	ldr.w	r3, [r5], #4
 8000d24:	4798      	blx	r3
 8000d26:	42a6      	cmp	r6, r4
 8000d28:	d1f9      	bne.n	8000d1e <__libc_init_array+0x2e>
 8000d2a:	bd70      	pop	{r4, r5, r6, pc}
 8000d2c:	bd70      	pop	{r4, r5, r6, pc}
 8000d2e:	bf00      	nop
 8000d30:	08000fd0 	stmdaeq	r0, {r4, r6, r7, r8, r9, sl, fp}
 8000d34:	08000fd0 	stmdaeq	r0, {r4, r6, r7, r8, r9, sl, fp}
 8000d38:	08000fd8 	stmdaeq	r0, {r3, r4, r6, r7, r8, r9, sl, fp}
 8000d3c:	08000fd0 	stmdaeq	r0, {r4, r6, r7, r8, r9, sl, fp}

08000d40 <memset>:
 8000d40:	b470      	push	{r4, r5, r6}
 8000d42:	0784      	lsls	r4, r0, #30
 8000d44:	d046      	beq.n	8000dd4 <memset+0x94>
 8000d46:	1e54      	subs	r4, r2, #1
 8000d48:	2a00      	cmp	r2, #0
 8000d4a:	d041      	beq.n	8000dd0 <memset+0x90>
 8000d4c:	b2cd      	uxtb	r5, r1
 8000d4e:	4603      	mov	r3, r0
 8000d50:	e002      	b.n	8000d58 <memset+0x18>
 8000d52:	1e62      	subs	r2, r4, #1
 8000d54:	b3e4      	cbz	r4, 8000dd0 <memset+0x90>
 8000d56:	4614      	mov	r4, r2
 8000d58:	f803 5b01 	strb.w	r5, [r3], #1
 8000d5c:	079a      	lsls	r2, r3, #30
 8000d5e:	d1f8      	bne.n	8000d52 <memset+0x12>
 8000d60:	2c03      	cmp	r4, #3
 8000d62:	d92e      	bls.n	8000dc2 <memset+0x82>
 8000d64:	b2cd      	uxtb	r5, r1
 8000d66:	ea45 2505 	orr.w	r5, r5, r5, lsl #8
 8000d6a:	2c0f      	cmp	r4, #15
 8000d6c:	ea45 4505 	orr.w	r5, r5, r5, lsl #16
 8000d70:	d919      	bls.n	8000da6 <memset+0x66>
 8000d72:	f103 0210 	add.w	r2, r3, #16
 8000d76:	4626      	mov	r6, r4
 8000d78:	3e10      	subs	r6, #16
 8000d7a:	2e0f      	cmp	r6, #15
 8000d7c:	f842 5c10 	str.w	r5, [r2, #-16]
 8000d80:	f842 5c0c 	str.w	r5, [r2, #-12]
 8000d84:	f842 5c08 	str.w	r5, [r2, #-8]
 8000d88:	f842 5c04 	str.w	r5, [r2, #-4]
 8000d8c:	f102 0210 	add.w	r2, r2, #16
 8000d90:	d8f2      	bhi.n	8000d78 <memset+0x38>
 8000d92:	f1a4 0210 	sub.w	r2, r4, #16
 8000d96:	f022 020f 	bic.w	r2, r2, #15
 8000d9a:	f004 040f 	and.w	r4, r4, #15
 8000d9e:	3210      	adds	r2, #16
 8000da0:	2c03      	cmp	r4, #3
 8000da2:	4413      	add	r3, r2
 8000da4:	d90d      	bls.n	8000dc2 <memset+0x82>
 8000da6:	461e      	mov	r6, r3
 8000da8:	4622      	mov	r2, r4
 8000daa:	3a04      	subs	r2, #4
 8000dac:	2a03      	cmp	r2, #3
 8000dae:	f846 5b04 	str.w	r5, [r6], #4
 8000db2:	d8fa      	bhi.n	8000daa <memset+0x6a>
 8000db4:	1f22      	subs	r2, r4, #4
 8000db6:	f022 0203 	bic.w	r2, r2, #3
 8000dba:	3204      	adds	r2, #4
 8000dbc:	4413      	add	r3, r2
 8000dbe:	f004 0403 	and.w	r4, r4, #3
 8000dc2:	b12c      	cbz	r4, 8000dd0 <memset+0x90>
 8000dc4:	b2c9      	uxtb	r1, r1
 8000dc6:	441c      	add	r4, r3
 8000dc8:	f803 1b01 	strb.w	r1, [r3], #1
 8000dcc:	42a3      	cmp	r3, r4
 8000dce:	d1fb      	bne.n	8000dc8 <memset+0x88>
 8000dd0:	bc70      	pop	{r4, r5, r6}
 8000dd2:	4770      	bx	lr
 8000dd4:	4614      	mov	r4, r2
 8000dd6:	4603      	mov	r3, r0
 8000dd8:	e7c2      	b.n	8000d60 <memset+0x20>
 8000dda:	bf00      	nop

08000ddc <register_fini>:
 8000ddc:	4b02      	ldr	r3, [pc, #8]	; (8000de8 <register_fini+0xc>)
 8000dde:	b113      	cbz	r3, 8000de6 <register_fini+0xa>
 8000de0:	4802      	ldr	r0, [pc, #8]	; (8000dec <register_fini+0x10>)
 8000de2:	f000 b86f 	b.w	8000ec4 <atexit>
 8000de6:	4770      	bx	lr
 8000de8:	00000000 	andeq	r0, r0, r0
 8000dec:	08000ed1 	stmdaeq	r0, {r0, r4, r6, r7, r9, sl, fp}

08000df0 <__call_exitprocs>:
 8000df0:	e92d 4ff0 	stmdb	sp!, {r4, r5, r6, r7, r8, r9, sl, fp, lr}
 8000df4:	4b31      	ldr	r3, [pc, #196]	; (8000ebc <__call_exitprocs+0xcc>)
 8000df6:	b083      	sub	sp, #12
 8000df8:	681b      	ldr	r3, [r3, #0]
 8000dfa:	9300      	str	r3, [sp, #0]
 8000dfc:	f503 73a4 	add.w	r3, r3, #328	; 0x148
 8000e00:	4681      	mov	r9, r0
 8000e02:	460e      	mov	r6, r1
 8000e04:	9301      	str	r3, [sp, #4]
 8000e06:	9b00      	ldr	r3, [sp, #0]
 8000e08:	f8d3 7148 	ldr.w	r7, [r3, #328]	; 0x148
 8000e0c:	b327      	cbz	r7, 8000e58 <__call_exitprocs+0x68>
 8000e0e:	f8dd a004 	ldr.w	sl, [sp, #4]
 8000e12:	687c      	ldr	r4, [r7, #4]
 8000e14:	1e65      	subs	r5, r4, #1
 8000e16:	d40e      	bmi.n	8000e36 <__call_exitprocs+0x46>
 8000e18:	3401      	adds	r4, #1
 8000e1a:	eb07 0484 	add.w	r4, r7, r4, lsl #2
 8000e1e:	f04f 0800 	mov.w	r8, #0
 8000e22:	b1e6      	cbz	r6, 8000e5e <__call_exitprocs+0x6e>
 8000e24:	f8d4 3100 	ldr.w	r3, [r4, #256]	; 0x100
 8000e28:	42b3      	cmp	r3, r6
 8000e2a:	d018      	beq.n	8000e5e <__call_exitprocs+0x6e>
 8000e2c:	3d01      	subs	r5, #1
 8000e2e:	1c6b      	adds	r3, r5, #1
 8000e30:	f1a4 0404 	sub.w	r4, r4, #4
 8000e34:	d1f5      	bne.n	8000e22 <__call_exitprocs+0x32>
 8000e36:	4b22      	ldr	r3, [pc, #136]	; (8000ec0 <__call_exitprocs+0xd0>)
 8000e38:	b173      	cbz	r3, 8000e58 <__call_exitprocs+0x68>
 8000e3a:	687b      	ldr	r3, [r7, #4]
 8000e3c:	2b00      	cmp	r3, #0
 8000e3e:	d136      	bne.n	8000eae <__call_exitprocs+0xbe>
 8000e40:	683b      	ldr	r3, [r7, #0]
 8000e42:	2b00      	cmp	r3, #0
 8000e44:	d034      	beq.n	8000eb0 <__call_exitprocs+0xc0>
 8000e46:	4638      	mov	r0, r7
 8000e48:	f8ca 3000 	str.w	r3, [sl]
 8000e4c:	f3af 8000 	nop.w
 8000e50:	f8da 7000 	ldr.w	r7, [sl]
 8000e54:	2f00      	cmp	r7, #0
 8000e56:	d1dc      	bne.n	8000e12 <__call_exitprocs+0x22>
 8000e58:	b003      	add	sp, #12
 8000e5a:	e8bd 8ff0 	ldmia.w	sp!, {r4, r5, r6, r7, r8, r9, sl, fp, pc}
 8000e5e:	687b      	ldr	r3, [r7, #4]
 8000e60:	6822      	ldr	r2, [r4, #0]
 8000e62:	3b01      	subs	r3, #1
 8000e64:	42ab      	cmp	r3, r5
 8000e66:	bf0c      	ite	eq
 8000e68:	607d      	streq	r5, [r7, #4]
 8000e6a:	f8c4 8000 	strne.w	r8, [r4]
 8000e6e:	2a00      	cmp	r2, #0
 8000e70:	d0dc      	beq.n	8000e2c <__call_exitprocs+0x3c>
 8000e72:	f8d7 3188 	ldr.w	r3, [r7, #392]	; 0x188
 8000e76:	f8d7 b004 	ldr.w	fp, [r7, #4]
 8000e7a:	2101      	movs	r1, #1
 8000e7c:	40a9      	lsls	r1, r5
 8000e7e:	4219      	tst	r1, r3
 8000e80:	d108      	bne.n	8000e94 <__call_exitprocs+0xa4>
 8000e82:	4790      	blx	r2
 8000e84:	687b      	ldr	r3, [r7, #4]
 8000e86:	455b      	cmp	r3, fp
 8000e88:	d1bd      	bne.n	8000e06 <__call_exitprocs+0x16>
 8000e8a:	f8da 3000 	ldr.w	r3, [sl]
 8000e8e:	42bb      	cmp	r3, r7
 8000e90:	d0cc      	beq.n	8000e2c <__call_exitprocs+0x3c>
 8000e92:	e7b8      	b.n	8000e06 <__call_exitprocs+0x16>
 8000e94:	f8d7 318c 	ldr.w	r3, [r7, #396]	; 0x18c
 8000e98:	4219      	tst	r1, r3
 8000e9a:	d104      	bne.n	8000ea6 <__call_exitprocs+0xb6>
 8000e9c:	4648      	mov	r0, r9
 8000e9e:	f8d4 1080 	ldr.w	r1, [r4, #128]	; 0x80
 8000ea2:	4790      	blx	r2
 8000ea4:	e7ee      	b.n	8000e84 <__call_exitprocs+0x94>
 8000ea6:	f8d4 0080 	ldr.w	r0, [r4, #128]	; 0x80
 8000eaa:	4790      	blx	r2
 8000eac:	e7ea      	b.n	8000e84 <__call_exitprocs+0x94>
 8000eae:	683b      	ldr	r3, [r7, #0]
 8000eb0:	46ba      	mov	sl, r7
 8000eb2:	461f      	mov	r7, r3
 8000eb4:	2f00      	cmp	r7, #0
 8000eb6:	d1ac      	bne.n	8000e12 <__call_exitprocs+0x22>
 8000eb8:	e7ce      	b.n	8000e58 <__call_exitprocs+0x68>
 8000eba:	bf00      	nop
 8000ebc:	08000fc4 	stmdaeq	r0, {r2, r6, r7, r8, r9, sl, fp}
 8000ec0:	00000000 	andeq	r0, r0, r0

08000ec4 <atexit>:
 8000ec4:	4601      	mov	r1, r0
 8000ec6:	2000      	movs	r0, #0
 8000ec8:	4602      	mov	r2, r0
 8000eca:	4603      	mov	r3, r0
 8000ecc:	f000 b816 	b.w	8000efc <__register_exitproc>

08000ed0 <__libc_fini_array>:
 8000ed0:	b538      	push	{r3, r4, r5, lr}
 8000ed2:	4b08      	ldr	r3, [pc, #32]	; (8000ef4 <__libc_fini_array+0x24>)
 8000ed4:	4d08      	ldr	r5, [pc, #32]	; (8000ef8 <__libc_fini_array+0x28>)
 8000ed6:	1aed      	subs	r5, r5, r3
 8000ed8:	10ac      	asrs	r4, r5, #2
 8000eda:	bf18      	it	ne
 8000edc:	18ed      	addne	r5, r5, r3
 8000ede:	d005      	beq.n	8000eec <__libc_fini_array+0x1c>
 8000ee0:	3c01      	subs	r4, #1
 8000ee2:	f855 3d04 	ldr.w	r3, [r5, #-4]!
 8000ee6:	4798      	blx	r3
 8000ee8:	2c00      	cmp	r4, #0
 8000eea:	d1f9      	bne.n	8000ee0 <__libc_fini_array+0x10>
 8000eec:	e8bd 4038 	ldmia.w	sp!, {r3, r4, r5, lr}
 8000ef0:	f000 b860 	b.w	8000fb4 <_fini>
 8000ef4:	08000fd8 	stmdaeq	r0, {r3, r4, r6, r7, r8, r9, sl, fp}
 8000ef8:	08000fdc 	stmdaeq	r0, {r2, r3, r4, r6, r7, r8, r9, sl, fp}

08000efc <__register_exitproc>:
 8000efc:	e92d 47f0 	stmdb	sp!, {r4, r5, r6, r7, r8, r9, sl, lr}
 8000f00:	4c25      	ldr	r4, [pc, #148]	; (8000f98 <__register_exitproc+0x9c>)
 8000f02:	6825      	ldr	r5, [r4, #0]
 8000f04:	f8d5 4148 	ldr.w	r4, [r5, #328]	; 0x148
 8000f08:	4606      	mov	r6, r0
 8000f0a:	4688      	mov	r8, r1
 8000f0c:	4692      	mov	sl, r2
 8000f0e:	4699      	mov	r9, r3
 8000f10:	b3cc      	cbz	r4, 8000f86 <__register_exitproc+0x8a>
 8000f12:	6860      	ldr	r0, [r4, #4]
 8000f14:	281f      	cmp	r0, #31
 8000f16:	dc18      	bgt.n	8000f4a <__register_exitproc+0x4e>
 8000f18:	1c43      	adds	r3, r0, #1
 8000f1a:	b17e      	cbz	r6, 8000f3c <__register_exitproc+0x40>
 8000f1c:	eb04 0580 	add.w	r5, r4, r0, lsl #2
 8000f20:	2101      	movs	r1, #1
 8000f22:	f8c5 a088 	str.w	sl, [r5, #136]	; 0x88
 8000f26:	f8d4 7188 	ldr.w	r7, [r4, #392]	; 0x188
 8000f2a:	fa01 f200 	lsl.w	r2, r1, r0
 8000f2e:	4317      	orrs	r7, r2
 8000f30:	2e02      	cmp	r6, #2
 8000f32:	f8c4 7188 	str.w	r7, [r4, #392]	; 0x188
 8000f36:	f8c5 9108 	str.w	r9, [r5, #264]	; 0x108
 8000f3a:	d01e      	beq.n	8000f7a <__register_exitproc+0x7e>
 8000f3c:	3002      	adds	r0, #2
 8000f3e:	6063      	str	r3, [r4, #4]
 8000f40:	f844 8020 	str.w	r8, [r4, r0, lsl #2]
 8000f44:	2000      	movs	r0, #0
 8000f46:	e8bd 87f0 	ldmia.w	sp!, {r4, r5, r6, r7, r8, r9, sl, pc}
 8000f4a:	4b14      	ldr	r3, [pc, #80]	; (8000f9c <__register_exitproc+0xa0>)
 8000f4c:	b303      	cbz	r3, 8000f90 <__register_exitproc+0x94>
 8000f4e:	f44f 70c8 	mov.w	r0, #400	; 0x190
 8000f52:	f3af 8000 	nop.w
 8000f56:	4604      	mov	r4, r0
 8000f58:	b1d0      	cbz	r0, 8000f90 <__register_exitproc+0x94>
 8000f5a:	f8d5 3148 	ldr.w	r3, [r5, #328]	; 0x148
 8000f5e:	2700      	movs	r7, #0
 8000f60:	e880 0088 	stmia.w	r0, {r3, r7}
 8000f64:	f8c5 4148 	str.w	r4, [r5, #328]	; 0x148
 8000f68:	4638      	mov	r0, r7
 8000f6a:	2301      	movs	r3, #1
 8000f6c:	f8c4 7188 	str.w	r7, [r4, #392]	; 0x188
 8000f70:	f8c4 718c 	str.w	r7, [r4, #396]	; 0x18c
 8000f74:	2e00      	cmp	r6, #0
 8000f76:	d0e1      	beq.n	8000f3c <__register_exitproc+0x40>
 8000f78:	e7d0      	b.n	8000f1c <__register_exitproc+0x20>
 8000f7a:	f8d4 118c 	ldr.w	r1, [r4, #396]	; 0x18c
 8000f7e:	430a      	orrs	r2, r1
 8000f80:	f8c4 218c 	str.w	r2, [r4, #396]	; 0x18c
 8000f84:	e7da      	b.n	8000f3c <__register_exitproc+0x40>
 8000f86:	f505 74a6 	add.w	r4, r5, #332	; 0x14c
 8000f8a:	f8c5 4148 	str.w	r4, [r5, #328]	; 0x148
 8000f8e:	e7c0      	b.n	8000f12 <__register_exitproc+0x16>
 8000f90:	f04f 30ff 	mov.w	r0, #4294967295
 8000f94:	e8bd 87f0 	ldmia.w	sp!, {r4, r5, r6, r7, r8, r9, sl, pc}
 8000f98:	08000fc4 	stmdaeq	r0, {r2, r6, r7, r8, r9, sl, fp}
 8000f9c:	00000000 	andeq	r0, r0, r0

08000fa0 <_exit>:
 8000fa0:	e7fe      	b.n	8000fa0 <_exit>
 8000fa2:	bf00      	nop

08000fa4 <__EH_FRAME_BEGIN__>:
 8000fa4:	00000000 	andeq	r0, r0, r0

08000fa8 <_init>:
 8000fa8:	b5f8      	push	{r3, r4, r5, r6, r7, lr}
 8000faa:	bf00      	nop
 8000fac:	bcf8      	pop	{r3, r4, r5, r6, r7}
 8000fae:	bc08      	pop	{r3}
 8000fb0:	469e      	mov	lr, r3
 8000fb2:	4770      	bx	lr

08000fb4 <_fini>:
 8000fb4:	b5f8      	push	{r3, r4, r5, r6, r7, lr}
 8000fb6:	bf00      	nop
 8000fb8:	bcf8      	pop	{r3, r4, r5, r6, r7}
 8000fba:	bc08      	pop	{r3}
 8000fbc:	469e      	mov	lr, r3
 8000fbe:	4770      	bx	lr

Disassembly of section .rodata:

08000fc0 <_global_impure_ptr-0x4>:
 8000fc0:	00000043 	andeq	r0, r0, r3, asr #32

08000fc4 <_global_impure_ptr>:
 8000fc4:	20000028 	andcs	r0, r0, r8, lsr #32

Disassembly of section .ARM:

08000fc8 <__exidx_start>:
 8000fc8:	7ffff21c 	svcvc	0x00fff21c
 8000fcc:	00000001 	andeq	r0, r0, r1

Disassembly of section .init_array:

08000fd0 <__init_array_start>:
 8000fd0:	08000ddd 	stmdaeq	r0, {r0, r2, r3, r4, r6, r7, r8, sl, fp}

08000fd4 <__frame_dummy_init_array_entry>:
 8000fd4:	080001ad 	stmdaeq	r0, {r0, r2, r3, r5, r7, r8}

Disassembly of section .fini_array:

08000fd8 <__do_global_dtors_aux_fini_array_entry>:
 8000fd8:	08000189 	stmdaeq	r0, {r0, r3, r7, r8}

Disassembly of section .data:

20000000 <__dso_handle>:
20000000:	00000000 	andeq	r0, r0, r0

20000004 <APBAHBPrescTable>:
20000004:	00000000 	andeq	r0, r0, r0
20000008:	04030201 	streq	r0, [r3], #-513	; 0x201
2000000c:	04030201 	streq	r0, [r3], #-513	; 0x201
20000010:	09080706 	stmdbeq	r8, {r1, r2, r8, r9, sl}

20000014 <AHBPrescTable>:
	...
2000001c:	04030201 	streq	r0, [r3], #-513	; 0x201
20000020:	09080706 	stmdbeq	r8, {r1, r2, r8, r9, sl}

20000024 <SystemCoreClock>:
20000024:	0a037a00 	beq	200de82c <_estack+0xbe82d>

20000028 <impure_data>:
20000028:	00000000 	andeq	r0, r0, r0
2000002c:	20000314 	andcs	r0, r0, r4, lsl r3
20000030:	2000037c 	andcs	r0, r0, ip, ror r3
20000034:	200003e4 	andcs	r0, r0, r4, ror #7
	...
2000005c:	08000fc0 	stmdaeq	r0, {r6, r7, r8, r9, sl, fp}
	...
200000d0:	00000001 	andeq	r0, r0, r1
200000d4:	00000000 	andeq	r0, r0, r0
200000d8:	abcd330e 	blge	1f34cd18 <_eccmram+0xf34cd18>
200000dc:	e66d1234 			; <UNDEFINED> instruction: 0xe66d1234
200000e0:	0005deec 	andeq	sp, r5, ip, ror #29
200000e4:	0000000b 	andeq	r0, r0, fp
	...

20000450 <_impure_ptr>:
20000450:	20000028 	andcs	r0, r0, r8, lsr #32

Disassembly of section .jcr:

20000454 <__JCR_END__>:
20000454:	00000000 	andeq	r0, r0, r0

Disassembly of section .bss:

20000458 <__bss_start__>:
20000458:	00000000 	andeq	r0, r0, r0

2000045c <object.8127>:
	...

Disassembly of section ._user_heap_stack:

20000474 <._user_heap_stack>:
	...

Disassembly of section .ARM.attributes:

00000000 <.ARM.attributes>:
   0:	00002f41 	andeq	r2, r0, r1, asr #30
   4:	61656100 	cmnvs	r5, r0, lsl #2
   8:	01006962 	tsteq	r0, r2, ror #18
   c:	00000025 	andeq	r0, r0, r5, lsr #32
  10:	2d453705 	stclcs	7, cr3, [r5, #-20]	; 0xffffffec
  14:	0d06004d 	stceq	0, cr0, [r6, #-308]	; 0xfffffecc
  18:	02094d07 	andeq	r4, r9, #448	; 0x1c0
  1c:	0412060a 	ldreq	r0, [r2], #-1546	; 0x60a
  20:	01150114 	tsteq	r5, r4, lsl r1
  24:	01180317 	tsteq	r8, r7, lsl r3
  28:	011b011a 	tsteq	fp, sl, lsl r1
  2c:	0122011c 			; <UNDEFINED> instruction: 0x0122011c

Disassembly of section .debug_info:

00000000 <.debug_info>:
       0:	00000402 	andeq	r0, r0, r2, lsl #8
       4:	00000004 	andeq	r0, r0, r4
       8:	01040000 	mrseq	r0, (UNDEF: 4)
       c:	000002ca 	andeq	r0, r0, sl, asr #5
      10:	00009101 	andeq	r9, r0, r1, lsl #2
      14:	00005500 	andeq	r5, r0, r0, lsl #10
	...
      24:	06010200 	streq	r0, [r1], -r0, lsl #4
      28:	00000184 	andeq	r0, r0, r4, lsl #3
      2c:	00014903 	andeq	r4, r1, r3, lsl #18
      30:	371d0200 	ldrcc	r0, [sp, -r0, lsl #4]
      34:	02000000 	andeq	r0, r0, #0
      38:	01820801 	orreq	r0, r2, r1, lsl #16
      3c:	02020000 	andeq	r0, r2, #0
      40:	00003405 	andeq	r3, r0, r5, lsl #8
      44:	009a0300 	addseq	r0, sl, r0, lsl #6
      48:	2b020000 	blcs	80050 <_Min_Stack_Size+0x7fc50>
      4c:	00000050 	andeq	r0, r0, r0, asr r0
      50:	c2070202 	andgt	r0, r7, #536870912	; 0x20000000
      54:	03000001 	movweq	r0, #1
      58:	0000027c 	andeq	r0, r0, ip, ror r2
      5c:	00623f02 	rsbeq	r3, r2, r2, lsl #30
      60:	04020000 	streq	r0, [r2], #-0
      64:	00011305 	andeq	r1, r1, r5, lsl #6
      68:	01690300 	cmneq	r9, r0, lsl #6
      6c:	41020000 	mrsmi	r0, (UNDEF: 2)
      70:	00000074 	andeq	r0, r0, r4, ror r0
      74:	9f070402 	svcls	0x00070402
      78:	02000001 	andeq	r0, r0, #1
      7c:	010e0508 	tsteq	lr, r8, lsl #10
      80:	08020000 	stmdaeq	r2, {}	; <UNPREDICTABLE>
      84:	00019a07 	andeq	r9, r1, r7, lsl #20
      88:	05040400 	streq	r0, [r4, #-1024]	; 0x400
      8c:	00746e69 	rsbseq	r6, r4, r9, ror #28
      90:	a4070402 	strge	r0, [r7], #-1026	; 0x402
      94:	03000001 	movweq	r0, #1
      98:	0000014b 	andeq	r0, r0, fp, asr #2
      9c:	002c1403 	eoreq	r1, ip, r3, lsl #8
      a0:	9c030000 	stcls	0, cr0, [r3], {-0}
      a4:	03000000 	movweq	r0, #0
      a8:	0000451a 	andeq	r4, r0, sl, lsl r5
      ac:	027e0300 	rsbseq	r0, lr, #0, 6
      b0:	1f030000 	svcne	0x00030000
      b4:	00000057 	andeq	r0, r0, r7, asr r0
      b8:	00016b03 	andeq	r6, r1, r3, lsl #22
      bc:	69200300 	stmdbvs	r0!, {r8, r9}
      c0:	02000000 	andeq	r0, r0, #0
      c4:	003e0704 	eorseq	r0, lr, r4, lsl #14
      c8:	b8050000 	stmdalt	r5, {}	; <UNPREDICTABLE>
      cc:	06000000 	streq	r0, [r0], -r0
      d0:	000000b8 	strheq	r0, [r0], -r8
      d4:	000000df 	ldrdeq	r0, [r0], -pc	; <UNPREDICTABLE>
      d8:	0000c307 	andeq	ip, r0, r7, lsl #6
      dc:	05000100 	streq	r0, [r0, #-256]	; 0x100
      e0:	00000097 	muleq	r0, r7, r0
      e4:	0000a205 	andeq	sl, r0, r5, lsl #4
      e8:	00ad0500 	adceq	r0, sp, r0, lsl #10
      ec:	01080000 	mrseq	r0, (UNDEF: 8)
      f0:	04035b04 	streq	r5, [r3], #-2820	; 0xb04
      f4:	09000001 	stmdbeq	r0, {r0}
      f8:	000001fc 	strdeq	r0, [r0], -ip
      fc:	00cc0900 	sbceq	r0, ip, r0, lsl #18
     100:	00010000 	andeq	r0, r1, r0
     104:	0002b40a 	andeq	fp, r2, sl, lsl #8
     108:	035b0400 	cmpeq	fp, #0, 8
     10c:	000000ee 	andeq	r0, r0, lr, ror #1
     110:	bf04280b 	svclt	0x0004280b
     114:	00019c05 	andeq	r9, r1, r5, lsl #24
     118:	01430c00 	cmpeq	r3, r0, lsl #24
     11c:	c1040000 	mrsgt	r0, (UNDEF: 4)
     120:	0000ca05 	andeq	ip, r0, r5, lsl #20
     124:	070c0000 	streq	r0, [ip, -r0]
     128:	04000001 	streq	r0, [r0], #-1
     12c:	00ca05c2 	sbceq	r0, sl, r2, asr #11
     130:	0c040000 	stceq	0, cr0, [r4], {-0}
     134:	00000225 	andeq	r0, r0, r5, lsr #4
     138:	ca05c304 	bgt	170d50 <_Min_Stack_Size+0x170950>
     13c:	08000000 	stmdaeq	r0, {}	; <UNPREDICTABLE>
     140:	00012a0c 	andeq	r2, r1, ip, lsl #20
     144:	05c40400 	strbeq	r0, [r4, #1024]	; 0x400
     148:	000000ca 	andeq	r0, r0, sl, asr #1
     14c:	44490d0c 	strbmi	r0, [r9], #-3340	; 0xd0c
     150:	c5040052 	strgt	r0, [r4, #-82]	; 0x52
     154:	0000ca05 	andeq	ip, r0, r5, lsl #20
     158:	4f0d1000 	svcmi	0x000d1000
     15c:	04005244 	streq	r5, [r0], #-580	; 0x244
     160:	00ca05c6 	sbceq	r0, sl, r6, asr #11
     164:	0c140000 	ldceq	0, cr0, [r4], {-0}
     168:	000002c4 	andeq	r0, r0, r4, asr #5
     16c:	e405c704 	str	ip, [r5], #-1796	; 0x704
     170:	18000000 	stmdane	r0, {}	; <UNPREDICTABLE>
     174:	00013d0c 	andeq	r3, r1, ip, lsl #26
     178:	05c80400 	strbeq	r0, [r8, #1024]	; 0x400
     17c:	000000e4 	andeq	r0, r0, r4, ror #1
     180:	03770c1a 	cmneq	r7, #6656	; 0x1a00
     184:	c9040000 	stmdbgt	r4, {}	; <UNPREDICTABLE>
     188:	0000ca05 	andeq	ip, r0, r5, lsl #20
     18c:	410d1c00 	tstmi	sp, r0, lsl #24
     190:	04005246 	streq	r5, [r0], #-582	; 0x246
     194:	019c05ca 	orrseq	r0, ip, sl, asr #11
     198:	00200000 	eoreq	r0, r0, r0
     19c:	0000cf05 	andeq	ip, r0, r5, lsl #30
     1a0:	00000a00 	andeq	r0, r0, r0, lsl #20
     1a4:	cb040000 	blgt	1001ac <_Min_Stack_Size+0xffdac>
     1a8:	00011005 	andeq	r1, r1, r5
     1ac:	05010e00 	streq	r0, [r1, #-3584]	; 0xe00
     1b0:	0001ce42 	andeq	ip, r1, r2, asr #28
     1b4:	01300900 	teqeq	r0, r0, lsl #18
     1b8:	09000000 	stmdbeq	r0, {}	; <UNPREDICTABLE>
     1bc:	0000011c 	andeq	r0, r0, ip, lsl r1
     1c0:	00bf0901 	adcseq	r0, pc, r1, lsl #18
     1c4:	09020000 	stmdbeq	r2, {}	; <UNPREDICTABLE>
     1c8:	000000e8 	andeq	r0, r0, r8, ror #1
     1cc:	23030003 	movwcs	r0, #12291	; 0x3003
     1d0:	05000000 	streq	r0, [r0, #-0]
     1d4:	0001ad47 	andeq	sl, r1, r7, asr #26
     1d8:	05010e00 	streq	r0, [r1, #-3584]	; 0xe00
     1dc:	0001ee4f 	andeq	lr, r1, pc, asr #28
     1e0:	01740900 	cmneq	r4, r0, lsl #18
     1e4:	09000000 	stmdbeq	r0, {}	; <UNPREDICTABLE>
     1e8:	00000047 	andeq	r0, r0, r7, asr #32
     1ec:	f5030001 			; <UNDEFINED> instruction: 0xf5030001
     1f0:	05000000 	streq	r0, [r0, #-0]
     1f4:	0001d952 	andeq	sp, r1, r2, asr r9
     1f8:	05010e00 	streq	r0, [r1, #-3584]	; 0xe00
     1fc:	00021a5a 	andeq	r1, r2, sl, asr sl
     200:	02040900 	andeq	r0, r4, #0, 18
     204:	09000000 	stmdbeq	r0, {}	; <UNPREDICTABLE>
     208:	00000213 	andeq	r0, r0, r3, lsl r2
     20c:	01ec0901 	mvneq	r0, r1, lsl #18
     210:	09020000 	stmdbeq	r2, {}	; <UNPREDICTABLE>
     214:	00000286 	andeq	r0, r0, r6, lsl #5
     218:	2d030003 	stccs	0, cr0, [r3, #-12]
     21c:	05000002 	streq	r0, [r0, #-2]
     220:	0001f95f 	andeq	pc, r1, pc, asr r9	; <UNPREDICTABLE>
     224:	05010e00 	streq	r0, [r1, #-3584]	; 0xe00
     228:	0002406e 	andeq	r4, r2, lr, rrx
     22c:	025b0900 	subseq	r0, fp, #0, 18
     230:	09000000 	stmdbeq	r0, {}	; <UNPREDICTABLE>
     234:	000002a7 	andeq	r0, r0, r7, lsr #5
     238:	023f0901 	eorseq	r0, pc, #16384	; 0x4000
     23c:	00020000 	andeq	r0, r2, r0
     240:	00029603 	andeq	r9, r2, r3, lsl #12
     244:	25720500 	ldrbcs	r0, [r2, #-1280]!	; 0x500
     248:	0f000002 	svceq	0x00000002
     24c:	90840508 	addls	r0, r4, r8, lsl #10
     250:	10000002 	andne	r0, r0, r2
     254:	0000000d 	andeq	r0, r0, sp
     258:	00b88605 	adcseq	r8, r8, r5, lsl #12
     25c:	10000000 	andne	r0, r0, r0
     260:	0000037c 	andeq	r0, r0, ip, ror r3
     264:	01ce8905 	biceq	r8, lr, r5, lsl #18
     268:	10040000 	andne	r0, r4, r0
     26c:	000000d3 	ldrdeq	r0, [r0], -r3
     270:	021a8c05 	andseq	r8, sl, #1280	; 0x500
     274:	10050000 	andne	r0, r5, r0
     278:	000000b4 	strheq	r0, [r0], -r4
     27c:	01ee8f05 	mvneq	r8, r5, lsl #30
     280:	10060000 	andne	r0, r6, r0
     284:	00000190 	muleq	r0, r0, r1
     288:	02409205 	subeq	r9, r0, #1342177280	; 0x50000000
     28c:	00070000 	andeq	r0, r7, r0
     290:	0001b103 	andeq	fp, r1, r3, lsl #2
     294:	4b940500 	blmi	fe50169c <_estack+0xde4e169d>
     298:	11000002 	tstne	r0, r2
     29c:	0000008c 	andeq	r0, r0, ip, lsl #1
     2a0:	00890701 	addeq	r0, r9, r1, lsl #14
     2a4:	0bf00000 	bleq	ffc002ac <_estack+0xdfbe02ad>
     2a8:	00940800 	addseq	r0, r4, r0, lsl #16
     2ac:	9c010000 	stcls	0, cr0, [r1], {-0}
     2b0:	00000391 	muleq	r0, r1, r3
     2b4:	00001612 	andeq	r1, r0, r2, lsl r6
     2b8:	90080100 	andls	r0, r8, r0, lsl #2
     2bc:	02000002 	andeq	r0, r0, #2
     2c0:	a5126891 	ldrge	r6, [r2, #-2193]	; 0x891
     2c4:	01000000 	mrseq	r0, (UNDEF: 0)
     2c8:	0000df1b 	andeq	sp, r0, fp, lsl pc
     2cc:	67910200 	ldrvs	r0, [r1, r0, lsl #4]
     2d0:	000bfc13 	andeq	pc, fp, r3, lsl ip	; <UNPREDICTABLE>
     2d4:	00039d08 	andeq	r9, r3, r8, lsl #26
     2d8:	0002e800 	andeq	lr, r2, r0, lsl #16
     2dc:	51011400 	tstpl	r1, r0, lsl #8
     2e0:	01143101 	tsteq	r4, r1, lsl #2
     2e4:	00380150 	eorseq	r0, r8, r0, asr r1
     2e8:	000c2013 	andeq	r2, ip, r3, lsl r0
     2ec:	0003b408 	andeq	fp, r3, r8, lsl #8
     2f0:	00030500 	andeq	r0, r3, r0, lsl #10
     2f4:	51011400 	tstpl	r1, r0, lsl #8
     2f8:	14689102 	strbtne	r9, [r8], #-258	; 0x102
     2fc:	0c055001 	stceq	0, cr5, [r5], {1}
     300:	40020c00 	andmi	r0, r2, r0, lsl #24
     304:	0c281300 	stceq	3, cr1, [r8], #-0
     308:	039d0800 	orrseq	r0, sp, #0, 16
     30c:	031f0000 	tsteq	pc, #0
     310:	01140000 	tsteq	r4, r0
     314:	00740251 	rsbseq	r0, r4, r1, asr r2
     318:	02500114 	subseq	r0, r0, #20, 2
     31c:	13000074 	movwne	r0, #116	; 0x74
     320:	08000c44 	stmdaeq	r0, {r2, r6, sl, fp}
     324:	000003b4 			; <UNDEFINED> instruction: 0x000003b4
     328:	0000033c 	andeq	r0, r0, ip, lsr r3
     32c:	02510114 	subseq	r0, r1, #20, 2
     330:	01146891 			; <UNDEFINED> instruction: 0x01146891
     334:	000c0550 	andeq	r0, ip, r0, asr r5
     338:	00400200 	subeq	r0, r0, r0, lsl #4
     33c:	000c5013 	andeq	r5, ip, r3, lsl r0
     340:	0003d708 	andeq	sp, r3, r8, lsl #14
     344:	00035900 	andeq	r5, r3, r0, lsl #18
     348:	51011400 	tstpl	r1, r0, lsl #8
     34c:	14007402 	strne	r7, [r0], #-1026	; 0x402
     350:	0c055001 	stceq	0, cr5, [r5], {1}
     354:	40020000 	andmi	r0, r2, r0
     358:	0c681300 	stcleq	3, cr1, [r8], #-0
     35c:	03f20800 	mvnseq	r0, #0, 16
     360:	03770000 	cmneq	r7, #0
     364:	01140000 	tsteq	r4, r0
     368:	000a0351 	andeq	r0, sl, r1, asr r3
     36c:	50011440 	andpl	r1, r1, r0, asr #8
     370:	0c000c05 	stceq	12, cr0, [r0], {5}
     374:	15004002 	strne	r4, [r0, #-2]
     378:	08000c70 	stmdaeq	r0, {r4, r5, r6, sl, fp}
     37c:	000003d7 	ldrdeq	r0, [r0], -r7
     380:	02510114 	subseq	r0, r1, #20, 2
     384:	01140074 	tsteq	r4, r4, ror r0
     388:	000c0550 	andeq	r0, ip, r0, asr r5
     38c:	00400200 	subeq	r0, r0, r0, lsl #4
     390:	024e1600 	subeq	r1, lr, #0, 12
     394:	fa070000 	blx	1c039c <_Min_Stack_Size+0x1bff9c>
     398:	0000e906 	andeq	lr, r0, r6, lsl #18
     39c:	01d51700 	bicseq	r1, r5, r0, lsl #14
     3a0:	d7060000 	strle	r0, [r6, -r0]
     3a4:	0003b403 	andeq	fp, r3, r3, lsl #8
     3a8:	00b81800 	adcseq	r1, r8, r0, lsl #16
     3ac:	04180000 	ldreq	r0, [r8], #-0
     3b0:	00000001 	andeq	r0, r0, r1
     3b4:	0000de17 	andeq	sp, r0, r7, lsl lr
     3b8:	02300500 	eorseq	r0, r0, #0, 10
     3bc:	000003cb 	andeq	r0, r0, fp, asr #7
     3c0:	0003cb18 	andeq	ip, r3, r8, lsl fp
     3c4:	03d11800 	bicseq	r1, r1, #0, 16
     3c8:	19000000 	stmdbne	r0, {}	; <UNPREDICTABLE>
     3cc:	0001a104 	andeq	sl, r1, r4, lsl #2
     3d0:	90041900 	andls	r1, r4, r0, lsl #18
     3d4:	1a000002 	bne	3e4 <_Min_Heap_Size+0x1e4>
     3d8:	00000153 	andeq	r0, r0, r3, asr r1
     3dc:	97023505 	strls	r3, [r2, -r5, lsl #10]
     3e0:	f2000000 	vhadd.s8	d0, d0, d0
     3e4:	18000003 	stmdane	r0, {r0, r1}
     3e8:	000003cb 	andeq	r0, r0, fp, asr #7
     3ec:	0000a218 	andeq	sl, r0, r8, lsl r2
     3f0:	6c1b0000 	ldcvs	0, cr0, [fp], {-0}
     3f4:	05000002 	streq	r0, [r0, #-2]
     3f8:	cb18023d 	blgt	600cf4 <_Min_Stack_Size+0x6008f4>
     3fc:	18000003 	stmdane	r0, {r0, r1}
     400:	000000a2 	andeq	r0, r0, r2, lsr #1
     404:	08410000 	stmdaeq	r1, {}^	; <UNPREDICTABLE>
     408:	00040000 	andeq	r0, r4, r0
     40c:	00000170 	andeq	r0, r0, r0, ror r1
     410:	02ca0104 	sbceq	r0, sl, #4, 2
     414:	d0010000 	andle	r0, r1, r0
     418:	55000004 	strpl	r0, [r0, #-4]
     41c:	58000000 	stmdapl	r0, {}	; <UNPREDICTABLE>
     420:	b8080002 	stmdalt	r8, {r1}
     424:	0d000002 	stceq	0, cr0, [r0, #-8]
     428:	02000002 	andeq	r0, r0, #2
     42c:	01840601 	orreq	r0, r4, r1, lsl #12
     430:	49030000 	stmdbmi	r3, {}	; <UNPREDICTABLE>
     434:	02000001 	andeq	r0, r0, #1
     438:	0000371d 	andeq	r3, r0, sp, lsl r7
     43c:	08010200 	stmdaeq	r1, {r9}
     440:	00000182 	andeq	r0, r0, r2, lsl #3
     444:	34050202 	strcc	r0, [r5], #-514	; 0x202
     448:	03000000 	movweq	r0, #0
     44c:	0000009a 	muleq	r0, sl, r0
     450:	00502b02 	subseq	r2, r0, r2, lsl #22
     454:	02020000 	andeq	r0, r2, #0
     458:	0001c207 	andeq	ip, r1, r7, lsl #4
     45c:	027c0300 	rsbseq	r0, ip, #0, 6
     460:	3f020000 	svccc	0x00020000
     464:	00000062 	andeq	r0, r0, r2, rrx
     468:	13050402 	movwne	r0, #21506	; 0x5402
     46c:	03000001 	movweq	r0, #1
     470:	00000169 	andeq	r0, r0, r9, ror #2
     474:	00744102 	rsbseq	r4, r4, r2, lsl #2
     478:	04020000 	streq	r0, [r2], #-0
     47c:	00019f07 	andeq	r9, r1, r7, lsl #30
     480:	05080200 	streq	r0, [r8, #-512]	; 0x200
     484:	0000010e 	andeq	r0, r0, lr, lsl #2
     488:	9a070802 	bls	1c2498 <_Min_Stack_Size+0x1c2098>
     48c:	04000001 	streq	r0, [r0], #-1
     490:	6e690504 	cdpvs	5, 6, cr0, cr9, cr4, {0}
     494:	04020074 	streq	r0, [r2], #-116	; 0x74
     498:	0001a407 	andeq	sl, r1, r7, lsl #8
     49c:	014b0300 	mrseq	r0, (UNDEF: 123)
     4a0:	14030000 	strne	r0, [r3], #-0
     4a4:	0000002c 	andeq	r0, r0, ip, lsr #32
     4a8:	00009c03 	andeq	r9, r0, r3, lsl #24
     4ac:	451a0300 	ldrmi	r0, [sl, #-768]	; 0x300
     4b0:	03000000 	movweq	r0, #0
     4b4:	0000027e 	andeq	r0, r0, lr, ror r2
     4b8:	00571f03 	subseq	r1, r7, r3, lsl #30
     4bc:	6b030000 	blvs	c04c4 <_Min_Stack_Size+0xc00c4>
     4c0:	03000001 	movweq	r0, #1
     4c4:	00006920 	andeq	r6, r0, r0, lsr #18
     4c8:	07040200 	streq	r0, [r4, -r0, lsl #4]
     4cc:	0000003e 	andeq	r0, r0, lr, lsr r0
     4d0:	0000b805 	andeq	fp, r0, r5, lsl #16
     4d4:	00b80600 	adcseq	r0, r8, r0, lsl #12
     4d8:	00df0000 	sbcseq	r0, pc, r0
     4dc:	c3070000 	movwgt	r0, #28672	; 0x7000
     4e0:	01000000 	mrseq	r0, (UNDEF: 0)
     4e4:	00a20500 	adceq	r0, r2, r0, lsl #10
     4e8:	ad050000 	stcge	0, cr0, [r5, #-0]
     4ec:	08000000 	stmdaeq	r0, {}	; <UNPREDICTABLE>
     4f0:	035b0401 	cmpeq	fp, #16777216	; 0x1000000
     4f4:	000000ff 	strdeq	r0, [r0], -pc	; <UNPREDICTABLE>
     4f8:	0001fc09 	andeq	pc, r1, r9, lsl #24
     4fc:	cc090000 	stcgt	0, cr0, [r9], {-0}
     500:	01000000 	mrseq	r0, (UNDEF: 0)
     504:	02b40a00 	adcseq	r0, r4, #0, 20
     508:	5b040000 	blpl	100510 <_Min_Stack_Size+0x100110>
     50c:	0000e903 	andeq	lr, r0, r3, lsl #18
     510:	04280b00 	strteq	r0, [r8], #-2816	; 0xb00
     514:	019705bf 			; <UNDEFINED> instruction: 0x019705bf
     518:	430c0000 	movwmi	r0, #49152	; 0xc000
     51c:	04000001 	streq	r0, [r0], #-1
     520:	00ca05c1 	sbceq	r0, sl, r1, asr #11
     524:	0c000000 	stceq	0, cr0, [r0], {-0}
     528:	00000107 	andeq	r0, r0, r7, lsl #2
     52c:	ca05c204 	bgt	170d44 <_Min_Stack_Size+0x170944>
     530:	04000000 	streq	r0, [r0], #-0
     534:	0002250c 	andeq	r2, r2, ip, lsl #10
     538:	05c30400 	strbeq	r0, [r3, #1024]	; 0x400
     53c:	000000ca 	andeq	r0, r0, sl, asr #1
     540:	012a0c08 			; <UNDEFINED> instruction: 0x012a0c08
     544:	c4040000 	strgt	r0, [r4], #-0
     548:	0000ca05 	andeq	ip, r0, r5, lsl #20
     54c:	490d0c00 	stmdbmi	sp, {sl, fp}
     550:	04005244 	streq	r5, [r0], #-580	; 0x244
     554:	00ca05c5 	sbceq	r0, sl, r5, asr #11
     558:	0d100000 	ldceq	0, cr0, [r0, #-0]
     55c:	0052444f 	subseq	r4, r2, pc, asr #8
     560:	ca05c604 	bgt	171d78 <_Min_Stack_Size+0x171978>
     564:	14000000 	strne	r0, [r0], #-0
     568:	0002c40c 	andeq	ip, r2, ip, lsl #8
     56c:	05c70400 	strbeq	r0, [r7, #1024]	; 0x400
     570:	000000df 	ldrdeq	r0, [r0], -pc	; <UNPREDICTABLE>
     574:	013d0c18 	teqeq	sp, r8, lsl ip
     578:	c8040000 	stmdagt	r4, {}	; <UNPREDICTABLE>
     57c:	0000df05 	andeq	sp, r0, r5, lsl #30
     580:	770c1a00 	strvc	r1, [ip, -r0, lsl #20]
     584:	04000003 	streq	r0, [r0], #-3
     588:	00ca05c9 	sbceq	r0, sl, r9, asr #11
     58c:	0d1c0000 	ldceq	0, cr0, [ip, #-0]
     590:	00524641 	subseq	r4, r2, r1, asr #12
     594:	9705ca04 	strls	ip, [r5, -r4, lsl #20]
     598:	20000001 	andcs	r0, r0, r1
     59c:	00cf0500 	sbceq	r0, pc, r0, lsl #10
     5a0:	000a0000 	andeq	r0, sl, r0
     5a4:	04000000 	streq	r0, [r0], #-0
     5a8:	010b05cb 	smlabteq	fp, fp, r5, r0
     5ac:	010e0000 	mrseq	r0, (UNDEF: 14)
     5b0:	01c94205 	biceq	r4, r9, r5, lsl #4
     5b4:	30090000 	andcc	r0, r9, r0
     5b8:	00000001 	andeq	r0, r0, r1
     5bc:	00011c09 	andeq	r1, r1, r9, lsl #24
     5c0:	bf090100 	svclt	0x00090100
     5c4:	02000000 	andeq	r0, r0, #0
     5c8:	0000e809 	andeq	lr, r0, r9, lsl #16
     5cc:	03000300 	movweq	r0, #768	; 0x300
     5d0:	00000023 	andeq	r0, r0, r3, lsr #32
     5d4:	01a84705 			; <UNDEFINED> instruction: 0x01a84705
     5d8:	010e0000 	mrseq	r0, (UNDEF: 14)
     5dc:	01e94f05 	mvneq	r4, r5, lsl #30
     5e0:	74090000 	strvc	r0, [r9], #-0
     5e4:	00000001 	andeq	r0, r0, r1
     5e8:	00004709 	andeq	r4, r0, r9, lsl #14
     5ec:	03000100 	movweq	r0, #256	; 0x100
     5f0:	000000f5 	strdeq	r0, [r0], -r5
     5f4:	01d45205 	bicseq	r5, r4, r5, lsl #4
     5f8:	010e0000 	mrseq	r0, (UNDEF: 14)
     5fc:	02155a05 	andseq	r5, r5, #20480	; 0x5000
     600:	04090000 	streq	r0, [r9], #-0
     604:	00000002 	andeq	r0, r0, r2
     608:	00021309 	andeq	r1, r2, r9, lsl #6
     60c:	ec090100 	stfs	f0, [r9], {-0}
     610:	02000001 	andeq	r0, r0, #1
     614:	00028609 	andeq	r8, r2, r9, lsl #12
     618:	03000300 	movweq	r0, #768	; 0x300
     61c:	0000022d 	andeq	r0, r0, sp, lsr #4
     620:	01f45f05 	mvnseq	r5, r5, lsl #30
     624:	010e0000 	mrseq	r0, (UNDEF: 14)
     628:	023b6e05 	eorseq	r6, fp, #5, 28	; 0x50
     62c:	5b090000 	blpl	240634 <_Min_Stack_Size+0x240234>
     630:	00000002 	andeq	r0, r0, r2
     634:	0002a709 	andeq	sl, r2, r9, lsl #14
     638:	3f090100 	svccc	0x00090100
     63c:	02000002 	andeq	r0, r0, #2
     640:	02960300 	addseq	r0, r6, #0, 6
     644:	72050000 	andvc	r0, r5, #0
     648:	00000220 	andeq	r0, r0, r0, lsr #4
     64c:	7a05010e 	bvc	140a8c <_Min_Stack_Size+0x14068c>
     650:	0000025b 	andeq	r0, r0, fp, asr r2
     654:	0003cd09 	andeq	ip, r3, r9, lsl #26
     658:	8d090000 	stchi	0, cr0, [r9, #-0]
     65c:	01000003 	tsteq	r0, r3
     660:	047b0300 	ldrbteq	r0, [fp], #-768	; 0x300
     664:	7d050000 	stcvc	0, cr0, [r5, #-0]
     668:	00000246 	andeq	r0, r0, r6, asr #4
     66c:	8405080f 	strhi	r0, [r5], #-2063	; 0x80f
     670:	000002ab 	andeq	r0, r0, fp, lsr #5
     674:	00000d10 	andeq	r0, r0, r0, lsl sp
     678:	b8860500 	stmlt	r6, {r8, sl}
     67c:	00000000 	andeq	r0, r0, r0
     680:	00037c10 	andeq	r7, r3, r0, lsl ip
     684:	c9890500 	stmibgt	r9, {r8, sl}
     688:	04000001 	streq	r0, [r0], #-1
     68c:	0000d310 	andeq	sp, r0, r0, lsl r3
     690:	158c0500 	strne	r0, [ip, #1280]	; 0x500
     694:	05000002 	streq	r0, [r0, #-2]
     698:	0000b410 	andeq	fp, r0, r0, lsl r4
     69c:	e98f0500 	stmib	pc, {r8, sl}	; <UNPREDICTABLE>
     6a0:	06000001 	streq	r0, [r0], -r1
     6a4:	00019010 	andeq	r9, r1, r0, lsl r0
     6a8:	3b920500 	blcc	fe481ab0 <_estack+0xde461ab1>
     6ac:	07000002 	streq	r0, [r0, -r2]
     6b0:	01b10300 			; <UNDEFINED> instruction: 0x01b10300
     6b4:	94050000 	strls	r0, [r5], #-0
     6b8:	00000266 	andeq	r0, r0, r6, ror #4
     6bc:	00040111 	andeq	r0, r4, r1, lsl r1
     6c0:	587f0100 	ldmdapl	pc!, {r8}^	; <UNPREDICTABLE>
     6c4:	5c080002 	stcpl	0, cr0, [r8], {2}
     6c8:	01000001 	tsteq	r0, r1
     6cc:	0004f99c 	muleq	r4, ip, r9
     6d0:	049b1200 	ldreq	r1, [fp], #512	; 0x200
     6d4:	7f010000 	svcvc	0x00010000
     6d8:	000004f9 	strdeq	r0, [r0], -r9
     6dc:	00000000 	andeq	r0, r0, r0
     6e0:	0002a813 	andeq	sl, r2, r3, lsl r8
     6e4:	00083108 	andeq	r3, r8, r8, lsl #2
     6e8:	0002f400 	andeq	pc, r2, r0, lsl #8
     6ec:	51011400 	tstpl	r1, r0, lsl #8
     6f0:	01143101 	tsteq	r4, r1, lsl #2
     6f4:	000a0350 	andeq	r0, sl, r0, asr r3
     6f8:	b6150004 	ldrlt	r0, [r5], -r4
     6fc:	31080002 	tstcc	r8, r2
     700:	0e000008 	cdpeq	0, 0, cr0, cr0, cr8, {0}
     704:	14000003 	strne	r0, [r0], #-3
     708:	30015101 	andcc	r5, r1, r1, lsl #2
     70c:	03500114 	cmpeq	r0, #20, 2
     710:	0004000a 	andeq	r0, r4, sl
     714:	0002be13 	andeq	fp, r2, r3, lsl lr
     718:	00083108 	andeq	r3, r8, r8, lsl #2
     71c:	00032600 	andeq	r2, r3, r0, lsl #12
     720:	51011400 	tstpl	r1, r0, lsl #8
     724:	01143101 	tsteq	r4, r1, lsl #2
     728:	00310150 	eorseq	r0, r1, r0, asr r1
     72c:	0002ca15 	andeq	ip, r2, r5, lsl sl
     730:	00083108 	andeq	r3, r8, r8, lsl #2
     734:	00033e00 	andeq	r3, r3, r0, lsl #28
     738:	51011400 	tstpl	r1, r0, lsl #8
     73c:	01143001 	tsteq	r4, r1
     740:	00310150 	eorseq	r0, r1, r0, asr r1
     744:	0002d213 	andeq	sp, r2, r3, lsl r2
     748:	00083108 	andeq	r3, r8, r8, lsl #2
     74c:	00035600 	andeq	r5, r3, r0, lsl #12
     750:	51011400 	tstpl	r1, r0, lsl #8
     754:	01143101 	tsteq	r4, r1, lsl #2
     758:	00320150 	eorseq	r0, r2, r0, asr r1
     75c:	0002de15 	andeq	sp, r2, r5, lsl lr
     760:	00083108 	andeq	r3, r8, r8, lsl #2
     764:	00036e00 	andeq	r6, r3, r0, lsl #28
     768:	51011400 	tstpl	r1, r0, lsl #8
     76c:	01143001 	tsteq	r4, r1
     770:	00320150 	eorseq	r0, r2, r0, asr r1
     774:	0002e613 	andeq	lr, r2, r3, lsl r6
     778:	00083108 	andeq	r3, r8, r8, lsl #2
     77c:	00038600 	andeq	r8, r3, r0, lsl #12
     780:	51011400 	tstpl	r1, r0, lsl #8
     784:	01143101 	tsteq	r4, r1, lsl #2
     788:	00340150 	eorseq	r0, r4, r0, asr r1
     78c:	0002f215 	andeq	pc, r2, r5, lsl r2	; <UNPREDICTABLE>
     790:	00083108 	andeq	r3, r8, r8, lsl #2
     794:	00039e00 	andeq	r9, r3, r0, lsl #28
     798:	51011400 	tstpl	r1, r0, lsl #8
     79c:	01143001 	tsteq	r4, r1
     7a0:	00340150 	eorseq	r0, r4, r0, asr r1
     7a4:	0002fa13 	andeq	pc, r2, r3, lsl sl	; <UNPREDICTABLE>
     7a8:	00083108 	andeq	r3, r8, r8, lsl #2
     7ac:	0003b600 	andeq	fp, r3, r0, lsl #12
     7b0:	51011400 	tstpl	r1, r0, lsl #8
     7b4:	01143101 	tsteq	r4, r1, lsl #2
     7b8:	00380150 	eorseq	r0, r8, r0, asr r1
     7bc:	00030615 	andeq	r0, r3, r5, lsl r6
     7c0:	00083108 	andeq	r3, r8, r8, lsl #2
     7c4:	0003ce00 	andeq	ip, r3, r0, lsl #28
     7c8:	51011400 	tstpl	r1, r0, lsl #8
     7cc:	01143001 	tsteq	r4, r1
     7d0:	00380150 	eorseq	r0, r8, r0, asr r1
     7d4:	00030e13 	andeq	r0, r3, r3, lsl lr
     7d8:	00083108 	andeq	r3, r8, r8, lsl #2
     7dc:	0003e600 	andeq	lr, r3, r0, lsl #12
     7e0:	51011400 	tstpl	r1, r0, lsl #8
     7e4:	01143101 	tsteq	r4, r1, lsl #2
     7e8:	00400150 	subeq	r0, r0, r0, asr r1
     7ec:	00031a15 	andeq	r1, r3, r5, lsl sl
     7f0:	00083108 	andeq	r3, r8, r8, lsl #2
     7f4:	0003fe00 	andeq	pc, r3, r0, lsl #28
     7f8:	51011400 	tstpl	r1, r0, lsl #8
     7fc:	01143001 	tsteq	r4, r1
     800:	00400150 	subeq	r0, r0, r0, asr r1
     804:	00032213 	andeq	r2, r3, r3, lsl r2
     808:	00083108 	andeq	r3, r8, r8, lsl #2
     80c:	00041700 	andeq	r1, r4, r0, lsl #14
     810:	51011400 	tstpl	r1, r0, lsl #8
     814:	01143101 	tsteq	r4, r1, lsl #2
     818:	20080250 	andcs	r0, r8, r0, asr r2
     81c:	032e1500 			; <UNDEFINED> instruction: 0x032e1500
     820:	08310800 	ldmdaeq	r1!, {fp}
     824:	04300000 	ldrteq	r0, [r0], #-0
     828:	01140000 	tsteq	r4, r0
     82c:	14300151 	ldrtne	r0, [r0], #-337	; 0x151
     830:	08025001 	stmdaeq	r2, {r0, ip, lr}
     834:	36130020 	ldrcc	r0, [r3], -r0, lsr #32
     838:	31080003 	tstcc	r8, r3
     83c:	49000008 	stmdbmi	r0, {r3}
     840:	14000004 	strne	r0, [r0], #-4
     844:	31015101 	tstcc	r1, r1, lsl #2
     848:	02500114 	subseq	r0, r0, #20, 2
     84c:	15004008 	strne	r4, [r0, #-8]
     850:	08000342 	stmdaeq	r0, {r1, r6, r8, r9}
     854:	00000831 	andeq	r0, r0, r1, lsr r8
     858:	00000462 	andeq	r0, r0, r2, ror #8
     85c:	01510114 	cmpeq	r1, r4, lsl r1
     860:	50011430 	andpl	r1, r1, r0, lsr r4
     864:	00400802 	subeq	r0, r0, r2, lsl #16
     868:	00034a13 	andeq	r4, r3, r3, lsl sl
     86c:	00083108 	andeq	r3, r8, r8, lsl #2
     870:	00047b00 	andeq	r7, r4, r0, lsl #22
     874:	51011400 	tstpl	r1, r0, lsl #8
     878:	01143101 	tsteq	r4, r1, lsl #2
     87c:	80080250 	andhi	r0, r8, r0, asr r2
     880:	03561500 	cmpeq	r6, #0, 10
     884:	08310800 	ldmdaeq	r1!, {fp}
     888:	04940000 	ldreq	r0, [r4], #0
     88c:	01140000 	tsteq	r4, r0
     890:	14300151 	ldrtne	r0, [r0], #-337	; 0x151
     894:	08025001 	stmdaeq	r2, {r0, ip, lr}
     898:	60130080 	andsvs	r0, r3, r0, lsl #1
     89c:	31080003 	tstcc	r8, r3
     8a0:	ae000008 	cdpge	0, 0, cr0, cr0, cr8, {0}
     8a4:	14000004 	strne	r0, [r0], #-4
     8a8:	31015101 	tstcc	r1, r1, lsl #2
     8ac:	03500114 	cmpeq	r0, #20, 2
     8b0:	0001000a 	andeq	r0, r1, sl
     8b4:	00036e15 	andeq	r6, r3, r5, lsl lr
     8b8:	00083108 	andeq	r3, r8, r8, lsl #2
     8bc:	0004c800 	andeq	ip, r4, r0, lsl #16
     8c0:	51011400 	tstpl	r1, r0, lsl #8
     8c4:	01143001 	tsteq	r4, r1
     8c8:	000a0350 	andeq	r0, sl, r0, asr r3
     8cc:	78130001 	ldmdavc	r3, {r0}
     8d0:	31080003 	tstcc	r8, r3
     8d4:	e2000008 	and	r0, r0, #8
     8d8:	14000004 	strne	r0, [r0], #-4
     8dc:	31015101 	tstcc	r1, r1, lsl #2
     8e0:	03500114 	cmpeq	r0, #20, 2
     8e4:	0002000a 	andeq	r0, r2, sl
     8e8:	00038616 	andeq	r8, r3, r6, lsl r6
     8ec:	00083108 	andeq	r3, r8, r8, lsl #2
     8f0:	51011400 	tstpl	r1, r0, lsl #8
     8f4:	01143001 	tsteq	r4, r1
     8f8:	000a0350 	andeq	r0, sl, r0, asr r3
     8fc:	17000002 	strne	r0, [r0, -r2]
     900:	00019c04 	andeq	r9, r1, r4, lsl #24
     904:	00de1100 	sbcseq	r1, lr, r0, lsl #2
     908:	ca010000 	bgt	40910 <_Min_Stack_Size+0x40510>
     90c:	080003b4 	stmdaeq	r0, {r2, r4, r5, r7, r8, r9}
     910:	000000b2 	strheq	r0, [r0], -r2
     914:	055c9c01 	ldrbeq	r9, [ip, #-3073]	; 0xc01
     918:	9b180000 	blls	600920 <_Min_Stack_Size+0x600520>
     91c:	01000004 	tsteq	r0, r4
     920:	0004f9ca 	andeq	pc, r4, sl, asr #19
     924:	18500100 	ldmdane	r0, {r8}^
     928:	0000042e 	andeq	r0, r0, lr, lsr #8
     92c:	055cca01 	ldrbeq	ip, [ip, #-2561]	; 0xa01
     930:	51010000 	mrspl	r0, (UNDEF: 1)
     934:	00038619 	andeq	r8, r3, r9, lsl r6
     938:	b8cc0100 	stmialt	ip, {r8}^
     93c:	1b000000 	blne	944 <_Min_Stack_Size+0x544>
     940:	1a000001 	bne	94c <_Min_Stack_Size+0x54c>
     944:	00736f70 	rsbseq	r6, r3, r0, ror pc
     948:	00b8cc01 	adcseq	ip, r8, r1, lsl #24
     94c:	013a0000 	teqeq	sl, r0
     950:	85190000 	ldrhi	r0, [r9, #-0]
     954:	01000004 	tsteq	r0, r4
     958:	0000b8cc 	andeq	fp, r0, ip, asr #17
     95c:	00019400 	andeq	r9, r1, r0, lsl #8
     960:	04170000 	ldreq	r0, [r7], #-0
     964:	000002ab 	andeq	r0, r0, fp, lsr #5
     968:	0003b611 	andeq	fp, r3, r1, lsl r6
     96c:	68fe0100 	ldmvs	lr!, {r8}^
     970:	12080004 	andne	r0, r8, #4
     974:	01000000 	mrseq	r0, (UNDEF: 0)
     978:	0005859c 	muleq	r5, ip, r5
     97c:	042e1800 	strteq	r1, [lr], #-2048	; 0x800
     980:	fe010000 	cdp2	0, 0, cr0, cr1, cr0, {0}
     984:	0000055c 	andeq	r0, r0, ip, asr r5
     988:	1b005001 	blne	14994 <_Min_Stack_Size+0x14594>
     98c:	00000468 	andeq	r0, r0, r8, ror #8
     990:	7c011501 	cfstr32vc	mvfx1, [r1], {1}
     994:	24080004 	strcs	r0, [r8], #-4
     998:	01000000 	mrseq	r0, (UNDEF: 0)
     99c:	0005c79c 	muleq	r5, ip, r7
     9a0:	049b1c00 	ldreq	r1, [fp], #3072	; 0xc00
     9a4:	15010000 	strne	r0, [r1, #-0]
     9a8:	0004f901 	andeq	pc, r4, r1, lsl #18
     9ac:	1c500100 	ldfnee	f0, [r0], {-0}
     9b0:	0000000d 	andeq	r0, r0, sp
     9b4:	a2011501 	andge	r1, r1, #4194304	; 0x400000
     9b8:	01000000 	mrseq	r0, (UNDEF: 0)
     9bc:	6d741d51 	ldclvs	13, cr1, [r4, #-324]!	; 0xfffffebc
     9c0:	17010070 	smlsdxne	r1, r0, r0, r0
     9c4:	0000ca01 	andeq	ip, r0, r1, lsl #20
     9c8:	7c910200 	lfmvc	f0, 4, [r1], {0}
     9cc:	01531e00 	cmpeq	r3, r0, lsl #28
     9d0:	43010000 	movwmi	r0, #4096	; 0x1000
     9d4:	00009701 	andeq	r9, r0, r1, lsl #14
     9d8:	0004a000 	andeq	sl, r4, r0
     9dc:	00000c08 	andeq	r0, r0, r8, lsl #24
     9e0:	109c0100 	addsne	r0, ip, r0, lsl #2
     9e4:	1f000006 	svcne	0x00000006
     9e8:	0000049b 	muleq	r0, fp, r4
     9ec:	f9014301 			; <UNDEFINED> instruction: 0xf9014301
     9f0:	02000004 	andeq	r0, r0, #4
     9f4:	1c000002 	stcne	0, cr0, [r0], {2}
     9f8:	0000000d 	andeq	r0, r0, sp
     9fc:	a2014301 	andge	r4, r1, #67108864	; 0x4000000
     a00:	01000000 	mrseq	r0, (UNDEF: 0)
     a04:	040d2051 	streq	r2, [sp], #-81	; 0x51
     a08:	45010000 	strmi	r0, [r1, #-0]
     a0c:	00009701 	andeq	r9, r0, r1, lsl #14
     a10:	00022300 	andeq	r2, r2, r0, lsl #6
     a14:	551e0000 	ldrpl	r0, [lr, #-0]
     a18:	01000004 	tsteq	r0, r4
     a1c:	00a2015d 	adceq	r0, r2, sp, asr r1
     a20:	04ac0000 	strteq	r0, [ip], #0
     a24:	00060800 	andeq	r0, r6, r0, lsl #16
     a28:	9c010000 	stcls	0, cr0, [r1], {-0}
     a2c:	0000063b 	andeq	r0, r0, fp, lsr r6
     a30:	00049b1f 	andeq	r9, r4, pc, lsl fp
     a34:	015d0100 	cmpeq	sp, r0, lsl #2
     a38:	000004f9 	strdeq	r0, [r0], -r9
     a3c:	0000024d 	andeq	r0, r0, sp, asr #4
     a40:	04b91e00 	ldrteq	r1, [r9], #3584	; 0xe00
     a44:	6e010000 	cdpvs	0, 0, cr0, cr1, cr0, {0}
     a48:	00009701 	andeq	r9, r0, r1, lsl #14
     a4c:	0004b400 	andeq	fp, r4, r0, lsl #8
     a50:	00000c08 	andeq	r0, r0, r8, lsl #24
     a54:	849c0100 	ldrhi	r0, [ip], #256	; 0x100
     a58:	1f000006 	svcne	0x00000006
     a5c:	0000049b 	muleq	r0, fp, r4
     a60:	f9016e01 			; <UNDEFINED> instruction: 0xf9016e01
     a64:	6e000004 	cdpvs	0, 0, cr0, cr0, cr4, {0}
     a68:	1c000002 	stcne	0, cr0, [r0], {2}
     a6c:	0000000d 	andeq	r0, r0, sp
     a70:	a2016e01 	andge	r6, r1, #1, 28
     a74:	01000000 	mrseq	r0, (UNDEF: 0)
     a78:	040d2051 	streq	r2, [sp], #-81	; 0x51
     a7c:	70010000 	andvc	r0, r1, r0
     a80:	00009701 	andeq	r9, r0, r1, lsl #14
     a84:	00028f00 	andeq	r8, r2, r0, lsl #30
     a88:	951e0000 	ldrls	r0, [lr, #-0]
     a8c:	01000003 	tsteq	r0, r3
     a90:	00a20188 	adceq	r0, r2, r8, lsl #3
     a94:	04c00000 	strbeq	r0, [r0], #0
     a98:	00060800 	andeq	r0, r6, r0, lsl #16
     a9c:	9c010000 	stcls	0, cr0, [r1], {-0}
     aa0:	000006af 	andeq	r0, r0, pc, lsr #13
     aa4:	00049b1f 	andeq	r9, r4, pc, lsl fp
     aa8:	01880100 	orreq	r0, r8, r0, lsl #2
     aac:	000004f9 	strdeq	r0, [r0], -r9
     ab0:	000002b9 			; <UNDEFINED> instruction: 0x000002b9
     ab4:	03e51b00 	mvneq	r1, #0, 22
     ab8:	9c010000 	stcls	0, cr0, [r1], {-0}
     abc:	0004c801 	andeq	ip, r4, r1, lsl #16
     ac0:	00000408 	andeq	r0, r0, r8, lsl #8
     ac4:	e29c0100 	adds	r0, ip, #0, 2
     ac8:	1c000006 	stcne	0, cr0, [r0], {6}
     acc:	0000049b 	muleq	r0, fp, r4
     ad0:	f9019c01 			; <UNDEFINED> instruction: 0xf9019c01
     ad4:	01000004 	tsteq	r0, r4
     ad8:	000d1c50 	andeq	r1, sp, r0, asr ip
     adc:	9c010000 	stcls	0, cr0, [r1], {-0}
     ae0:	0000a201 	andeq	sl, r0, r1, lsl #4
     ae4:	00510100 	subseq	r0, r1, r0, lsl #2
     ae8:	0003f21b 	andeq	pc, r3, fp, lsl r2	; <UNPREDICTABLE>
     aec:	01b10100 			; <UNDEFINED> instruction: 0x01b10100
     af0:	080004cc 	stmdaeq	r0, {r2, r3, r6, r7, sl}
     af4:	00000004 	andeq	r0, r0, r4
     af8:	07159c01 	ldreq	r9, [r5, -r1, lsl #24]
     afc:	9b1c0000 	blls	700b04 <_Min_Stack_Size+0x700704>
     b00:	01000004 	tsteq	r0, r4
     b04:	04f901b1 	ldrbteq	r0, [r9], #433	; 0x1b1
     b08:	50010000 	andpl	r0, r1, r0
     b0c:	00000d1c 	andeq	r0, r0, ip, lsl sp
     b10:	01b10100 			; <UNDEFINED> instruction: 0x01b10100
     b14:	000000a2 	andeq	r0, r0, r2, lsr #1
     b18:	1b005101 	blne	14f24 <_Min_Stack_Size+0x14b24>
     b1c:	000003d7 	ldrdeq	r0, [r0], -r7
     b20:	d001c701 	andle	ip, r1, r1, lsl #14
     b24:	0a080004 	beq	200b3c <_Min_Stack_Size+0x20073c>
     b28:	01000000 	mrseq	r0, (UNDEF: 0)
     b2c:	0007569c 	muleq	r7, ip, r6
     b30:	049b1c00 	ldreq	r1, [fp], #3072	; 0xc00
     b34:	c7010000 	strgt	r0, [r1, -r0]
     b38:	0004f901 	andeq	pc, r4, r1, lsl #18
     b3c:	1c500100 	ldfnee	f0, [r0], {-0}
     b40:	0000000d 	andeq	r0, r0, sp
     b44:	a201c701 	andge	ip, r1, #262144	; 0x40000
     b48:	01000000 	mrseq	r0, (UNDEF: 0)
     b4c:	03c61c51 	biceq	r1, r6, #20736	; 0x5100
     b50:	c7010000 	strgt	r0, [r1, -r0]
     b54:	00025b01 	andeq	r5, r2, r1, lsl #22
     b58:	00520100 	subseq	r0, r2, r0, lsl #2
     b5c:	0004901b 	andeq	r9, r4, fp, lsl r0
     b60:	01e00100 	mvneq	r0, r0, lsl #2
     b64:	080004dc 	stmdaeq	r0, {r2, r3, r4, r6, r7, sl}
     b68:	00000004 	andeq	r0, r0, r4
     b6c:	07899c01 	streq	r9, [r9, r1, lsl #24]
     b70:	9b1c0000 	blls	700b78 <_Min_Stack_Size+0x700778>
     b74:	01000004 	tsteq	r0, r4
     b78:	04f901e0 	ldrbteq	r0, [r9], #480	; 0x1e0
     b7c:	50010000 	andpl	r0, r1, r0
     b80:	00043e1c 	andeq	r3, r4, ip, lsl lr
     b84:	01e00100 	mvneq	r0, r0, lsl #2
     b88:	000000a2 	andeq	r0, r0, r2, lsr #1
     b8c:	1b005101 	blne	14f98 <_Min_Stack_Size+0x14b98>
     b90:	0000026c 	andeq	r0, r0, ip, ror #4
     b94:	e001f001 	and	pc, r1, r1
     b98:	08080004 	stmdaeq	r8, {r2}
     b9c:	01000000 	mrseq	r0, (UNDEF: 0)
     ba0:	0007be9c 	muleq	r7, ip, lr
     ba4:	049b1c00 	ldreq	r1, [fp], #3072	; 0xc00
     ba8:	f0010000 			; <UNDEFINED> instruction: 0xf0010000
     bac:	0004f901 	andeq	pc, r4, r1, lsl #18
     bb0:	1f500100 	svcne	0x00500100
     bb4:	0000000d 	andeq	r0, r0, sp
     bb8:	a201f001 	andge	pc, r1, #1
     bbc:	da000000 	ble	bc4 <_Min_Stack_Size+0x7c4>
     bc0:	00000002 	andeq	r0, r0, r2
     bc4:	0004a81b 	andeq	sl, r4, fp, lsl r8
     bc8:	02430100 	subeq	r0, r3, #0, 2
     bcc:	080004e8 	stmdaeq	r0, {r3, r5, r6, r7, sl}
     bd0:	00000028 	andeq	r0, r0, r8, lsr #32
     bd4:	08259c01 	stmdaeq	r5!, {r0, sl, fp, ip, pc}
     bd8:	9b1f0000 	blls	7c0be0 <_Min_Stack_Size+0x7c07e0>
     bdc:	01000004 	tsteq	r0, r4
     be0:	04f90243 	ldrbteq	r0, [r9], #579	; 0x243
     be4:	02fb0000 	rscseq	r0, fp, #0
     be8:	461f0000 	ldrmi	r0, [pc], -r0
     bec:	01000004 	tsteq	r0, r4
     bf0:	00a20243 	adceq	r0, r2, r3, asr #4
     bf4:	031c0000 	tsteq	ip, #0
     bf8:	a91f0000 	ldmdbge	pc, {}	; <UNPREDICTABLE>
     bfc:	01000003 	tsteq	r0, r3
     c00:	00970243 	addseq	r0, r7, r3, asr #4
     c04:	033d0000 	teqeq	sp, #0
     c08:	b1200000 			; <UNDEFINED> instruction: 0xb1200000
     c0c:	01000003 	tsteq	r0, r3
     c10:	00b80245 	adcseq	r0, r8, r5, asr #4
     c14:	035e0000 	cmpeq	lr, #0
     c18:	a1200000 			; <UNDEFINED> instruction: 0xa1200000
     c1c:	01000004 	tsteq	r0, r4
     c20:	00b80246 	adcseq	r0, r8, r6, asr #4
     c24:	03990000 	orrseq	r0, r9, #0
     c28:	21000000 	mrscs	r0, (UNDEF: 0)
     c2c:	0000024e 	andeq	r0, r0, lr, asr #4
     c30:	e406fa06 	str	pc, [r6], #-2566	; 0xa06
     c34:	22000000 	andcs	r0, r0, #0
     c38:	00000417 	andeq	r0, r0, r7, lsl r4
     c3c:	2303dd07 	movwcs	sp, #15623	; 0x3d07
     c40:	000000b8 	strheq	r0, [r0], -r8
     c44:	0000ff23 	andeq	pc, r0, r3, lsr #30
     c48:	f8000000 			; <UNDEFINED> instruction: 0xf8000000
     c4c:	0400000e 	streq	r0, [r0], #-14
     c50:	00036800 	andeq	r6, r3, r0, lsl #16
     c54:	ca010400 	bgt	41c5c <_Min_Stack_Size+0x4185c>
     c58:	01000002 	tsteq	r0, r2
     c5c:	000009e4 	andeq	r0, r0, r4, ror #19
     c60:	00000055 	andeq	r0, r0, r5, asr r0
     c64:	08000510 	stmdaeq	r0, {r4, r8, sl}
     c68:	00000558 	andeq	r0, r0, r8, asr r5
     c6c:	00000547 	andeq	r0, r0, r7, asr #10
     c70:	84060102 	strhi	r0, [r6], #-258	; 0x102
     c74:	03000001 	movweq	r0, #1
     c78:	00000149 	andeq	r0, r0, r9, asr #2
     c7c:	00371d02 	eorseq	r1, r7, r2, lsl #26
     c80:	01020000 	mrseq	r0, (UNDEF: 2)
     c84:	00018208 	andeq	r8, r1, r8, lsl #4
     c88:	05020200 	streq	r0, [r2, #-512]	; 0x200
     c8c:	00000034 	andeq	r0, r0, r4, lsr r0
     c90:	00009a03 	andeq	r9, r0, r3, lsl #20
     c94:	502b0200 	eorpl	r0, fp, r0, lsl #4
     c98:	02000000 	andeq	r0, r0, #0
     c9c:	01c20702 	biceq	r0, r2, r2, lsl #14
     ca0:	7c030000 	stcvc	0, cr0, [r3], {-0}
     ca4:	02000002 	andeq	r0, r0, #2
     ca8:	0000623f 	andeq	r6, r0, pc, lsr r2
     cac:	05040200 	streq	r0, [r4, #-512]	; 0x200
     cb0:	00000113 	andeq	r0, r0, r3, lsl r1
     cb4:	00016903 	andeq	r6, r1, r3, lsl #18
     cb8:	74410200 	strbvc	r0, [r1], #-512	; 0x200
     cbc:	02000000 	andeq	r0, r0, #0
     cc0:	019f0704 	orrseq	r0, pc, r4, lsl #14
     cc4:	08020000 	stmdaeq	r2, {}	; <UNPREDICTABLE>
     cc8:	00010e05 	andeq	r0, r1, r5, lsl #28
     ccc:	07080200 	streq	r0, [r8, -r0, lsl #4]
     cd0:	0000019a 	muleq	r0, sl, r1
     cd4:	69050404 	stmdbvs	r5, {r2, sl}
     cd8:	0200746e 	andeq	r7, r0, #1845493760	; 0x6e000000
     cdc:	01a40704 			; <UNDEFINED> instruction: 0x01a40704
     ce0:	4b030000 	blmi	c0ce8 <_Min_Stack_Size+0xc08e8>
     ce4:	03000001 	movweq	r0, #1
     ce8:	00002c14 	andeq	r2, r0, r4, lsl ip
     cec:	009c0300 	addseq	r0, ip, r0, lsl #6
     cf0:	1a030000 	bne	c0cf8 <_Min_Stack_Size+0xc08f8>
     cf4:	00000045 	andeq	r0, r0, r5, asr #32
     cf8:	00027e03 	andeq	r7, r2, r3, lsl #28
     cfc:	571f0300 	ldrpl	r0, [pc, -r0, lsl #6]
     d00:	03000000 	movweq	r0, #0
     d04:	0000016b 	andeq	r0, r0, fp, ror #2
     d08:	00692003 	rsbeq	r2, r9, r3
     d0c:	04020000 	streq	r0, [r2], #-0
     d10:	00003e07 	andeq	r3, r0, r7, lsl #28
     d14:	00b80500 	adcseq	r0, r8, r0, lsl #10
     d18:	b8060000 	stmdalt	r6, {}	; <UNPREDICTABLE>
     d1c:	df000000 	svcle	0x00000000
     d20:	07000000 	streq	r0, [r0, -r0]
     d24:	000000c3 	andeq	r0, r0, r3, asr #1
     d28:	ad050001 	stcge	0, cr0, [r5, #-4]
     d2c:	08000000 	stmdaeq	r0, {}	; <UNPREDICTABLE>
     d30:	03590401 	cmpeq	r9, #16777216	; 0x1000000
     d34:	000000fa 	strdeq	r0, [r0], -sl
     d38:	0003d109 	andeq	sp, r3, r9, lsl #2
     d3c:	530a0000 	movwpl	r0, #40960	; 0xa000
     d40:	01005445 	tsteq	r0, r5, asr #8
     d44:	0a470b00 	beq	11c394c <_Min_Stack_Size+0x11c354c>
     d48:	59040000 	stmdbpl	r4, {}	; <UNPREDICTABLE>
     d4c:	0000e403 	andeq	lr, r0, r3, lsl #8
     d50:	0bc20b00 	bleq	ff083958 <_estack+0xdf063959>
     d54:	59040000 	stmdbpl	r4, {}	; <UNPREDICTABLE>
     d58:	0000e403 	andeq	lr, r0, r3, lsl #8
     d5c:	04010800 	streq	r0, [r1], #-2048	; 0x800
     d60:	0128035b 			; <UNDEFINED> instruction: 0x0128035b
     d64:	fc090000 	stc2	0, cr0, [r9], {-0}
     d68:	00000001 	andeq	r0, r0, r1
     d6c:	0000cc09 	andeq	ip, r0, r9, lsl #24
     d70:	0b000100 	bleq	1178 <_Min_Stack_Size+0xd78>
     d74:	000002b4 			; <UNDEFINED> instruction: 0x000002b4
     d78:	12035b04 	andne	r5, r3, #4, 22	; 0x1000
     d7c:	08000001 	stmdaeq	r0, {r0}
     d80:	035e0401 	cmpeq	lr, #16777216	; 0x1000000
     d84:	0000014a 	andeq	r0, r0, sl, asr #2
     d88:	0008eb09 	andeq	lr, r8, r9, lsl #22
     d8c:	a1090000 	mrsge	r0, (UNDEF: 9)
     d90:	0100000c 	tsteq	r0, ip
     d94:	07430b00 	strbeq	r0, [r3, -r0, lsl #22]
     d98:	5e040000 	cdppl	0, 0, cr0, cr4, cr0, {0}
     d9c:	00013403 	andeq	r3, r1, r3, lsl #8
     da0:	04980c00 	ldreq	r0, [r8], #3072	; 0xc00
     da4:	03190660 	tsteq	r9, #96, 12	; 0x6000000
     da8:	430d0000 	movwmi	r0, #53248	; 0xd000
     dac:	62040052 	andvs	r0, r4, #82	; 0x52
     db0:	0000ca06 	andeq	ip, r0, r6, lsl #20
     db4:	210e0000 	mrscs	r0, (UNDEF: 14)
     db8:	04000007 	streq	r0, [r0], #-7
     dbc:	00ca0663 	sbceq	r0, sl, r3, ror #12
     dc0:	0e040000 	cdpeq	0, 0, cr0, cr4, cr0, {0}
     dc4:	00000999 	muleq	r0, r9, r9
     dc8:	ca066404 	bgt	199de0 <_Min_Stack_Size+0x1999e0>
     dcc:	08000000 	stmdaeq	r0, {}	; <UNPREDICTABLE>
     dd0:	5249430d 	subpl	r4, r9, #872415232	; 0x34000000
     dd4:	06650400 	strbteq	r0, [r5], -r0, lsl #8
     dd8:	000000ca 	andeq	r0, r0, sl, asr #1
     ddc:	065a0e0c 	ldrbeq	r0, [sl], -ip, lsl #28
     de0:	66040000 	strvs	r0, [r4], -r0
     de4:	0000ca06 	andeq	ip, r0, r6, lsl #20
     de8:	9f0e1000 	svcls	0x000e1000
     dec:	0400000b 	streq	r0, [r0], #-11
     df0:	00ca0667 	sbceq	r0, sl, r7, ror #12
     df4:	0e140000 	cdpeq	0, 1, cr0, cr4, cr0, {0}
     df8:	00000ab6 			; <UNDEFINED> instruction: 0x00000ab6
     dfc:	ca066804 	bgt	19ae14 <_Min_Stack_Size+0x19aa14>
     e00:	18000000 	stmdane	r0, {}	; <UNPREDICTABLE>
     e04:	00099e0e 	andeq	r9, r9, lr, lsl #28
     e08:	06690400 	strbteq	r0, [r9], -r0, lsl #8
     e0c:	000000b8 	strheq	r0, [r0], -r8
     e10:	0c5b0e1c 	mrrceq	14, 1, r0, fp, cr12
     e14:	6a040000 	bvs	100e1c <_Min_Stack_Size+0x100a1c>
     e18:	0000ca06 	andeq	ip, r0, r6, lsl #20
     e1c:	9a0e2000 	bls	388e24 <_Min_Stack_Size+0x388a24>
     e20:	04000006 	streq	r0, [r0], #-6
     e24:	00ca066b 	sbceq	r0, sl, fp, ror #12
     e28:	0e240000 	cdpeq	0, 2, cr0, cr4, cr0, {0}
     e2c:	000009a8 	andeq	r0, r0, r8, lsr #19
     e30:	cf066c04 	svcgt	0x00066c04
     e34:	28000000 	stmdacs	r0, {}	; <UNPREDICTABLE>
     e38:	000cc90e 	andeq	ip, ip, lr, lsl #18
     e3c:	066d0400 	strbteq	r0, [sp], -r0, lsl #8
     e40:	000000ca 	andeq	r0, r0, sl, asr #1
     e44:	0bd30e30 	bleq	ff4c470c <_estack+0xdf4a470d>
     e48:	6e040000 	cdpvs	0, 0, cr0, cr4, cr0, {0}
     e4c:	0000ca06 	andeq	ip, r0, r6, lsl #20
     e50:	2c0e3400 	cfstrscs	mvf3, [lr], {-0}
     e54:	04000009 	streq	r0, [r0], #-9
     e58:	00ca066f 	sbceq	r0, sl, pc, ror #12
     e5c:	0e380000 	cdpeq	0, 3, cr0, cr8, cr0, {0}
     e60:	000009b2 			; <UNDEFINED> instruction: 0x000009b2
     e64:	b8067004 	stmdalt	r6, {r2, ip, sp, lr}
     e68:	3c000000 	stccc	0, cr0, [r0], {-0}
     e6c:	000bcb0e 	andeq	ip, fp, lr, lsl #22
     e70:	06710400 	ldrbteq	r0, [r1], -r0, lsl #8
     e74:	000000ca 	andeq	r0, r0, sl, asr #1
     e78:	0aae0e40 	beq	feb84780 <_estack+0xdeb64781>
     e7c:	72040000 	andvc	r0, r4, #0
     e80:	0000ca06 	andeq	ip, r0, r6, lsl #20
     e84:	bc0e4400 	cfstrslt	mvf4, [lr], {-0}
     e88:	04000009 	streq	r0, [r0], #-9
     e8c:	00cf0673 	sbceq	r0, pc, r3, ror r6	; <UNPREDICTABLE>
     e90:	0e480000 	cdpeq	0, 4, cr0, cr8, cr0, {0}
     e94:	00000612 	andeq	r0, r0, r2, lsl r6
     e98:	ca067404 	bgt	19deb0 <_Min_Stack_Size+0x19dab0>
     e9c:	50000000 	andpl	r0, r0, r0
     ea0:	0009460e 	andeq	r4, r9, lr, lsl #12
     ea4:	06750400 	ldrbteq	r0, [r5], -r0, lsl #8
     ea8:	000000ca 	andeq	r0, r0, sl, asr #1
     eac:	0c510e54 	mrrceq	14, 5, r0, r1, cr4
     eb0:	76040000 	strvc	r0, [r4], -r0
     eb4:	0000ca06 	andeq	ip, r0, r6, lsl #20
     eb8:	c60e5800 	strgt	r5, [lr], -r0, lsl #16
     ebc:	04000009 	streq	r0, [r0], #-9
     ec0:	00b80677 	adcseq	r0, r8, r7, ror r6
     ec4:	0e5c0000 	cdpeq	0, 5, cr0, cr12, cr0, {0}
     ec8:	0000053e 	andeq	r0, r0, lr, lsr r5
     ecc:	ca067804 	bgt	19eee4 <_Min_Stack_Size+0x19eae4>
     ed0:	60000000 	andvs	r0, r0, r0
     ed4:	00089e0e 	andeq	r9, r8, lr, lsl #28
     ed8:	06790400 	ldrbteq	r0, [r9], -r0, lsl #8
     edc:	000000ca 	andeq	r0, r0, sl, asr #1
     ee0:	09d00e64 	ldmibeq	r0, {r2, r5, r6, r9, sl, fp}^
     ee4:	7a040000 	bvc	100eec <_Min_Stack_Size+0x100aec>
     ee8:	0000cf06 	andeq	ip, r0, r6, lsl #30
     eec:	780e6800 	stmdavc	lr, {fp, sp, lr}
     ef0:	0400000c 	streq	r0, [r0], #-12
     ef4:	00ca067b 	sbceq	r0, sl, fp, ror r6
     ef8:	0d700000 	ldcleq	0, cr0, [r0, #-0]
     efc:	00525343 	subseq	r5, r2, r3, asr #6
     f00:	ca067c04 	bgt	19ff18 <_Min_Stack_Size+0x19fb18>
     f04:	74000000 	strvc	r0, [r0], #-0
     f08:	0009da0e 	andeq	sp, r9, lr, lsl #20
     f0c:	067d0400 	ldrbteq	r0, [sp], -r0, lsl #8
     f10:	000000cf 	andeq	r0, r0, pc, asr #1
     f14:	0c4b0e78 	mcrreq	14, 7, r0, fp, cr8
     f18:	7e040000 	cdpvc	0, 0, cr0, cr4, cr0, {0}
     f1c:	0000ca06 	andeq	ip, r0, r6, lsl #20
     f20:	4b0e8000 	blmi	3a0f28 <_Min_Stack_Size+0x3a0b28>
     f24:	04000008 	streq	r0, [r0], #-8
     f28:	00ca067f 	sbceq	r0, sl, pc, ror r6
     f2c:	0e840000 	cdpeq	0, 8, cr0, cr4, cr0, {0}
     f30:	00000993 	muleq	r0, r3, r9
     f34:	ca068004 	bgt	1a0f4c <_Min_Stack_Size+0x1a0b4c>
     f38:	88000000 	stmdahi	r0, {}	; <UNPREDICTABLE>
     f3c:	0006440e 	andeq	r4, r6, lr, lsl #8
     f40:	06810400 	streq	r0, [r1], r0, lsl #8
     f44:	000000ca 	andeq	r0, r0, sl, asr #1
     f48:	0c6f0e8c 	stcleq	14, cr0, [pc], #-560	; d20 <_Min_Stack_Size+0x920>
     f4c:	82040000 	andhi	r0, r4, #0
     f50:	0000ca06 	andeq	ip, r0, r6, lsl #20
     f54:	630e9000 	movwvs	r9, #57344	; 0xe000
     f58:	04000006 	streq	r0, [r0], #-6
     f5c:	00ca0683 	sbceq	r0, sl, r3, lsl #13
     f60:	00940000 	addseq	r0, r4, r0
     f64:	0007e50b 	andeq	lr, r7, fp, lsl #10
     f68:	06850400 	streq	r0, [r5], r0, lsl #8
     f6c:	00000156 	andeq	r0, r0, r6, asr r1
     f70:	3005100f 	andcc	r1, r5, pc
     f74:	0000035e 	andeq	r0, r0, lr, asr r3
     f78:	00057e10 	andeq	r7, r5, r0, lsl lr
     f7c:	b8320500 	ldmdalt	r2!, {r8, sl}
     f80:	00000000 	andeq	r0, r0, r0
     f84:	00078710 	andeq	r8, r7, r0, lsl r7
     f88:	b8330500 	ldmdalt	r3!, {r8, sl}
     f8c:	04000000 	streq	r0, [r0], #-0
     f90:	000b2510 	andeq	r2, fp, r0, lsl r5
     f94:	b8340500 	ldmdalt	r4!, {r8, sl}
     f98:	08000000 	stmdaeq	r0, {}	; <UNPREDICTABLE>
     f9c:	00067310 	andeq	r7, r6, r0, lsl r3
     fa0:	b8350500 	ldmdalt	r5!, {r8, sl}
     fa4:	0c000000 	stceq	0, cr0, [r0], {-0}
     fa8:	0cb70300 	ldceq	3, cr0, [r7]
     fac:	36050000 	strcc	r0, [r5], -r0
     fb0:	00000325 	andeq	r0, r0, r5, lsr #6
     fb4:	000a4011 	andeq	r4, sl, r1, lsl r0
     fb8:	0bfb0100 	bleq	ffec13c0 <_estack+0xdfea13c1>
     fbc:	000000fa 	strdeq	r0, [r0], -sl
     fc0:	0003ab01 	andeq	sl, r3, r1, lsl #22
     fc4:	070f1200 	streq	r1, [pc, -r0, lsl #4]
     fc8:	fb010000 	blx	40fd2 <_Min_Stack_Size+0x40bd2>
     fcc:	0000970b 	andeq	r9, r0, fp, lsl #14
     fd0:	6d741300 	ldclvs	3, cr1, [r4, #-0]
     fd4:	fd010070 	stc2	0, cr0, [r1, #-448]	; 0xfffffe40
     fd8:	0000b80b 	andeq	fp, r0, fp, lsl #16
     fdc:	05741400 	ldrbeq	r1, [r4, #-1024]!	; 0x400
     fe0:	fe010000 	cdp2	0, 0, cr0, cr1, cr0, {0}
     fe4:	0000b80b 	andeq	fp, r0, fp, lsl #16
     fe8:	040d1400 	streq	r1, [sp], #-1024	; 0x400
     fec:	ff010000 			; <UNDEFINED> instruction: 0xff010000
     ff0:	0000fa0b 	andeq	pc, r0, fp, lsl #20
     ff4:	a8150000 	ldmdage	r5, {}	; <UNPREDICTABLE>
     ff8:	0100000b 	tsteq	r0, fp
     ffc:	000510e1 	andeq	r1, r5, r1, ror #1
    1000:	00005008 	andeq	r5, r0, r8
    1004:	169c0100 	ldrne	r0, [ip], r0, lsl #2
    1008:	00000a52 	andeq	r0, r0, r2, asr sl
    100c:	60011c01 	andvs	r1, r1, r1, lsl #24
    1010:	10080005 	andne	r0, r8, r5
    1014:	01000000 	mrseq	r0, (UNDEF: 0)
    1018:	0003e19c 	muleq	r3, ip, r1
    101c:	0b1d1700 	bleq	746c24 <_Min_Stack_Size+0x746824>
    1020:	1c010000 	stcne	0, cr0, [r1], {-0}
    1024:	00009701 	andeq	r9, r0, r1, lsl #14
    1028:	00500100 	subseq	r0, r0, r0, lsl #2
    102c:	00077118 	andeq	r7, r7, r8, lsl r1
    1030:	01340100 	teqeq	r4, r0, lsl #2
    1034:	0000014a 	andeq	r0, r0, sl, asr #2
    1038:	08000570 	stmdaeq	r0, {r4, r5, r6, r8, sl}
    103c:	00000034 	andeq	r0, r0, r4, lsr r0
    1040:	049d9c01 	ldreq	r9, [sp], #3073	; 0xc01
    1044:	f8190000 			; <UNDEFINED> instruction: 0xf8190000
    1048:	0100000b 	tsteq	r0, fp
    104c:	00ca0136 	sbceq	r0, sl, r6, lsr r1
    1050:	91020000 	mrsls	r0, (UNDEF: 2)
    1054:	0b671a7c 	bleq	19c7a4c <_Min_Stack_Size+0x19c764c>
    1058:	37010000 	strcc	r0, [r1, -r0]
    105c:	00014a01 	andeq	r4, r1, r1, lsl #20
    1060:	0003b800 	andeq	fp, r3, r0, lsl #16
    1064:	0b641a00 	bleq	190786c <_Min_Stack_Size+0x190746c>
    1068:	38010000 	stmdacc	r1, {}	; <UNPREDICTABLE>
    106c:	0000fa01 	andeq	pc, r0, r1, lsl #20
    1070:	0003dd00 	andeq	sp, r3, r0, lsl #26
    1074:	03691b00 	cmneq	r9, #0, 22
    1078:	05740000 	ldrbeq	r0, [r4, #-0]!
    107c:	00100800 	andseq	r0, r0, r0, lsl #16
    1080:	3c010000 	stccc	0, cr0, [r1], {-0}
    1084:	00046301 	andeq	r6, r4, r1, lsl #6
    1088:	037a1c00 	cmneq	sl, #0, 24
    108c:	1d310000 	ldcne	0, cr0, [r1, #-0]
    1090:	00000010 	andeq	r0, r0, r0, lsl r0
    1094:	0003861e 	andeq	r8, r3, lr, lsl r6
    1098:	0003f100 	andeq	pc, r3, r0, lsl #2
    109c:	03921e00 	orrseq	r1, r2, #0, 28
    10a0:	041d0000 	ldreq	r0, [sp], #-0
    10a4:	9e1f0000 	cdpls	0, 1, cr0, cr15, cr0, {0}
    10a8:	00000003 	andeq	r0, r0, r3
    10ac:	69200000 	stmdbvs	r0!, {}	; <UNPREDICTABLE>
    10b0:	92000003 	andls	r0, r0, #3
    10b4:	04080005 	streq	r0, [r8], #-5
    10b8:	01000000 	mrseq	r0, (UNDEF: 0)
    10bc:	7a1c0140 	bvc	7015c4 <_Min_Stack_Size+0x7011c4>
    10c0:	31000003 	tstcc	r0, r3
    10c4:	00059221 	andeq	r9, r5, r1, lsr #4
    10c8:	00000408 	andeq	r0, r0, r8, lsl #8
    10cc:	03861e00 	orreq	r1, r6, #0, 28
    10d0:	043c0000 	ldrteq	r0, [ip], #-0
    10d4:	921e0000 	andsls	r0, lr, #0
    10d8:	5c000003 	stcpl	0, cr0, [r0], {3}
    10dc:	1f000004 	svcne	0x00000004
    10e0:	0000039e 	muleq	r0, lr, r3
    10e4:	00000000 	andeq	r0, r0, r0
    10e8:	000b4616 	andeq	r4, fp, r6, lsl r6
    10ec:	01530100 	cmpeq	r3, r0, lsl #2
    10f0:	080005a4 	stmdaeq	r0, {r2, r5, r7, r8, sl}
    10f4:	00000014 	andeq	r0, r0, r4, lsl r0
    10f8:	04d49c01 	ldrbeq	r9, [r4], #3073	; 0xc01
    10fc:	50220000 	eorpl	r0, r2, r0
    1100:	0100000b 	tsteq	r0, fp
    1104:	00970153 	addseq	r0, r7, r3, asr r1
    1108:	047b0000 	ldrbteq	r0, [fp], #-0
    110c:	6c1a0000 	ldcvs	0, cr0, [sl], {-0}
    1110:	01000006 	tsteq	r0, r6
    1114:	00b80155 	adcseq	r0, r8, r5, asr r1
    1118:	049c0000 	ldreq	r0, [ip], #0
    111c:	16000000 	strne	r0, [r0], -r0
    1120:	00000884 	andeq	r0, r0, r4, lsl #17
    1124:	b8017701 	stmdalt	r1, {r0, r8, r9, sl, ip, sp, lr}
    1128:	0c080005 	stceq	0, cr0, [r8], {5}
    112c:	01000000 	mrseq	r0, (UNDEF: 0)
    1130:	0004f99c 	muleq	r4, ip, r9
    1134:	07181700 	ldreq	r1, [r8, -r0, lsl #14]
    1138:	77010000 	strvc	r0, [r1, -r0]
    113c:	00012801 	andeq	r2, r1, r1, lsl #16
    1140:	00500100 	subseq	r0, r0, r0, lsl #2
    1144:	00070116 	andeq	r0, r7, r6, lsl r1
    1148:	01900100 	orrseq	r0, r0, r0, lsl #2
    114c:	080005c4 	stmdaeq	r0, {r2, r6, r7, r8, sl}
    1150:	00000020 	andeq	r0, r0, r0, lsr #32
    1154:	051e9c01 	ldreq	r9, [lr, #-3073]	; 0xc01
    1158:	36170000 	ldrcc	r0, [r7], -r0
    115c:	01000005 	tsteq	r0, r5
    1160:	00970190 	umullseq	r0, r7, r0, r1
    1164:	50010000 	andpl	r0, r1, r0
    1168:	0c641600 	stcleq	6, cr1, [r4], #-0
    116c:	b8010000 	stmdalt	r1, {}	; <UNPREDICTABLE>
    1170:	0005e401 	andeq	lr, r5, r1, lsl #8
    1174:	00000c08 	andeq	r0, r0, r8, lsl #24
    1178:	439c0100 	orrsmi	r0, ip, #0, 2
    117c:	17000005 	strne	r0, [r0, -r5]
    1180:	00000718 	andeq	r0, r0, r8, lsl r7
    1184:	2801b801 	stmdacs	r1, {r0, fp, ip, sp, pc}
    1188:	01000001 	tsteq	r0, r1
    118c:	a9160050 	ldmdbge	r6, {r4, r6}
    1190:	0100000c 	tsteq	r0, ip
    1194:	05f0021b 	ldrbeq	r0, [r0, #539]!	; 0x21b
    1198:	00240800 	eoreq	r0, r4, r0, lsl #16
    119c:	9c010000 	stcls	0, cr0, [r1], {-0}
    11a0:	000005aa 	andeq	r0, r0, sl, lsr #11
    11a4:	00074f22 	andeq	r4, r7, r2, lsr #30
    11a8:	021b0100 	andseq	r0, fp, #0, 2
    11ac:	000000b8 	strheq	r0, [r0], -r8
    11b0:	000004c6 	andeq	r0, r0, r6, asr #9
    11b4:	0005fe22 	andeq	pc, r5, r2, lsr #28
    11b8:	021b0100 	andseq	r0, fp, #0, 2
    11bc:	000000b8 	strheq	r0, [r0], -r8
    11c0:	000004e7 	andeq	r0, r0, r7, ror #9
    11c4:	0005bf22 	andeq	fp, r5, r2, lsr #30
    11c8:	021b0100 	andseq	r0, fp, #0, 2
    11cc:	000000b8 	strheq	r0, [r0], -r8
    11d0:	00000508 	andeq	r0, r0, r8, lsl #10
    11d4:	0005de22 	andeq	sp, r5, r2, lsr #28
    11d8:	021b0100 	andseq	r0, fp, #0, 2
    11dc:	000000b8 	strheq	r0, [r0], -r8
    11e0:	00000529 	andeq	r0, r0, r9, lsr #10
    11e4:	0005e322 	andeq	lr, r5, r2, lsr #6
    11e8:	021b0100 	andseq	r0, fp, #0, 2
    11ec:	000000b8 	strheq	r0, [r0], -r8
    11f0:	0000054a 	andeq	r0, r0, sl, asr #10
    11f4:	0aa31600 	beq	fe8c69fc <_estack+0xde8a69fd>
    11f8:	33010000 	movwcc	r0, #4096	; 0x1000
    11fc:	00061402 	andeq	r1, r6, r2, lsl #8
    1200:	00000c08 	andeq	r0, r0, r8, lsl #24
    1204:	cf9c0100 	svcgt	0x009c0100
    1208:	17000005 	strne	r0, [r0, -r5]
    120c:	00000718 	andeq	r0, r0, r8, lsl r7
    1210:	28023301 	stmdacs	r2, {r0, r8, r9, ip, sp}
    1214:	01000001 	tsteq	r0, r1
    1218:	73160050 	tstvc	r6, #80	; 0x50
    121c:	01000008 	tsteq	r0, r8
    1220:	06200251 			; <UNDEFINED> instruction: 0x06200251
    1224:	00140800 	andseq	r0, r4, r0, lsl #16
    1228:	9c010000 	stcls	0, cr0, [r1], {-0}
    122c:	00000606 	andeq	r0, r0, r6, lsl #12
    1230:	000b6e22 	andeq	r6, fp, r2, lsr #28
    1234:	02510100 	subseq	r0, r1, #0, 2
    1238:	000000b8 	strheq	r0, [r0], -r8
    123c:	0000055e 	andeq	r0, r0, lr, asr r5
    1240:	000bb322 	andeq	fp, fp, r2, lsr #6
    1244:	02510100 	subseq	r0, r1, #0, 2
    1248:	000000b8 	strheq	r0, [r0], -r8
    124c:	0000057f 	andeq	r0, r0, pc, ror r5
    1250:	07d71600 	ldrbeq	r1, [r7, r0, lsl #12]
    1254:	dc010000 	stcle	0, cr0, [r1], {-0}
    1258:	00063402 	andeq	r3, r6, r2, lsl #8
    125c:	00000c08 	andeq	r0, r0, r8, lsl #24
    1260:	2b9c0100 	blcs	fe701668 <_estack+0xde6e1669>
    1264:	17000006 	strne	r0, [r0, -r6]
    1268:	00000718 	andeq	r0, r0, r8, lsl r7
    126c:	2802dc01 	stmdacs	r2, {r0, sl, fp, ip, lr, pc}
    1270:	01000001 	tsteq	r0, r1
    1274:	1b160050 	blne	5813bc <_Min_Stack_Size+0x580fbc>
    1278:	01000009 	tsteq	r0, r9
    127c:	06400349 	strbeq	r0, [r0], -r9, asr #6
    1280:	00180800 	andseq	r0, r8, r0, lsl #16
    1284:	9c010000 	stcls	0, cr0, [r1], {-0}
    1288:	00000672 	andeq	r0, r0, r2, ror r6
    128c:	000a7722 	andeq	r7, sl, r2, lsr #14
    1290:	03490100 	movteq	r0, #37120	; 0x9100
    1294:	000000b8 	strheq	r0, [r0], -r8
    1298:	000005a0 	andeq	r0, r0, r0, lsr #11
    129c:	000a7f22 	andeq	r7, sl, r2, lsr #30
    12a0:	03490100 	movteq	r0, #37120	; 0x9100
    12a4:	000000b8 	strheq	r0, [r0], -r8
    12a8:	000005c1 	andeq	r0, r0, r1, asr #11
    12ac:	000a8722 	andeq	r8, sl, r2, lsr #14
    12b0:	03490100 	movteq	r0, #37120	; 0x9100
    12b4:	000000b8 	strheq	r0, [r0], -r8
    12b8:	000005e2 	andeq	r0, r0, r2, ror #11
    12bc:	05481600 	strbeq	r1, [r8, #-1536]	; 0x600
    12c0:	5d010000 	stcpl	0, cr0, [r1, #-0]
    12c4:	00065803 	andeq	r5, r6, r3, lsl #16
    12c8:	00000c08 	andeq	r0, r0, r8, lsl #24
    12cc:	979c0100 	ldrls	r0, [ip, r0, lsl #2]
    12d0:	17000006 	strne	r0, [r0, -r6]
    12d4:	00000718 	andeq	r0, r0, r8, lsl r7
    12d8:	28035d01 	stmdacs	r3, {r0, r8, sl, fp, ip, lr}
    12dc:	01000001 	tsteq	r0, r1
    12e0:	f1160050 			; <UNDEFINED> instruction: 0xf1160050
    12e4:	01000008 	tsteq	r0, r8
    12e8:	0664036f 	strbteq	r0, [r4], -pc, ror #6
    12ec:	000c0800 	andeq	r0, ip, r0, lsl #16
    12f0:	9c010000 	stcls	0, cr0, [r1], {-0}
    12f4:	000006bc 			; <UNDEFINED> instruction: 0x000006bc
    12f8:	00071817 	andeq	r1, r7, r7, lsl r8
    12fc:	036f0100 	cmneq	pc, #0, 2
    1300:	00000128 	andeq	r0, r0, r8, lsr #2
    1304:	16005001 	strne	r5, [r0], -r1
    1308:	000007bd 			; <UNDEFINED> instruction: 0x000007bd
    130c:	70038801 	andvc	r8, r3, r1, lsl #16
    1310:	14080006 	strne	r0, [r8], #-6
    1314:	01000000 	mrseq	r0, (UNDEF: 0)
    1318:	0007039c 	muleq	r7, ip, r3
    131c:	05992200 	ldreq	r2, [r9, #512]	; 0x200
    1320:	88010000 	stmdahi	r1, {}	; <UNPREDICTABLE>
    1324:	0000b803 	andeq	fp, r0, r3, lsl #16
    1328:	00060300 	andeq	r0, r6, r0, lsl #6
    132c:	09502200 	ldmdbeq	r0, {r9, sp}^
    1330:	88010000 	stmdahi	r1, {}	; <UNPREDICTABLE>
    1334:	0000b803 	andeq	fp, r0, r3, lsl #16
    1338:	00062400 	andeq	r2, r6, r0, lsl #8
    133c:	066c1a00 	strbteq	r1, [ip], -r0, lsl #20
    1340:	8a010000 	bhi	41348 <_Min_Stack_Size+0x40f48>
    1344:	0000b803 	andeq	fp, r0, r3, lsl #16
    1348:	00064500 	andeq	r4, r6, r0, lsl #10
    134c:	3c160000 	ldccc	0, cr0, [r6], {-0}
    1350:	0100000c 	tsteq	r0, ip
    1354:	068403b5 			; <UNDEFINED> instruction: 0x068403b5
    1358:	00140800 	andseq	r0, r4, r0, lsl #16
    135c:	9c010000 	stcls	0, cr0, [r1], {-0}
    1360:	0000074a 	andeq	r0, r0, sl, asr #14
    1364:	00097322 	andeq	r7, r9, r2, lsr #6
    1368:	03b50100 			; <UNDEFINED> instruction: 0x03b50100
    136c:	000000b8 	strheq	r0, [r0], -r8
    1370:	00000682 	andeq	r0, r0, r2, lsl #13
    1374:	0008b722 	andeq	fp, r8, r2, lsr #14
    1378:	03b50100 			; <UNDEFINED> instruction: 0x03b50100
    137c:	000000b8 	strheq	r0, [r0], -r8
    1380:	000006a3 	andeq	r0, r0, r3, lsr #13
    1384:	00066c1a 	andeq	r6, r6, sl, lsl ip
    1388:	03b70100 			; <UNDEFINED> instruction: 0x03b70100
    138c:	000000b8 	strheq	r0, [r0], -r8
    1390:	000006c4 	andeq	r0, r0, r4, asr #13
    1394:	06f01600 	ldrbteq	r1, [r0], r0, lsl #12
    1398:	7d010000 	stcvc	0, cr0, [r1, #-0]
    139c:	00069804 	andeq	r9, r6, r4, lsl #16
    13a0:	00001408 	andeq	r1, r0, r8, lsl #8
    13a4:	819c0100 	orrshi	r0, ip, r0, lsl #2
    13a8:	22000007 	andcs	r0, r0, #7
    13ac:	00000b0c 	andeq	r0, r0, ip, lsl #22
    13b0:	b8047d01 	stmdalt	r4, {r0, r8, sl, fp, ip, sp, lr}
    13b4:	01000000 	mrseq	r0, (UNDEF: 0)
    13b8:	1a000007 	bne	13dc <_Min_Stack_Size+0xfdc>
    13bc:	0000066c 	andeq	r0, r0, ip, ror #12
    13c0:	b8047f01 	stmdalt	r4, {r0, r8, r9, sl, fp, ip, sp, lr}
    13c4:	22000000 	andcs	r0, r0, #0
    13c8:	00000007 	andeq	r0, r0, r7
    13cc:	00075d23 	andeq	r5, r7, r3, lsr #26
    13d0:	049a0100 	ldreq	r0, [sl], #256	; 0x100
    13d4:	00000097 	muleq	r0, r7, r0
    13d8:	080006ac 	stmdaeq	r0, {r2, r3, r5, r7, r9, sl}
    13dc:	00000010 	andeq	r0, r0, r0, lsl r0
    13e0:	e1169c01 	tst	r6, r1, lsl #24
    13e4:	01000006 	tsteq	r0, r6
    13e8:	06bc04b3 			; <UNDEFINED> instruction: 0x06bc04b3
    13ec:	00140800 	andseq	r0, r4, r0, lsl #16
    13f0:	9c010000 	stcls	0, cr0, [r1], {-0}
    13f4:	000007ce 	andeq	r0, r0, lr, asr #15
    13f8:	0007cc22 	andeq	ip, r7, r2, lsr #24
    13fc:	04b30100 	ldrteq	r0, [r3], #256	; 0x100
    1400:	000000b8 	strheq	r0, [r0], -r8
    1404:	0000074c 	andeq	r0, r0, ip, asr #14
    1408:	00066c1a 	andeq	r6, r6, sl, lsl ip
    140c:	04b50100 	ldrteq	r0, [r5], #256	; 0x100
    1410:	000000b8 	strheq	r0, [r0], -r8
    1414:	0000076d 	andeq	r0, r0, sp, ror #14
    1418:	06a31600 	strteq	r1, [r3], r0, lsl #12
    141c:	d2010000 	andle	r0, r1, #0
    1420:	0006d004 	andeq	sp, r6, r4
    1424:	00001408 	andeq	r1, r0, r8, lsl #8
    1428:	059c0100 	ldreq	r0, [ip, #256]	; 0x100
    142c:	22000008 	andcs	r0, r0, #8
    1430:	0000052d 	andeq	r0, r0, sp, lsr #10
    1434:	b804d201 	stmdalt	r4, {r0, r9, ip, lr, pc}
    1438:	97000000 	strls	r0, [r0, -r0]
    143c:	1a000007 	bne	1460 <_Min_Stack_Size+0x1060>
    1440:	0000066c 	andeq	r0, r0, ip, ror #12
    1444:	b804d401 	stmdalt	r4, {r0, sl, ip, lr, pc}
    1448:	b8000000 	stmdalt	r0, {}	; <UNPREDICTABLE>
    144c:	00000007 	andeq	r0, r0, r7
    1450:	000afc16 	andeq	pc, sl, r6, lsl ip	; <UNPREDICTABLE>
    1454:	04f10100 	ldrbteq	r0, [r1], #256	; 0x100
    1458:	080006e4 	stmdaeq	r0, {r2, r5, r6, r7, r9, sl}
    145c:	00000014 	andeq	r0, r0, r4, lsl r0
    1460:	083c9c01 	ldmdaeq	ip!, {r0, sl, fp, ip, pc}
    1464:	2d220000 	stccs	0, cr0, [r2, #-0]
    1468:	01000005 	tsteq	r0, r5
    146c:	00b804f1 	ldrshteq	r0, [r8], r1
    1470:	07e20000 	strbeq	r0, [r2, r0]!
    1474:	6c1a0000 	ldcvs	0, cr0, [sl], {-0}
    1478:	01000006 	tsteq	r0, r6
    147c:	00b804f3 	ldrshteq	r0, [r8], r3
    1480:	08030000 	stmdaeq	r3, {}	; <UNPREDICTABLE>
    1484:	16000000 	strne	r0, [r0], -r0
    1488:	00000b76 	andeq	r0, r0, r6, ror fp
    148c:	f8052501 			; <UNDEFINED> instruction: 0xf8052501
    1490:	98080006 	stmdals	r8, {r1, r2}
    1494:	01000000 	mrseq	r0, (UNDEF: 0)
    1498:	0008c19c 	muleq	r8, ip, r1
    149c:	061c1700 	ldreq	r1, [ip], -r0, lsl #14
    14a0:	25010000 	strcs	r0, [r1, #-0]
    14a4:	0008c105 	andeq	ip, r8, r5, lsl #2
    14a8:	24500100 	ldrbcs	r0, [r0], #-256	; 0x100
    14ac:	00706d74 	rsbseq	r6, r0, r4, ror sp
    14b0:	b8052701 	stmdalt	r5, {r0, r8, r9, sl, sp}
    14b4:	2d000000 	stccs	0, cr0, [r0, #-0]
    14b8:	1a000008 	bne	14e0 <_Min_Stack_Size+0x10e0>
    14bc:	000007f1 	strdeq	r0, [r0], -r1
    14c0:	b8052701 	stmdalt	r5, {r0, r8, r9, sl, sp}
    14c4:	c4000000 	strgt	r0, [r0], #-0
    14c8:	1a000008 	bne	14f0 <_Min_Stack_Size+0x10f0>
    14cc:	000007a5 	andeq	r0, r0, r5, lsr #15
    14d0:	b8052701 	stmdalt	r5, {r0, r8, r9, sl, sp}
    14d4:	05000000 	streq	r0, [r0, #-0]
    14d8:	1a000009 	bne	1504 <_Min_Stack_Size+0x1104>
    14dc:	00000594 	muleq	r0, r4, r5
    14e0:	b8052701 	stmdalt	r5, {r0, r8, r9, sl, sp}
    14e4:	30000000 	andcc	r0, r0, r0
    14e8:	1a000009 	bne	1514 <_Min_Stack_Size+0x1114>
    14ec:	00000cd1 	ldrdeq	r0, [r0], -r1
    14f0:	b8052701 	stmdalt	r5, {r0, r8, r9, sl, sp}
    14f4:	67000000 	strvs	r0, [r0, -r0]
    14f8:	1a000009 	bne	1524 <_Min_Stack_Size+0x1124>
    14fc:	0000058f 	andeq	r0, r0, pc, lsl #11
    1500:	b8052701 	stmdalt	r5, {r0, r8, r9, sl, sp}
    1504:	9a000000 	bls	150c <_Min_Stack_Size+0x110c>
    1508:	00000009 	andeq	r0, r0, r9
    150c:	035e0425 	cmpeq	lr, #620756992	; 0x25000000
    1510:	ac160000 	ldcge	0, cr0, [r6], {-0}
    1514:	01000007 	tsteq	r0, r7
    1518:	079005be 			; <UNDEFINED> instruction: 0x079005be
    151c:	00300800 	eorseq	r0, r0, r0, lsl #16
    1520:	9c010000 	stcls	0, cr0, [r1], {-0}
    1524:	000008fe 	strdeq	r0, [r0], -lr
    1528:	0007f722 	andeq	pc, r7, r2, lsr #14
    152c:	05be0100 	ldreq	r0, [lr, #256]!	; 0x100
    1530:	000000b8 	strheq	r0, [r0], -r8
    1534:	000009c5 	andeq	r0, r0, r5, asr #19
    1538:	00066c1a 	andeq	r6, r6, sl, lsl ip
    153c:	05c00100 	strbeq	r0, [r0, #256]	; 0x100
    1540:	000000b8 	strheq	r0, [r0], -r8
    1544:	000009e6 	andeq	r0, r0, r6, ror #19
    1548:	08dd1600 	ldmeq	sp, {r9, sl, ip}^
    154c:	de010000 	cdple	0, 0, cr0, cr1, cr0, {0}
    1550:	0007c005 	andeq	ip, r7, r5
    1554:	00000c08 	andeq	r0, r0, r8, lsl #24
    1558:	239c0100 	orrscs	r0, ip, #0, 2
    155c:	17000009 	strne	r0, [r0, -r9]
    1560:	00000718 	andeq	r0, r0, r8, lsl r7
    1564:	2805de01 	stmdacs	r5, {r0, r9, sl, fp, ip, lr, pc}
    1568:	01000001 	tsteq	r0, r1
    156c:	29160050 	ldmdbcs	r6, {r4, r6}
    1570:	01000007 	tsteq	r0, r7
    1574:	07cc05ef 	strbeq	r0, [ip, pc, ror #11]
    1578:	000c0800 	andeq	r0, ip, r0, lsl #16
    157c:	9c010000 	stcls	0, cr0, [r1], {-0}
    1580:	00000948 	andeq	r0, r0, r8, asr #18
    1584:	00071817 	andeq	r1, r7, r7, lsl r8
    1588:	05ef0100 	strbeq	r0, [pc, #256]!	; 1690 <_Min_Stack_Size+0x1290>
    158c:	00000128 	andeq	r0, r0, r8, lsr #2
    1590:	16005001 	strne	r5, [r0], -r1
    1594:	00000c2b 	andeq	r0, r0, fp, lsr #24
    1598:	d806ab01 	stmdale	r6, {r0, r8, r9, fp, sp, pc}
    159c:	0c080007 	stceq	0, cr0, [r8], {7}
    15a0:	01000000 	mrseq	r0, (UNDEF: 0)
    15a4:	00096d9c 	muleq	r9, ip, sp
    15a8:	09821700 	stmibeq	r2, {r8, r9, sl, ip}
    15ac:	ab010000 	blge	415b4 <_Min_Stack_Size+0x411b4>
    15b0:	0000b806 	andeq	fp, r0, r6, lsl #16
    15b4:	00500100 	subseq	r0, r0, r0, lsl #2
    15b8:	0006ca16 	andeq	ip, r6, r6, lsl sl
    15bc:	06c60100 	strbeq	r0, [r6], r0, lsl #2
    15c0:	080007e4 	stmdaeq	r0, {r2, r5, r6, r7, r8, r9, sl}
    15c4:	00000018 	andeq	r0, r0, r8, lsl r0
    15c8:	09a49c01 	stmibeq	r4!, {r0, sl, fp, ip, pc}
    15cc:	08220000 	stmdaeq	r2!, {}	; <UNPREDICTABLE>
    15d0:	01000008 	tsteq	r0, r8
    15d4:	00b806c6 	adcseq	r0, r8, r6, asr #13
    15d8:	0a050000 	beq	1415e0 <_Min_Stack_Size+0x1411e0>
    15dc:	6c1a0000 	ldcvs	0, cr0, [sl], {-0}
    15e0:	01000006 	tsteq	r0, r6
    15e4:	00b806c8 	adcseq	r0, r8, r8, asr #13
    15e8:	0a260000 	beq	9815f0 <_Min_Stack_Size+0x9811f0>
    15ec:	16000000 	strne	r0, [r0], -r0
    15f0:	00000a60 	andeq	r0, r0, r0, ror #20
    15f4:	fc06ea01 	stc2	10, cr14, [r6], {1}
    15f8:	18080007 	stmdane	r8, {r0, r1, r2}
    15fc:	01000000 	mrseq	r0, (UNDEF: 0)
    1600:	0009db9c 	muleq	r9, ip, fp
    1604:	081f2200 	ldmdaeq	pc, {r9, sp}	; <UNPREDICTABLE>
    1608:	ea010000 	b	41610 <_Min_Stack_Size+0x41210>
    160c:	0000b806 	andeq	fp, r0, r6, lsl #16
    1610:	000a5000 	andeq	r5, sl, r0
    1614:	066c1a00 	strbteq	r1, [ip], -r0, lsl #20
    1618:	ec010000 	stc	0, cr0, [r1], {-0}
    161c:	0000b806 	andeq	fp, r0, r6, lsl #16
    1620:	000a7100 	andeq	r7, sl, r0, lsl #2
    1624:	c3160000 	tstgt	r6, #0
    1628:	01000008 	tsteq	r0, r8
    162c:	0814070b 	ldmdaeq	r4, {r0, r1, r3, r8, r9, sl}
    1630:	00180800 	andseq	r0, r8, r0, lsl #16
    1634:	9c010000 	stcls	0, cr0, [r1], {-0}
    1638:	00000a12 	andeq	r0, r0, r2, lsl sl
    163c:	00090c22 	andeq	r0, r9, r2, lsr #24
    1640:	070b0100 	streq	r0, [fp, -r0, lsl #2]
    1644:	000000b8 	strheq	r0, [r0], -r8
    1648:	00000a9b 	muleq	r0, fp, sl
    164c:	00066c1a 	andeq	r6, r6, sl, lsl ip
    1650:	070d0100 	streq	r0, [sp, -r0, lsl #2]
    1654:	000000b8 	strheq	r0, [r0], -r8
    1658:	00000abb 			; <UNDEFINED> instruction: 0x00000abb
    165c:	05c41600 	strbeq	r1, [r4, #1536]	; 0x600
    1660:	2b010000 	blcs	41668 <_Min_Stack_Size+0x41268>
    1664:	00082c07 	andeq	r2, r8, r7, lsl #24
    1668:	00001c08 	andeq	r1, r0, r8, lsl #24
    166c:	499c0100 	ldmibmi	ip, {r8}
    1670:	2200000a 	andcs	r0, r0, #10
    1674:	00000556 	andeq	r0, r0, r6, asr r5
    1678:	b8072b01 	stmdalt	r7, {r0, r8, r9, fp, sp}
    167c:	da000000 	ble	1684 <_Min_Stack_Size+0x1284>
    1680:	1a00000a 	bne	16b0 <_Min_Stack_Size+0x12b0>
    1684:	0000066c 	andeq	r0, r0, ip, ror #12
    1688:	b8072d01 	stmdalt	r7, {r0, r8, sl, fp, sp}
    168c:	fa000000 	blx	1694 <_Min_Stack_Size+0x1294>
    1690:	0000000a 	andeq	r0, r0, sl
    1694:	00083616 	andeq	r3, r8, r6, lsl r6
    1698:	078e0100 	streq	r0, [lr, r0, lsl #2]
    169c:	08000848 	stmdaeq	r0, {r3, r6, fp}
    16a0:	00000018 	andeq	r0, r0, r8, lsl r0
    16a4:	0a809c01 	beq	fe0286b0 <_estack+0xde0086b1>
    16a8:	65220000 	strvs	r0, [r2, #-0]!
    16ac:	01000005 	tsteq	r0, r5
    16b0:	00b8078e 	adcseq	r0, r8, lr, lsl #15
    16b4:	0b190000 	bleq	6416bc <_Min_Stack_Size+0x6412bc>
    16b8:	6c1a0000 	ldcvs	0, cr0, [sl], {-0}
    16bc:	01000006 	tsteq	r0, r6
    16c0:	00b80790 	umlalseq	r0, r8, r0, r7
    16c4:	0b3a0000 	bleq	e816cc <_Min_Stack_Size+0xe812cc>
    16c8:	16000000 	strne	r0, [r0], -r0
    16cc:	00000c16 	andeq	r0, r0, r6, lsl ip
    16d0:	60080e01 	andvs	r0, r8, r1, lsl #28
    16d4:	0c080008 	stceq	0, cr0, [r8], {8}
    16d8:	01000000 	mrseq	r0, (UNDEF: 0)
    16dc:	000aa59c 	muleq	sl, ip, r5
    16e0:	0a8f1700 	beq	fe3c72e8 <_estack+0xde3a72e9>
    16e4:	0e010000 	cdpeq	0, 0, cr0, cr1, cr0, {0}
    16e8:	0000b808 	andeq	fp, r0, r8, lsl #16
    16ec:	00500100 	subseq	r0, r0, r0, lsl #2
    16f0:	0001d516 	andeq	sp, r1, r6, lsl r5
    16f4:	08380100 	ldmdaeq	r8!, {r8}
    16f8:	0800086c 	stmdaeq	r0, {r2, r3, r5, r6, fp}
    16fc:	00000018 	andeq	r0, r0, r8, lsl r0
    1700:	0ada9c01 	beq	ff6a870c <_estack+0xdf68870d>
    1704:	03220000 			; <UNDEFINED> instruction: 0x03220000
    1708:	01000006 	tsteq	r0, r6
    170c:	00b80838 	adcseq	r0, r8, r8, lsr r8
    1710:	0b640000 	bleq	1901718 <_Min_Stack_Size+0x1901318>
    1714:	18170000 	ldmdane	r7, {}	; <UNPREDICTABLE>
    1718:	01000007 	tsteq	r0, r7
    171c:	01280838 			; <UNDEFINED> instruction: 0x01280838
    1720:	51010000 	mrspl	r0, (UNDEF: 1)
    1724:	06831600 	streq	r1, [r3], r0, lsl #12
    1728:	58010000 	stmdapl	r1, {}	; <UNPREDICTABLE>
    172c:	00088408 	andeq	r8, r8, r8, lsl #8
    1730:	00001808 	andeq	r1, r0, r8, lsl #16
    1734:	0f9c0100 	svceq	0x009c0100
    1738:	2200000b 	andcs	r0, r0, #11
    173c:	0000088f 	andeq	r0, r0, pc, lsl #17
    1740:	b8085801 	stmdalt	r8, {r0, fp, ip, lr}
    1744:	9e000000 	cdpls	0, 0, cr0, cr0, cr0, {0}
    1748:	1700000b 	strne	r0, [r0, -fp]
    174c:	00000718 	andeq	r0, r0, r8, lsl r7
    1750:	28085801 	stmdacs	r8, {r0, fp, ip, lr}
    1754:	01000001 	tsteq	r0, r1
    1758:	f8160051 			; <UNDEFINED> instruction: 0xf8160051
    175c:	0100000c 	tsteq	r0, ip
    1760:	089c0876 	ldmeq	ip, {r1, r2, r4, r5, r6, fp}
    1764:	00180800 	andseq	r0, r8, r0, lsl #16
    1768:	9c010000 	stcls	0, cr0, [r1], {-0}
    176c:	00000b44 	andeq	r0, r0, r4, asr #22
    1770:	0008a822 	andeq	sl, r8, r2, lsr #16
    1774:	08760100 	ldmdaeq	r6!, {r8}^
    1778:	000000b8 	strheq	r0, [r0], -r8
    177c:	00000bd8 	ldrdeq	r0, [r0], -r8
    1780:	00071817 	andeq	r1, r7, r7, lsl r8
    1784:	08760100 	ldmdaeq	r6!, {r8}^
    1788:	00000128 	andeq	r0, r0, r8, lsr #2
    178c:	16005101 	strne	r5, [r0], -r1, lsl #2
    1790:	00000c7d 	andeq	r0, r0, sp, ror ip
    1794:	b408af01 	strlt	sl, [r8], #-3841	; 0xf01
    1798:	18080008 	stmdane	r8, {r3}
    179c:	01000000 	mrseq	r0, (UNDEF: 0)
    17a0:	000b799c 	muleq	fp, ip, r9
    17a4:	07962200 	ldreq	r2, [r6, r0, lsl #4]
    17a8:	af010000 	svcge	0x00010000
    17ac:	0000b808 	andeq	fp, r0, r8, lsl #16
    17b0:	000c1200 	andeq	r1, ip, r0, lsl #4
    17b4:	07181700 	ldreq	r1, [r8, -r0, lsl #14]
    17b8:	af010000 	svcge	0x00010000
    17bc:	00012808 	andeq	r2, r1, r8, lsl #16
    17c0:	00510100 	subseq	r0, r1, r0, lsl #2
    17c4:	000b8816 	andeq	r8, fp, r6, lsl r8
    17c8:	08e30100 	stmiaeq	r3!, {r8}^
    17cc:	080008cc 	stmdaeq	r0, {r2, r3, r6, r7, fp}
    17d0:	00000018 	andeq	r0, r0, r8, lsl r0
    17d4:	0bae9c01 	bleq	feba87e0 <_estack+0xdeb887e1>
    17d8:	07220000 	streq	r0, [r2, -r0]!
    17dc:	0100000c 	tsteq	r0, ip
    17e0:	00b808e3 	adcseq	r0, r8, r3, ror #17
    17e4:	0c4c0000 	mareq	acc0, r0, ip
    17e8:	18170000 	ldmdane	r7, {}	; <UNPREDICTABLE>
    17ec:	01000007 	tsteq	r0, r7
    17f0:	012808e3 	smulwteq	r8, r3, r8
    17f4:	51010000 	mrspl	r0, (UNDEF: 1)
    17f8:	04171600 	ldreq	r1, [r7], #-1536	; 0x600
    17fc:	0d010000 	stceq	0, cr0, [r1, #-0]
    1800:	0008e409 	andeq	lr, r8, r9, lsl #8
    1804:	00001808 	andeq	r1, r0, r8, lsl #16
    1808:	e39c0100 	orrs	r0, ip, #0, 2
    180c:	2200000b 	andcs	r0, r0, #11
    1810:	00000603 	andeq	r0, r0, r3, lsl #12
    1814:	b8090d01 	stmdalt	r9, {r0, r8, sl, fp}
    1818:	86000000 	strhi	r0, [r0], -r0
    181c:	1700000c 	strne	r0, [r0, -ip]
    1820:	00000718 	andeq	r0, r0, r8, lsl r7
    1824:	28090d01 	stmdacs	r9, {r0, r8, sl, fp}
    1828:	01000001 	tsteq	r0, r1
    182c:	c8160051 	ldmdagt	r6, {r0, r4, r6}
    1830:	0100000a 	tsteq	r0, sl
    1834:	08fc092a 	ldmeq	ip!, {r1, r3, r5, r8, fp}^
    1838:	00180800 	andseq	r0, r8, r0, lsl #16
    183c:	9c010000 	stcls	0, cr0, [r1], {-0}
    1840:	00000c18 	andeq	r0, r0, r8, lsl ip
    1844:	00088f22 	andeq	r8, r8, r2, lsr #30
    1848:	092a0100 	stmdbeq	sl!, {r8}
    184c:	000000b8 	strheq	r0, [r0], -r8
    1850:	00000cc0 	andeq	r0, r0, r0, asr #25
    1854:	00071817 	andeq	r1, r7, r7, lsl r8
    1858:	092a0100 	stmdbeq	sl!, {r8}
    185c:	00000128 	andeq	r0, r0, r8, lsr #2
    1860:	16005101 	strne	r5, [r0], -r1, lsl #2
    1864:	000006b3 			; <UNDEFINED> instruction: 0x000006b3
    1868:	14094501 	strne	r4, [r9], #-1281	; 0x501
    186c:	18080009 	stmdane	r8, {r0, r3}
    1870:	01000000 	mrseq	r0, (UNDEF: 0)
    1874:	000c4d9c 	muleq	ip, ip, sp
    1878:	08a82200 	stmiaeq	r8!, {r9, sp}
    187c:	45010000 	strmi	r0, [r1, #-0]
    1880:	0000b809 	andeq	fp, r0, r9, lsl #16
    1884:	000cfa00 	andeq	pc, ip, r0, lsl #20
    1888:	07181700 	ldreq	r1, [r8, -r0, lsl #14]
    188c:	45010000 	strmi	r0, [r1, #-0]
    1890:	00012809 	andeq	r2, r1, r9, lsl #16
    1894:	00510100 	subseq	r0, r1, r0, lsl #2
    1898:	0005a816 	andeq	sl, r5, r6, lsl r8
    189c:	097b0100 	ldmdbeq	fp!, {r8}^
    18a0:	0800092c 	stmdaeq	r0, {r2, r3, r5, r8, fp}
    18a4:	00000018 	andeq	r0, r0, r8, lsl r0
    18a8:	0c829c01 	stceq	12, cr9, [r2], {1}
    18ac:	96220000 	strtls	r0, [r2], -r0
    18b0:	01000007 	tsteq	r0, r7
    18b4:	00b8097b 	adcseq	r0, r8, fp, ror r9
    18b8:	0d340000 	ldceq	0, cr0, [r4, #-0]
    18bc:	18170000 	ldmdane	r7, {}	; <UNPREDICTABLE>
    18c0:	01000007 	tsteq	r0, r7
    18c4:	0128097b 			; <UNDEFINED> instruction: 0x0128097b
    18c8:	51010000 	mrspl	r0, (UNDEF: 1)
    18cc:	095c1600 	ldmdbeq	ip, {r9, sl, ip}^
    18d0:	aa010000 	bge	418d8 <_Min_Stack_Size+0x414d8>
    18d4:	00094409 	andeq	r4, r9, r9, lsl #8
    18d8:	00001808 	andeq	r1, r0, r8, lsl #16
    18dc:	b79c0100 	ldrlt	r0, [ip, r0, lsl #2]
    18e0:	2200000c 	andcs	r0, r0, #12
    18e4:	00000c07 	andeq	r0, r0, r7, lsl #24
    18e8:	b809aa01 	stmdalt	r9, {r0, r9, fp, sp, pc}
    18ec:	6e000000 	cdpvs	0, 0, cr0, cr0, cr0, {0}
    18f0:	1700000d 	strne	r0, [r0, -sp]
    18f4:	00000718 	andeq	r0, r0, r8, lsl r7
    18f8:	2809aa01 	stmdacs	r9, {r0, r9, fp, sp, pc}
    18fc:	01000001 	tsteq	r0, r1
    1900:	db160051 	blle	581a4c <_Min_Stack_Size+0x58164c>
    1904:	0100000c 	tsteq	r0, ip
    1908:	095c09db 	ldmdbeq	ip, {r0, r1, r3, r4, r6, r7, r8, fp}^
    190c:	00180800 	andseq	r0, r8, r0, lsl #16
    1910:	9c010000 	stcls	0, cr0, [r1], {-0}
    1914:	00000cec 	andeq	r0, r0, ip, ror #25
    1918:	00060322 	andeq	r0, r6, r2, lsr #6
    191c:	09db0100 	ldmibeq	fp, {r8}^
    1920:	000000b8 	strheq	r0, [r0], -r8
    1924:	00000da8 	andeq	r0, r0, r8, lsr #27
    1928:	00071817 	andeq	r1, r7, r7, lsl r8
    192c:	09db0100 	ldmibeq	fp, {r8}^
    1930:	00000128 	andeq	r0, r0, r8, lsr #2
    1934:	16005101 	strne	r5, [r0], -r1, lsl #2
    1938:	00000856 	andeq	r0, r0, r6, asr r8
    193c:	7409fb01 	strvc	pc, [r9], #-2817	; 0xb01
    1940:	18080009 	stmdane	r8, {r0, r3}
    1944:	01000000 	mrseq	r0, (UNDEF: 0)
    1948:	000d219c 	muleq	sp, ip, r1
    194c:	088f2200 	stmeq	pc, {r9, sp}	; <UNPREDICTABLE>
    1950:	fb010000 	blx	4195a <_Min_Stack_Size+0x4155a>
    1954:	0000b809 	andeq	fp, r0, r9, lsl #16
    1958:	000de200 	andeq	lr, sp, r0, lsl #4
    195c:	07181700 	ldreq	r1, [r8, -r0, lsl #14]
    1960:	fb010000 	blx	4196a <_Min_Stack_Size+0x4156a>
    1964:	00012809 	andeq	r2, r1, r9, lsl #16
    1968:	00510100 	subseq	r0, r1, r0, lsl #2
    196c:	000bdb16 	andeq	sp, fp, r6, lsl fp
    1970:	0a190100 	beq	641d78 <_Min_Stack_Size+0x641978>
    1974:	0800098c 	stmdaeq	r0, {r2, r3, r7, r8, fp}
    1978:	00000018 	andeq	r0, r0, r8, lsl r0
    197c:	0d569c01 	ldcleq	12, cr9, [r6, #-4]
    1980:	a8220000 	stmdage	r2!, {}	; <UNPREDICTABLE>
    1984:	01000008 	tsteq	r0, r8
    1988:	00b80a19 	adcseq	r0, r8, r9, lsl sl
    198c:	0e1c0000 	cdpeq	0, 1, cr0, cr12, cr0, {0}
    1990:	18170000 	ldmdane	r7, {}	; <UNPREDICTABLE>
    1994:	01000007 	tsteq	r0, r7
    1998:	01280a19 			; <UNDEFINED> instruction: 0x01280a19
    199c:	51010000 	mrspl	r0, (UNDEF: 1)
    19a0:	0adf1600 	beq	ff7c71a8 <_estack+0xdf7a71a9>
    19a4:	52010000 	andpl	r0, r1, #0
    19a8:	0009a40a 	andeq	sl, r9, sl, lsl #8
    19ac:	00001808 	andeq	r1, r0, r8, lsl #16
    19b0:	8b9c0100 	blhi	fe701db8 <_estack+0xde6e1db9>
    19b4:	2200000d 	andcs	r0, r0, #13
    19b8:	00000796 	muleq	r0, r6, r7
    19bc:	b80a5201 	stmdalt	sl, {r0, r9, ip, lr}
    19c0:	56000000 	strpl	r0, [r0], -r0
    19c4:	1700000e 	strne	r0, [r0, -lr]
    19c8:	00000718 	andeq	r0, r0, r8, lsl r7
    19cc:	280a5201 	stmdacs	sl, {r0, r9, ip, lr}
    19d0:	01000001 	tsteq	r0, r1
    19d4:	27160051 			; <UNDEFINED> instruction: 0x27160051
    19d8:	01000006 	tsteq	r0, r6
    19dc:	09bc0a86 	ldmibeq	ip!, {r1, r2, r7, r9, fp}
    19e0:	00180800 	andseq	r0, r8, r0, lsl #16
    19e4:	9c010000 	stcls	0, cr0, [r1], {-0}
    19e8:	00000dc0 	andeq	r0, r0, r0, asr #27
    19ec:	000c0722 	andeq	r0, ip, r2, lsr #14
    19f0:	0a860100 	beq	fe181df8 <_estack+0xde161df9>
    19f4:	000000b8 	strheq	r0, [r0], -r8
    19f8:	00000e90 	muleq	r0, r0, lr
    19fc:	00071817 	andeq	r1, r7, r7, lsl r8
    1a00:	0a860100 	beq	fe181e08 <_estack+0xde161e09>
    1a04:	00000128 	andeq	r0, r0, r8, lsr #2
    1a08:	16005101 	strne	r5, [r0], -r1, lsl #2
    1a0c:	00000934 	andeq	r0, r0, r4, lsr r9
    1a10:	d40a9e01 	strle	r9, [sl], #-3585	; 0xe01
    1a14:	18080009 	stmdane	r8, {r0, r3}
    1a18:	01000000 	mrseq	r0, (UNDEF: 0)
    1a1c:	000de59c 	muleq	sp, ip, r5
    1a20:	0abf1700 	beq	fefc7628 <_estack+0xdefa7629>
    1a24:	9e010000 	cdpls	0, 0, cr0, cr1, cr0, {0}
    1a28:	0000970a 	andeq	r9, r0, sl, lsl #14
    1a2c:	00500100 	subseq	r0, r0, r0, lsl #2
    1a30:	000c9416 	andeq	r9, ip, r6, lsl r4
    1a34:	0bd60100 	bleq	ff581e3c <_estack+0xdf561e3d>
    1a38:	080009ec 	stmdaeq	r0, {r2, r3, r5, r6, r7, r8, fp}
    1a3c:	00000018 	andeq	r0, r0, r8, lsl r0
    1a40:	0e1a9c01 	cdpeq	12, 1, cr9, cr10, cr1, {0}
    1a44:	3c220000 	stccc	0, cr0, [r2], #-0
    1a48:	01000007 	tsteq	r0, r7
    1a4c:	00970bd6 			; <UNDEFINED> instruction: 0x00970bd6
    1a50:	0eca0000 	cdpeq	0, 12, cr0, cr10, cr0, {0}
    1a54:	18170000 	ldmdane	r7, {}	; <UNPREDICTABLE>
    1a58:	01000007 	tsteq	r0, r7
    1a5c:	01280bd6 	ldrdeq	r0, [r8, -r6]!
    1a60:	51010000 	mrspl	r0, (UNDEF: 1)
    1a64:	03692600 	cmneq	r9, #0, 12
    1a68:	0a040000 	beq	101a70 <_Min_Stack_Size+0x101670>
    1a6c:	00340800 	eorseq	r0, r4, r0, lsl #16
    1a70:	9c010000 	stcls	0, cr0, [r1], {-0}
    1a74:	00000e52 	andeq	r0, r0, r2, asr lr
    1a78:	00037a27 	andeq	r7, r3, r7, lsr #20
    1a7c:	000f0400 	andeq	r0, pc, r0, lsl #8
    1a80:	03861e00 	orreq	r1, r6, #0, 28
    1a84:	0f3e0000 	svceq	0x003e0000
    1a88:	921e0000 	andsls	r0, lr, #0
    1a8c:	e0000003 	and	r0, r0, r3
    1a90:	1e00000f 	cdpne	0, 0, cr0, cr0, cr15, {0}
    1a94:	0000039e 	muleq	r0, lr, r3
    1a98:	00001016 	andeq	r1, r0, r6, lsl r0
    1a9c:	064c2800 	strbeq	r2, [ip], -r0, lsl #16
    1aa0:	28010000 	stmdacs	r1, {}	; <UNPREDICTABLE>
    1aa4:	000a380c 	andeq	r3, sl, ip, lsl #16
    1aa8:	00001008 	andeq	r1, r0, r8
    1aac:	189c0100 	ldmne	ip, {r8}
    1ab0:	00000bbb 			; <UNDEFINED> instruction: 0x00000bbb
    1ab4:	060c3c01 	streq	r3, [ip], -r1, lsl #24
    1ab8:	48000001 	stmdami	r0, {r0}
    1abc:	1408000a 	strne	r0, [r8], #-10
    1ac0:	01000000 	mrseq	r0, (UNDEF: 0)
    1ac4:	000e9f9c 	muleq	lr, ip, pc	; <UNPREDICTABLE>
    1ac8:	073c2200 	ldreq	r2, [ip, -r0, lsl #4]!
    1acc:	3c010000 	stccc	0, cr0, [r1], {-0}
    1ad0:	0000970c 	andeq	r9, r0, ip, lsl #14
    1ad4:	00109400 	andseq	r9, r0, r0, lsl #8
    1ad8:	040d1a00 	streq	r1, [sp], #-2560	; 0xa00
    1adc:	3e010000 	cdpcc	0, 0, cr0, cr1, cr0, {0}
    1ae0:	0001060c 	andeq	r0, r1, ip, lsl #12
    1ae4:	0010b500 	andseq	fp, r0, r0, lsl #10
    1ae8:	e8160000 	ldmda	r6, {}	; <UNPREDICTABLE>
    1aec:	01000005 	tsteq	r0, r5
    1af0:	0a5c0c5e 	beq	1704c70 <_Min_Stack_Size+0x1704870>
    1af4:	000c0800 	andeq	r0, ip, r0, lsl #16
    1af8:	9c010000 	stcls	0, cr0, [r1], {-0}
    1afc:	00000ec4 	andeq	r0, r0, r4, asr #29
    1b00:	00073c17 	andeq	r3, r7, r7, lsl ip
    1b04:	0c5e0100 	ldfeqe	f0, [lr], {-0}
    1b08:	00000097 	muleq	r0, r7, r0
    1b0c:	06005001 	streq	r5, [r0], -r1
    1b10:	00000097 	muleq	r0, r7, r0
    1b14:	00000ed4 	ldrdeq	r0, [r0], -r4
    1b18:	0000c307 	andeq	ip, r0, r7, lsl #6
    1b1c:	29000f00 	stmdbcs	r0, {r8, r9, sl, fp}
    1b20:	00000b35 	andeq	r0, r0, r5, lsr fp
    1b24:	0ee59901 	cdpeq	9, 14, cr9, cr5, cr1, {0}
    1b28:	03050000 	movweq	r0, #20480	; 0x5000
    1b2c:	20000004 	andcs	r0, r0, r4
    1b30:	000eea2a 	andeq	lr, lr, sl, lsr #20
    1b34:	0ec40500 	cdpeq	5, 12, cr0, cr4, cr0, {0}
    1b38:	4e2b0000 	cdpmi	0, 2, cr0, cr11, cr0, {0}
    1b3c:	06000002 	streq	r0, [r0], -r2
    1b40:	00df06fa 	ldrsheq	r0, [pc], #106	; <UNPREDICTABLE>
    1b44:	f8000000 			; <UNDEFINED> instruction: 0xf8000000
    1b48:	04000005 	streq	r0, [r0], #-5
    1b4c:	0005c800 	andeq	ip, r5, r0, lsl #16
    1b50:	ca010400 	bgt	42b58 <_Min_Stack_Size+0x42758>
    1b54:	01000002 	tsteq	r0, r2
    1b58:	00000d1f 	andeq	r0, r0, pc, lsl sp
    1b5c:	00000055 	andeq	r0, r0, r5, asr r0
    1b60:	08000a68 	stmdaeq	r0, {r3, r5, r6, r9, fp}
    1b64:	00000174 	andeq	r0, r0, r4, ror r1
    1b68:	0000094a 	andeq	r0, r0, sl, asr #18
    1b6c:	84060102 	strhi	r0, [r6], #-258	; 0x102
    1b70:	03000001 	movweq	r0, #1
    1b74:	00000149 	andeq	r0, r0, r9, asr #2
    1b78:	00371d02 	eorseq	r1, r7, r2, lsl #26
    1b7c:	01020000 	mrseq	r0, (UNDEF: 2)
    1b80:	00018208 	andeq	r8, r1, r8, lsl #4
    1b84:	05020200 	streq	r0, [r2, #-512]	; 0x200
    1b88:	00000034 	andeq	r0, r0, r4, lsr r0
    1b8c:	00009a03 	andeq	r9, r0, r3, lsl #20
    1b90:	502b0200 	eorpl	r0, fp, r0, lsl #4
    1b94:	02000000 	andeq	r0, r0, #0
    1b98:	01c20702 	biceq	r0, r2, r2, lsl #14
    1b9c:	7c030000 	stcvc	0, cr0, [r3], {-0}
    1ba0:	02000002 	andeq	r0, r0, #2
    1ba4:	0000623f 	andeq	r6, r0, pc, lsr r2
    1ba8:	05040200 	streq	r0, [r4, #-512]	; 0x200
    1bac:	00000113 	andeq	r0, r0, r3, lsl r1
    1bb0:	00016903 	andeq	r6, r1, r3, lsl #18
    1bb4:	74410200 	strbvc	r0, [r1], #-512	; 0x200
    1bb8:	02000000 	andeq	r0, r0, #0
    1bbc:	019f0704 	orrseq	r0, pc, r4, lsl #14
    1bc0:	08020000 	stmdaeq	r2, {}	; <UNPREDICTABLE>
    1bc4:	00010e05 	andeq	r0, r1, r5, lsl #28
    1bc8:	07080200 	streq	r0, [r8, -r0, lsl #4]
    1bcc:	0000019a 	muleq	r0, sl, r1
    1bd0:	69050404 	stmdbvs	r5, {r2, sl}
    1bd4:	0200746e 	andeq	r7, r0, #1845493760	; 0x6e000000
    1bd8:	01a40704 			; <UNDEFINED> instruction: 0x01a40704
    1bdc:	4b030000 	blmi	c1be4 <_Min_Stack_Size+0xc17e4>
    1be0:	03000001 	movweq	r0, #1
    1be4:	00002c14 	andeq	r2, r0, r4, lsl ip
    1be8:	009c0300 	addseq	r0, ip, r0, lsl #6
    1bec:	1a030000 	bne	c1bf4 <_Min_Stack_Size+0xc17f4>
    1bf0:	00000045 	andeq	r0, r0, r5, asr #32
    1bf4:	00027e03 	andeq	r7, r2, r3, lsl #28
    1bf8:	571f0300 	ldrpl	r0, [pc, -r0, lsl #6]
    1bfc:	03000000 	movweq	r0, #0
    1c00:	0000016b 	andeq	r0, r0, fp, ror #2
    1c04:	00692003 	rsbeq	r2, r9, r3
    1c08:	04020000 	streq	r0, [r2], #-0
    1c0c:	00003e07 	andeq	r3, r0, r7, lsl #28
    1c10:	00b80500 	adcseq	r0, r8, r0, lsl #10
    1c14:	8c060000 	stchi	0, cr0, [r6], {-0}
    1c18:	ea01c004 	b	71c30 <_Min_Stack_Size+0x71830>
    1c1c:	07000001 	streq	r0, [r0, -r1]
    1c20:	00000d19 	andeq	r0, r0, r9, lsl sp
    1c24:	ea01c204 	b	7243c <_Min_Stack_Size+0x7203c>
    1c28:	00000001 	andeq	r0, r0, r1
    1c2c:	000d8407 	andeq	r8, sp, r7, lsl #8
    1c30:	01c30400 	biceq	r0, r3, r0, lsl #8
    1c34:	000000ca 	andeq	r0, r0, sl, asr #1
    1c38:	0df00704 	ldcleq	7, cr0, [r0, #16]!
    1c3c:	c4040000 	strgt	r0, [r4], #-0
    1c40:	0000ca01 	andeq	ip, r0, r1, lsl #20
    1c44:	a2070800 	andge	r0, r7, #0, 16
    1c48:	0400000d 	streq	r0, [r0], #-13
    1c4c:	00ca01c5 	sbceq	r0, sl, r5, asr #3
    1c50:	080c0000 	stmdaeq	ip, {}	; <UNPREDICTABLE>
    1c54:	00524353 	subseq	r4, r2, r3, asr r3
    1c58:	ca01c604 	bgt	73470 <_Min_Stack_Size+0x73070>
    1c5c:	10000000 	andne	r0, r0, r0
    1c60:	52434308 	subpl	r4, r3, #8, 6	; 0x20000000
    1c64:	01c70400 	biceq	r0, r7, r0, lsl #8
    1c68:	000000ca 	andeq	r0, r0, sl, asr #1
    1c6c:	48530814 	ldmdami	r3, {r2, r4, fp}^
    1c70:	c8040050 	stmdagt	r4, {r4, r6}
    1c74:	0001ff01 	andeq	pc, r1, r1, lsl #30
    1c78:	b7071800 	strlt	r1, [r7, -r0, lsl #16]
    1c7c:	0400000d 	streq	r0, [r0], #-13
    1c80:	00ca01c9 	sbceq	r0, sl, r9, asr #3
    1c84:	07240000 	streq	r0, [r4, -r0]!
    1c88:	00000d96 	muleq	r0, r6, sp
    1c8c:	ca01ca04 	bgt	744a4 <_Min_Stack_Size+0x740a4>
    1c90:	28000000 	stmdacs	r0, {}	; <UNPREDICTABLE>
    1c94:	000e0f07 	andeq	r0, lr, r7, lsl #30
    1c98:	01cb0400 	biceq	r0, fp, r0, lsl #8
    1c9c:	000000ca 	andeq	r0, r0, sl, asr #1
    1ca0:	0dfa072c 	ldcleq	7, cr0, [sl, #176]!	; 0xb0
    1ca4:	cc040000 	stcgt	0, cr0, [r4], {-0}
    1ca8:	0000ca01 	andeq	ip, r0, r1, lsl #20
    1cac:	df073000 	svcle	0x00073000
    1cb0:	0400000d 	streq	r0, [r0], #-13
    1cb4:	00ca01cd 	sbceq	r0, sl, sp, asr #3
    1cb8:	07340000 	ldreq	r0, [r4, -r0]!
    1cbc:	00000d91 	muleq	r0, r1, sp
    1cc0:	ca01ce04 	bgt	754d8 <_Min_Stack_Size+0x750d8>
    1cc4:	38000000 	stmdacc	r0, {}	; <UNPREDICTABLE>
    1cc8:	000e2507 	andeq	r2, lr, r7, lsl #10
    1ccc:	01cf0400 	biceq	r0, pc, r0, lsl #8
    1cd0:	000000ca 	andeq	r0, r0, sl, asr #1
    1cd4:	4650083c 			; <UNDEFINED> instruction: 0x4650083c
    1cd8:	d0040052 	andle	r0, r4, r2, asr r0
    1cdc:	00021401 	andeq	r1, r2, r1, lsl #8
    1ce0:	44084000 	strmi	r4, [r8], #-0
    1ce4:	04005246 	streq	r5, [r0], #-582	; 0x246
    1ce8:	01ea01d1 	ldrdeq	r0, [sl, #17]!
    1cec:	08480000 	stmdaeq	r8, {}^	; <UNPREDICTABLE>
    1cf0:	00524441 	subseq	r4, r2, r1, asr #8
    1cf4:	ea01d204 	b	7650c <_Min_Stack_Size+0x7610c>
    1cf8:	4c000001 	stcmi	0, cr0, [r0], {1}
    1cfc:	000e1407 	andeq	r1, lr, r7, lsl #8
    1d00:	01d30400 	bicseq	r0, r3, r0, lsl #8
    1d04:	0000022e 	andeq	r0, r0, lr, lsr #4
    1d08:	0df50750 	ldcleq	7, cr0, [r5, #320]!	; 0x140
    1d0c:	d4040000 	strle	r0, [r4], #-0
    1d10:	00024801 	andeq	r4, r2, r1, lsl #16
    1d14:	9e076000 	cdpls	0, 0, cr6, cr7, cr0, {0}
    1d18:	04000009 	streq	r0, [r0], #-9
    1d1c:	023801d5 	eorseq	r0, r8, #1073741877	; 0x40000035
    1d20:	07740000 	ldrbeq	r0, [r4, -r0]!
    1d24:	00000e38 	andeq	r0, r0, r8, lsr lr
    1d28:	ca01d604 	bgt	77540 <_Min_Stack_Size+0x77140>
    1d2c:	88000000 	stmdahi	r0, {}	; <UNPREDICTABLE>
    1d30:	00ca0900 	sbceq	r0, sl, r0, lsl #18
    1d34:	970a0000 	strls	r0, [sl, -r0]
    1d38:	ff000000 			; <UNDEFINED> instruction: 0xff000000
    1d3c:	0b000001 	bleq	1d48 <_Min_Stack_Size+0x1948>
    1d40:	000000c3 	andeq	r0, r0, r3, asr #1
    1d44:	ef05000b 	svc	0x0005000b
    1d48:	0a000001 	beq	1d54 <_Min_Stack_Size+0x1954>
    1d4c:	000000b8 	strheq	r0, [r0], -r8
    1d50:	00000214 	andeq	r0, r0, r4, lsl r2
    1d54:	0000c30b 	andeq	ip, r0, fp, lsl #6
    1d58:	09000100 	stmdbeq	r0, {r8}
    1d5c:	00000219 	andeq	r0, r0, r9, lsl r2
    1d60:	00020405 	andeq	r0, r2, r5, lsl #8
    1d64:	00b80a00 	adcseq	r0, r8, r0, lsl #20
    1d68:	022e0000 	eoreq	r0, lr, #0
    1d6c:	c30b0000 	movwgt	r0, #45056	; 0xb000
    1d70:	03000000 	movweq	r0, #0
    1d74:	02330900 	eorseq	r0, r3, #0, 18
    1d78:	1e050000 	cdpne	0, 0, cr0, cr5, cr0, {0}
    1d7c:	0a000002 	beq	1d8c <_Min_Stack_Size+0x198c>
    1d80:	000000b8 	strheq	r0, [r0], -r8
    1d84:	00000248 	andeq	r0, r0, r8, asr #4
    1d88:	0000c30b 	andeq	ip, r0, fp, lsl #6
    1d8c:	09000400 	stmdbeq	r0, {sl}
    1d90:	0000024d 	andeq	r0, r0, sp, asr #4
    1d94:	00023805 	andeq	r3, r2, r5, lsl #16
    1d98:	0d7b0c00 	ldcleq	12, cr0, [fp, #-0]
    1d9c:	d7040000 	strle	r0, [r4, -r0]
    1da0:	0000cf01 	andeq	ip, r0, r1, lsl #30
    1da4:	00ad0500 	adceq	r0, sp, r0, lsl #10
    1da8:	010d0000 	mrseq	r0, (UNDEF: 13)
    1dac:	79035905 	stmdbvc	r3, {r0, r2, r8, fp, ip, lr}
    1db0:	0e000002 	cdpeq	0, 0, cr0, cr0, cr2, {0}
    1db4:	000003d1 	ldrdeq	r0, [r0], -r1
    1db8:	45530f00 	ldrbmi	r0, [r3, #-3840]	; 0xf00
    1dbc:	00010054 	andeq	r0, r1, r4, asr r0
    1dc0:	29051c06 	stmdbcs	r5, {r1, r2, sl, fp, ip}
    1dc4:	0002dc05 	andeq	sp, r2, r5, lsl #24
    1dc8:	43410800 	movtmi	r0, #6144	; 0x1800
    1dcc:	2b050052 	blcs	141f1c <_Min_Stack_Size+0x141b1c>
    1dd0:	0000ca05 	andeq	ip, r0, r5, lsl #20
    1dd4:	8c070000 	stchi	0, cr0, [r7], {-0}
    1dd8:	0500000d 	streq	r0, [r0, #-13]
    1ddc:	00ca052c 	sbceq	r0, sl, ip, lsr #10
    1de0:	07040000 	streq	r0, [r4, -r0]
    1de4:	00000d89 	andeq	r0, r0, r9, lsl #27
    1de8:	ca052d05 	bgt	14d204 <_Min_Stack_Size+0x14ce04>
    1dec:	08000000 	stmdaeq	r0, {}	; <UNPREDICTABLE>
    1df0:	00525308 	subseq	r5, r2, r8, lsl #6
    1df4:	ca052e05 	bgt	14d610 <_Min_Stack_Size+0x14d210>
    1df8:	0c000000 	stceq	0, cr0, [r0], {-0}
    1dfc:	00524308 	subseq	r4, r2, r8, lsl #6
    1e00:	ca052f05 	bgt	14da1c <_Min_Stack_Size+0x14d61c>
    1e04:	10000000 	andne	r0, r0, r0
    1e08:	000e3e07 	andeq	r3, lr, r7, lsl #28
    1e0c:	05300500 	ldreq	r0, [r0, #-1280]!	; 0x500
    1e10:	000000ca 	andeq	r0, r0, sl, asr #1
    1e14:	0d9b0714 	ldceq	7, cr0, [fp, #80]	; 0x50
    1e18:	31050000 	mrscc	r0, (UNDEF: 5)
    1e1c:	0000ca05 	andeq	ip, r0, r5, lsl #20
    1e20:	0c001800 	stceq	8, cr1, [r0], {-0}
    1e24:	00000e2a 	andeq	r0, r0, sl, lsr #28
    1e28:	79053205 	stmdbvc	r5, {r0, r2, r9, ip, sp}
    1e2c:	06000002 	streq	r0, [r0], -r2
    1e30:	06560508 	ldrbeq	r0, [r6], -r8, lsl #10
    1e34:	0000030b 	andeq	r0, r0, fp, lsl #6
    1e38:	00524308 	subseq	r4, r2, r8, lsl #6
    1e3c:	ca065805 	bgt	197e58 <_Min_Stack_Size+0x197a58>
    1e40:	00000000 	andeq	r0, r0, r0
    1e44:	52534308 	subspl	r4, r3, #8, 6	; 0x20000000
    1e48:	06590500 	ldrbeq	r0, [r9], -r0, lsl #10
    1e4c:	000000ca 	andeq	r0, r0, sl, asr #1
    1e50:	bd0c0004 	stclt	0, cr0, [ip, #-16]
    1e54:	0500000d 	streq	r0, [r0, #-13]
    1e58:	02e8065a 	rsceq	r0, r8, #94371840	; 0x5a00000
    1e5c:	98060000 	stmdals	r6, {}	; <UNPREDICTABLE>
    1e60:	da066005 	ble	199e7c <_Min_Stack_Size+0x199a7c>
    1e64:	08000004 	stmdaeq	r0, {r2}
    1e68:	05005243 	streq	r5, [r0, #-579]	; 0x243
    1e6c:	00ca0662 	sbceq	r0, sl, r2, ror #12
    1e70:	07000000 	streq	r0, [r0, -r0]
    1e74:	00000721 	andeq	r0, r0, r1, lsr #14
    1e78:	ca066305 	bgt	19aa94 <_Min_Stack_Size+0x19a694>
    1e7c:	04000000 	streq	r0, [r0], #-0
    1e80:	00099907 	andeq	r9, r9, r7, lsl #18
    1e84:	06640500 	strbteq	r0, [r4], -r0, lsl #10
    1e88:	000000ca 	andeq	r0, r0, sl, asr #1
    1e8c:	49430808 	stmdbmi	r3, {r3, fp}^
    1e90:	65050052 	strvs	r0, [r5, #-82]	; 0x52
    1e94:	0000ca06 	andeq	ip, r0, r6, lsl #20
    1e98:	5a070c00 	bpl	1c4ea0 <_Min_Stack_Size+0x1c4aa0>
    1e9c:	05000006 	streq	r0, [r0, #-6]
    1ea0:	00ca0666 	sbceq	r0, sl, r6, ror #12
    1ea4:	07100000 	ldreq	r0, [r0, -r0]
    1ea8:	00000b9f 	muleq	r0, pc, fp	; <UNPREDICTABLE>
    1eac:	ca066705 	bgt	19bac8 <_Min_Stack_Size+0x19b6c8>
    1eb0:	14000000 	strne	r0, [r0], #-0
    1eb4:	000ab607 	andeq	fp, sl, r7, lsl #12
    1eb8:	06680500 	strbteq	r0, [r8], -r0, lsl #10
    1ebc:	000000ca 	andeq	r0, r0, sl, asr #1
    1ec0:	099e0718 	ldmibeq	lr, {r3, r4, r8, r9, sl}
    1ec4:	69050000 	stmdbvs	r5, {}	; <UNPREDICTABLE>
    1ec8:	0000b806 	andeq	fp, r0, r6, lsl #16
    1ecc:	5b071c00 	blpl	1c8ed4 <_Min_Stack_Size+0x1c8ad4>
    1ed0:	0500000c 	streq	r0, [r0, #-12]
    1ed4:	00ca066a 	sbceq	r0, sl, sl, ror #12
    1ed8:	07200000 	streq	r0, [r0, -r0]!
    1edc:	0000069a 	muleq	r0, sl, r6
    1ee0:	ca066b05 	bgt	19cafc <_Min_Stack_Size+0x19c6fc>
    1ee4:	24000000 	strcs	r0, [r0], #-0
    1ee8:	0009a807 	andeq	sl, r9, r7, lsl #16
    1eec:	066c0500 	strbteq	r0, [ip], -r0, lsl #10
    1ef0:	00000204 	andeq	r0, r0, r4, lsl #4
    1ef4:	0cc90728 	stcleq	7, cr0, [r9], {40}	; 0x28
    1ef8:	6d050000 	stcvs	0, cr0, [r5, #-0]
    1efc:	0000ca06 	andeq	ip, r0, r6, lsl #20
    1f00:	d3073000 	movwle	r3, #28672	; 0x7000
    1f04:	0500000b 	streq	r0, [r0, #-11]
    1f08:	00ca066e 	sbceq	r0, sl, lr, ror #12
    1f0c:	07340000 	ldreq	r0, [r4, -r0]!
    1f10:	0000092c 	andeq	r0, r0, ip, lsr #18
    1f14:	ca066f05 	bgt	19db30 <_Min_Stack_Size+0x19d730>
    1f18:	38000000 	stmdacc	r0, {}	; <UNPREDICTABLE>
    1f1c:	0009b207 	andeq	fp, r9, r7, lsl #4
    1f20:	06700500 	ldrbteq	r0, [r0], -r0, lsl #10
    1f24:	000000b8 	strheq	r0, [r0], -r8
    1f28:	0bcb073c 	bleq	ff2c3c20 <_estack+0xdf2a3c21>
    1f2c:	71050000 	mrsvc	r0, (UNDEF: 5)
    1f30:	0000ca06 	andeq	ip, r0, r6, lsl #20
    1f34:	ae074000 	cdpge	0, 0, cr4, cr7, cr0, {0}
    1f38:	0500000a 	streq	r0, [r0, #-10]
    1f3c:	00ca0672 	sbceq	r0, sl, r2, ror r6
    1f40:	07440000 	strbeq	r0, [r4, -r0]
    1f44:	000009bc 			; <UNDEFINED> instruction: 0x000009bc
    1f48:	04067305 	streq	r7, [r6], #-773	; 0x305
    1f4c:	48000002 	stmdami	r0, {r1}
    1f50:	00061207 	andeq	r1, r6, r7, lsl #4
    1f54:	06740500 	ldrbteq	r0, [r4], -r0, lsl #10
    1f58:	000000ca 	andeq	r0, r0, sl, asr #1
    1f5c:	09460750 	stmdbeq	r6, {r4, r6, r8, r9, sl}^
    1f60:	75050000 	strvc	r0, [r5, #-0]
    1f64:	0000ca06 	andeq	ip, r0, r6, lsl #20
    1f68:	51075400 	tstpl	r7, r0, lsl #8
    1f6c:	0500000c 	streq	r0, [r0, #-12]
    1f70:	00ca0676 	sbceq	r0, sl, r6, ror r6
    1f74:	07580000 	ldrbeq	r0, [r8, -r0]
    1f78:	000009c6 	andeq	r0, r0, r6, asr #19
    1f7c:	b8067705 	stmdalt	r6, {r0, r2, r8, r9, sl, ip, sp, lr}
    1f80:	5c000000 	stcpl	0, cr0, [r0], {-0}
    1f84:	00053e07 	andeq	r3, r5, r7, lsl #28
    1f88:	06780500 	ldrbteq	r0, [r8], -r0, lsl #10
    1f8c:	000000ca 	andeq	r0, r0, sl, asr #1
    1f90:	089e0760 	ldmeq	lr, {r5, r6, r8, r9, sl}
    1f94:	79050000 	stmdbvc	r5, {}	; <UNPREDICTABLE>
    1f98:	0000ca06 	andeq	ip, r0, r6, lsl #20
    1f9c:	d0076400 	andle	r6, r7, r0, lsl #8
    1fa0:	05000009 	streq	r0, [r0, #-9]
    1fa4:	0204067a 	andeq	r0, r4, #127926272	; 0x7a00000
    1fa8:	07680000 	strbeq	r0, [r8, -r0]!
    1fac:	00000c78 	andeq	r0, r0, r8, ror ip
    1fb0:	ca067b05 	bgt	1a0bcc <_Min_Stack_Size+0x1a07cc>
    1fb4:	70000000 	andvc	r0, r0, r0
    1fb8:	52534308 	subspl	r4, r3, #8, 6	; 0x20000000
    1fbc:	067c0500 	ldrbteq	r0, [ip], -r0, lsl #10
    1fc0:	000000ca 	andeq	r0, r0, sl, asr #1
    1fc4:	09da0774 	ldmibeq	sl, {r2, r4, r5, r6, r8, r9, sl}^
    1fc8:	7d050000 	stcvc	0, cr0, [r5, #-0]
    1fcc:	00020406 	andeq	r0, r2, r6, lsl #8
    1fd0:	4b077800 	blmi	1dffd8 <_Min_Stack_Size+0x1dfbd8>
    1fd4:	0500000c 	streq	r0, [r0, #-12]
    1fd8:	00ca067e 	sbceq	r0, sl, lr, ror r6
    1fdc:	07800000 	streq	r0, [r0, r0]
    1fe0:	0000084b 	andeq	r0, r0, fp, asr #16
    1fe4:	ca067f05 	bgt	1a1c00 <_Min_Stack_Size+0x1a1800>
    1fe8:	84000000 	strhi	r0, [r0], #-0
    1fec:	00099307 	andeq	r9, r9, r7, lsl #6
    1ff0:	06800500 	streq	r0, [r0], r0, lsl #10
    1ff4:	000000ca 	andeq	r0, r0, sl, asr #1
    1ff8:	06440788 	strbeq	r0, [r4], -r8, lsl #15
    1ffc:	81050000 	mrshi	r0, (UNDEF: 5)
    2000:	0000ca06 	andeq	ip, r0, r6, lsl #20
    2004:	6f078c00 	svcvs	0x00078c00
    2008:	0500000c 	streq	r0, [r0, #-12]
    200c:	00ca0682 	sbceq	r0, sl, r2, lsl #13
    2010:	07900000 	ldreq	r0, [r0, r0]
    2014:	00000663 	andeq	r0, r0, r3, ror #12
    2018:	ca068305 	bgt	1a2c34 <_Min_Stack_Size+0x1a2834>
    201c:	94000000 	strls	r0, [r0], #-0
    2020:	07e50c00 	strbeq	r0, [r5, r0, lsl #24]!
    2024:	85050000 	strhi	r0, [r5, #-0]
    2028:	00031706 	andeq	r1, r3, r6, lsl #14
    202c:	0e191000 	cdpeq	0, 1, cr1, cr9, cr0, {0}
    2030:	8e010000 	cdphi	0, 0, cr0, cr1, cr0, {0}
    2034:	050c0102 	streq	r0, [ip, #-258]	; 0x102
    2038:	a8110000 	ldmdage	r1, {}	; <UNPREDICTABLE>
    203c:	0100000d 	tsteq	r0, sp
    2040:	00ca0294 	smulleq	r0, sl, r4, r2
    2044:	0f110000 	svceq	0x00110000
    2048:	0100000d 	tsteq	r0, sp
    204c:	00ca0294 	smulleq	r0, sl, r4, r2
    2050:	12000000 	andne	r0, r0, #0
    2054:	00000de5 	andeq	r0, r0, r5, ror #27
    2058:	6801e301 	stmdavs	r1, {r0, r8, r9, sp, lr, pc}
    205c:	0008000a 	andeq	r0, r8, sl
    2060:	01000001 	tsteq	r0, r1
    2064:	00054a9c 	muleq	r5, ip, sl
    2068:	04e61300 	strbteq	r1, [r6], #768	; 0x300
    206c:	0aa00000 	beq	fe802074 <_estack+0xde7e2075>
    2070:	00300800 	eorseq	r0, r0, r0, lsl #16
    2074:	02010000 	andeq	r0, r1, #0
    2078:	00301402 	eorseq	r1, r0, r2, lsl #8
    207c:	f3150000 	vhadd.u16	d0, d5, d0
    2080:	02000004 	andeq	r0, r0, #4
    2084:	ff157891 			; <UNDEFINED> instruction: 0xff157891
    2088:	02000004 	andeq	r0, r0, #4
    208c:	00007c91 	muleq	r0, r1, ip
    2090:	0dc91200 	sfmeq	f1, 2, [r9]
    2094:	30010000 	andcc	r0, r1, r0
    2098:	000b6802 	andeq	r6, fp, r2, lsl #16
    209c:	00007408 	andeq	r7, r0, r8, lsl #8
    20a0:	b19c0100 	orrslt	r0, ip, r0, lsl #2
    20a4:	16000005 	strne	r0, [r0], -r5
    20a8:	00706d74 	rsbseq	r6, r0, r4, ror sp
    20ac:	b8023201 	stmdalt	r2, {r0, r9, ip, sp}
    20b0:	f4000000 	vst4.8	{d0-d3}, [r0], r0
    20b4:	17000010 	smladne	r0, r0, r0, r0
    20b8:	000007a5 	andeq	r0, r0, r5, lsr #15
    20bc:	b8023201 	stmdalt	r2, {r0, r9, ip, sp}
    20c0:	43000000 	movwmi	r0, #0
    20c4:	17000011 	smladne	r0, r1, r0, r0
    20c8:	00000594 	muleq	r0, r4, r5
    20cc:	b8023201 	stmdalt	r2, {r0, r9, ip, sp}
    20d0:	7a000000 	bvc	20d8 <_Min_Stack_Size+0x1cd8>
    20d4:	17000011 	smladne	r0, r1, r0, r0
    20d8:	00000cd1 	ldrdeq	r0, [r0], -r1
    20dc:	b8023201 	stmdalt	r2, {r0, r9, ip, sp}
    20e0:	bd000000 	stclt	0, cr0, [r0, #-0]
    20e4:	17000011 	smladne	r0, r1, r0, r0
    20e8:	0000058f 	andeq	r0, r0, pc, lsl #11
    20ec:	b8023201 	stmdalt	r2, {r0, r9, ip, sp}
    20f0:	fc000000 	stc2	0, cr0, [r0], {-0}
    20f4:	00000011 	andeq	r0, r0, r1, lsl r0
    20f8:	00024e18 	andeq	r4, r2, r8, lsl lr
    20fc:	06fa0400 	ldrbteq	r0, [sl], r0, lsl #8
    2100:	0000025e 	andeq	r0, r0, lr, asr r2
    2104:	000dff19 	andeq	pc, sp, r9, lsl pc	; <UNPREDICTABLE>
    2108:	01b50100 			; <UNDEFINED> instruction: 0x01b50100
    210c:	000000b8 	strheq	r0, [r0], -r8
    2110:	00240305 	eoreq	r0, r4, r5, lsl #6
    2114:	970a2000 	strls	r2, [sl, -r0]
    2118:	df000000 	svcle	0x00000000
    211c:	0b000005 	bleq	2138 <_Min_Stack_Size+0x1d38>
    2120:	000000c3 	andeq	r0, r0, r3, asr #1
    2124:	3819000f 	ldmdacc	r9, {r0, r1, r2, r3}
    2128:	0100000b 	tsteq	r0, fp
    212c:	05f101c4 	ldrbeq	r0, [r1, #452]!	; 0x1c4
    2130:	03050000 	movweq	r0, #20480	; 0x5000
    2134:	20000014 	andcs	r0, r0, r4, lsl r0
    2138:	0005f609 	andeq	pc, r5, r9, lsl #12
    213c:	05cf0500 	strbeq	r0, [pc, #1280]	; 2644 <_Min_Stack_Size+0x2244>
    2140:	6c000000 	stcvs	0, cr0, [r0], {-0}
    2144:	02000000 	andeq	r0, r0, #0
    2148:	00070d00 	andeq	r0, r7, r0, lsl #26
    214c:	85010400 	strhi	r0, [r1, #-1024]	; 0x400
    2150:	4800000b 	stmdami	r0, {r0, r1, r3}
    2154:	73000000 	movwvc	r0, #0
    2158:	74726174 	ldrbtvc	r6, [r2], #-372	; 0x174
    215c:	735f7075 	cmpvc	pc, #117	; 0x75
    2160:	32336d74 	eorscc	r6, r3, #116, 26	; 0x1d00
    2164:	78303466 	ldmdavc	r0!, {r1, r2, r5, r6, sl, ip, sp}
    2168:	00732e78 	rsbseq	r2, r3, r8, ror lr
    216c:	64656d2f 	strbtvs	r6, [r5], #-3375	; 0xd2f
    2170:	642f6169 	strtvs	r6, [pc], #-361	; 2178 <_Min_Stack_Size+0x1d78>
    2174:	74686e69 	strbtvc	r6, [r8], #-3689	; 0xe69
    2178:	676e6f68 	strbvs	r6, [lr, -r8, ror #30]!
    217c:	5441442f 	strbpl	r4, [r1], #-1071	; 0x42f
    2180:	54442f41 	strbpl	r2, [r4], #-3905	; 0xf41
    2184:	4d52415f 	ldfmie	f4, [r2, #-380]	; 0xfffffe84
    2188:	6d74732f 	ldclvs	3, cr7, [r4, #-188]!	; 0xffffff44
    218c:	34663233 	strbtcc	r3, [r6], #-563	; 0x233
    2190:	7369642d 	cmnvc	r9, #754974720	; 0x2d000000
    2194:	65766f63 	ldrbvs	r6, [r6, #-3939]!	; 0xf63
    2198:	6d2d7972 	stcvs	9, cr7, [sp, #-456]!	; 0xfffffe38
    219c:	6d696e69 	stclvs	14, cr6, [r9, #-420]!	; 0xfffffe5c
    21a0:	47006c61 	strmi	r6, [r0, -r1, ror #24]
    21a4:	4120554e 			; <UNDEFINED> instruction: 0x4120554e
    21a8:	2e322053 	mrccs	0, 1, r2, cr2, cr3, {2}
    21ac:	302e3432 	eorcc	r3, lr, r2, lsr r4
    21b0:	Address 0x000021b0 is out of bounds.


Disassembly of section .debug_abbrev:

00000000 <.debug_abbrev>:
   0:	25011101 	strcs	r1, [r1, #-257]	; 0x101
   4:	030b130e 	movweq	r1, #45838	; 0xb30e
   8:	550e1b0e 	strpl	r1, [lr, #-2830]	; 0xb0e
   c:	10011117 	andne	r1, r1, r7, lsl r1
  10:	02000017 	andeq	r0, r0, #23
  14:	0b0b0024 	bleq	2c00ac <_Min_Stack_Size+0x2bfcac>
  18:	0e030b3e 	vmoveq.16	d3[0], r0
  1c:	16030000 	strne	r0, [r3], -r0
  20:	3a0e0300 	bcc	380c28 <_Min_Stack_Size+0x380828>
  24:	490b3b0b 	stmdbmi	fp, {r0, r1, r3, r8, r9, fp, ip, sp}
  28:	04000013 	streq	r0, [r0], #-19
  2c:	0b0b0024 	bleq	2c00c4 <_Min_Stack_Size+0x2bfcc4>
  30:	08030b3e 	stmdaeq	r3, {r1, r2, r3, r4, r5, r8, r9, fp}
  34:	35050000 	strcc	r0, [r5, #-0]
  38:	00134900 	andseq	r4, r3, r0, lsl #18
  3c:	01010600 	tsteq	r1, r0, lsl #12
  40:	13011349 	movwne	r1, #4937	; 0x1349
  44:	21070000 	mrscs	r0, (UNDEF: 7)
  48:	2f134900 	svccs	0x00134900
  4c:	0800000b 	stmdaeq	r0, {r0, r1, r3}
  50:	0b0b0104 	bleq	2c0468 <_Min_Stack_Size+0x2c0068>
  54:	053b0b3a 	ldreq	r0, [fp, #-2874]!	; 0xb3a
  58:	00001301 	andeq	r1, r0, r1, lsl #6
  5c:	03002809 	movweq	r2, #2057	; 0x809
  60:	000d1c0e 	andeq	r1, sp, lr, lsl #24
  64:	00160a00 	andseq	r0, r6, r0, lsl #20
  68:	0b3a0e03 	bleq	e8387c <_Min_Stack_Size+0xe8347c>
  6c:	1349053b 	movtne	r0, #38203	; 0x953b
  70:	130b0000 	movwne	r0, #45056	; 0xb000
  74:	3a0b0b01 	bcc	2c2c80 <_Min_Stack_Size+0x2c2880>
  78:	01053b0b 	tsteq	r5, fp, lsl #22
  7c:	0c000013 	stceq	0, cr0, [r0], {19}
  80:	0e03000d 	cdpeq	0, 0, cr0, cr3, cr13, {0}
  84:	053b0b3a 	ldreq	r0, [fp, #-2874]!	; 0xb3a
  88:	0b381349 	bleq	e04db4 <_Min_Stack_Size+0xe049b4>
  8c:	0d0d0000 	stceq	0, cr0, [sp, #-0]
  90:	3a080300 	bcc	200c98 <_Min_Stack_Size+0x200898>
  94:	49053b0b 	stmdbmi	r5, {r0, r1, r3, r8, r9, fp, ip, sp}
  98:	000b3813 	andeq	r3, fp, r3, lsl r8
  9c:	01040e00 	tsteq	r4, r0, lsl #28
  a0:	0b3a0b0b 	bleq	e82cd4 <_Min_Stack_Size+0xe828d4>
  a4:	13010b3b 	movwne	r0, #6971	; 0x1b3b
  a8:	130f0000 	movwne	r0, #61440	; 0xf000
  ac:	3a0b0b01 	bcc	2c2cb8 <_Min_Stack_Size+0x2c28b8>
  b0:	010b3b0b 	tsteq	fp, fp, lsl #22
  b4:	10000013 	andne	r0, r0, r3, lsl r0
  b8:	0e03000d 	cdpeq	0, 0, cr0, cr3, cr13, {0}
  bc:	0b3b0b3a 	bleq	ec2dac <_Min_Stack_Size+0xec29ac>
  c0:	0b381349 	bleq	e04dec <_Min_Stack_Size+0xe049ec>
  c4:	2e110000 	cdpcs	0, 1, cr0, cr1, cr0, {0}
  c8:	03193f01 	tsteq	r9, #1, 30
  cc:	3b0b3a0e 	blcc	2ce90c <_Min_Stack_Size+0x2ce50c>
  d0:	4919270b 	ldmdbmi	r9, {r0, r1, r3, r8, r9, sl, sp}
  d4:	12011113 	andne	r1, r1, #-1073741820	; 0xc0000004
  d8:	97184006 	ldrls	r4, [r8, -r6]
  dc:	13011942 	movwne	r1, #6466	; 0x1942
  e0:	34120000 	ldrcc	r0, [r2], #-0
  e4:	3a0e0300 	bcc	380cec <_Min_Stack_Size+0x3808ec>
  e8:	490b3b0b 	stmdbmi	fp, {r0, r1, r3, r8, r9, fp, ip, sp}
  ec:	00180213 	andseq	r0, r8, r3, lsl r2
  f0:	82891300 	addhi	r1, r9, #0, 6
  f4:	01110101 	tsteq	r1, r1, lsl #2
  f8:	13011331 	movwne	r1, #4913	; 0x1331
  fc:	8a140000 	bhi	500104 <_Min_Stack_Size+0x4ffd04>
 100:	02000182 	andeq	r0, r0, #-2147483616	; 0x80000020
 104:	18429118 	stmdane	r2, {r3, r4, r8, ip, pc}^
 108:	89150000 	ldmdbhi	r5, {}	; <UNPREDICTABLE>
 10c:	11010182 	smlabbne	r1, r2, r1, r0
 110:	00133101 	andseq	r3, r3, r1, lsl #2
 114:	00341600 	eorseq	r1, r4, r0, lsl #12
 118:	0b3a0e03 	bleq	e8392c <_Min_Stack_Size+0xe8352c>
 11c:	1349053b 	movtne	r0, #38203	; 0x953b
 120:	193c193f 	ldmdbne	ip!, {r0, r1, r2, r3, r4, r5, r8, fp, ip}
 124:	2e170000 	cdpcs	0, 1, cr0, cr7, cr0, {0}
 128:	03193f01 	tsteq	r9, #1, 30
 12c:	3b0b3a0e 	blcc	2ce96c <_Min_Stack_Size+0x2ce56c>
 130:	3c192705 	ldccc	7, cr2, [r9], {5}
 134:	00130119 	andseq	r0, r3, r9, lsl r1
 138:	00051800 	andeq	r1, r5, r0, lsl #16
 13c:	00001349 	andeq	r1, r0, r9, asr #6
 140:	0b000f19 	bleq	3dac <_Min_Stack_Size+0x39ac>
 144:	0013490b 	andseq	r4, r3, fp, lsl #18
 148:	012e1a00 			; <UNDEFINED> instruction: 0x012e1a00
 14c:	0e03193f 	mcreq	9, 0, r1, cr3, cr15, {1}
 150:	053b0b3a 	ldreq	r0, [fp, #-2874]!	; 0xb3a
 154:	13491927 	movtne	r1, #39207	; 0x9927
 158:	1301193c 	movwne	r1, #6460	; 0x193c
 15c:	2e1b0000 	cdpcs	0, 1, cr0, cr11, cr0, {0}
 160:	03193f01 	tsteq	r9, #1, 30
 164:	3b0b3a0e 	blcc	2ce9a4 <_Min_Stack_Size+0x2ce5a4>
 168:	3c192705 	ldccc	7, cr2, [r9], {5}
 16c:	00000019 	andeq	r0, r0, r9, lsl r0
 170:	25011101 	strcs	r1, [r1, #-257]	; 0x101
 174:	030b130e 	movweq	r1, #45838	; 0xb30e
 178:	110e1b0e 	tstne	lr, lr, lsl #22
 17c:	10061201 	andne	r1, r6, r1, lsl #4
 180:	02000017 	andeq	r0, r0, #23
 184:	0b0b0024 	bleq	2c021c <_Min_Stack_Size+0x2bfe1c>
 188:	0e030b3e 	vmoveq.16	d3[0], r0
 18c:	16030000 	strne	r0, [r3], -r0
 190:	3a0e0300 	bcc	380d98 <_Min_Stack_Size+0x380998>
 194:	490b3b0b 	stmdbmi	fp, {r0, r1, r3, r8, r9, fp, ip, sp}
 198:	04000013 	streq	r0, [r0], #-19
 19c:	0b0b0024 	bleq	2c0234 <_Min_Stack_Size+0x2bfe34>
 1a0:	08030b3e 	stmdaeq	r3, {r1, r2, r3, r4, r5, r8, r9, fp}
 1a4:	35050000 	strcc	r0, [r5, #-0]
 1a8:	00134900 	andseq	r4, r3, r0, lsl #18
 1ac:	01010600 	tsteq	r1, r0, lsl #12
 1b0:	13011349 	movwne	r1, #4937	; 0x1349
 1b4:	21070000 	mrscs	r0, (UNDEF: 7)
 1b8:	2f134900 	svccs	0x00134900
 1bc:	0800000b 	stmdaeq	r0, {r0, r1, r3}
 1c0:	0b0b0104 	bleq	2c05d8 <_Min_Stack_Size+0x2c01d8>
 1c4:	053b0b3a 	ldreq	r0, [fp, #-2874]!	; 0xb3a
 1c8:	00001301 	andeq	r1, r0, r1, lsl #6
 1cc:	03002809 	movweq	r2, #2057	; 0x809
 1d0:	000d1c0e 	andeq	r1, sp, lr, lsl #24
 1d4:	00160a00 	andseq	r0, r6, r0, lsl #20
 1d8:	0b3a0e03 	bleq	e839ec <_Min_Stack_Size+0xe835ec>
 1dc:	1349053b 	movtne	r0, #38203	; 0x953b
 1e0:	130b0000 	movwne	r0, #45056	; 0xb000
 1e4:	3a0b0b01 	bcc	2c2df0 <_Min_Stack_Size+0x2c29f0>
 1e8:	01053b0b 	tsteq	r5, fp, lsl #22
 1ec:	0c000013 	stceq	0, cr0, [r0], {19}
 1f0:	0e03000d 	cdpeq	0, 0, cr0, cr3, cr13, {0}
 1f4:	053b0b3a 	ldreq	r0, [fp, #-2874]!	; 0xb3a
 1f8:	0b381349 	bleq	e04f24 <_Min_Stack_Size+0xe04b24>
 1fc:	0d0d0000 	stceq	0, cr0, [sp, #-0]
 200:	3a080300 	bcc	200e08 <_Min_Stack_Size+0x200a08>
 204:	49053b0b 	stmdbmi	r5, {r0, r1, r3, r8, r9, fp, ip, sp}
 208:	000b3813 	andeq	r3, fp, r3, lsl r8
 20c:	01040e00 	tsteq	r4, r0, lsl #28
 210:	0b3a0b0b 	bleq	e82e44 <_Min_Stack_Size+0xe82a44>
 214:	13010b3b 	movwne	r0, #6971	; 0x1b3b
 218:	130f0000 	movwne	r0, #61440	; 0xf000
 21c:	3a0b0b01 	bcc	2c2e28 <_Min_Stack_Size+0x2c2a28>
 220:	010b3b0b 	tsteq	fp, fp, lsl #22
 224:	10000013 	andne	r0, r0, r3, lsl r0
 228:	0e03000d 	cdpeq	0, 0, cr0, cr3, cr13, {0}
 22c:	0b3b0b3a 	bleq	ec2f1c <_Min_Stack_Size+0xec2b1c>
 230:	0b381349 	bleq	e04f5c <_Min_Stack_Size+0xe04b5c>
 234:	2e110000 	cdpcs	0, 1, cr0, cr1, cr0, {0}
 238:	03193f01 	tsteq	r9, #1, 30
 23c:	3b0b3a0e 	blcc	2cea7c <_Min_Stack_Size+0x2ce67c>
 240:	1119270b 	tstne	r9, fp, lsl #14
 244:	40061201 	andmi	r1, r6, r1, lsl #4
 248:	19429718 	stmdbne	r2, {r3, r4, r8, r9, sl, ip, pc}^
 24c:	00001301 	andeq	r1, r0, r1, lsl #6
 250:	03000512 	movweq	r0, #1298	; 0x512
 254:	3b0b3a0e 	blcc	2cea94 <_Min_Stack_Size+0x2ce694>
 258:	0213490b 	andseq	r4, r3, #180224	; 0x2c000
 25c:	13000017 	movwne	r0, #23
 260:	01018289 	smlabbeq	r1, r9, r2, r8
 264:	13310111 	teqne	r1, #1073741828	; 0x40000004
 268:	00001301 	andeq	r1, r0, r1, lsl #6
 26c:	01828a14 	orreq	r8, r2, r4, lsl sl
 270:	91180200 	tstls	r8, r0, lsl #4
 274:	00001842 	andeq	r1, r0, r2, asr #16
 278:	01828915 	orreq	r8, r2, r5, lsl r9
 27c:	95011101 	strls	r1, [r1, #-257]	; 0x101
 280:	13311942 	teqne	r1, #1081344	; 0x108000
 284:	00001301 	andeq	r1, r0, r1, lsl #6
 288:	01828916 	orreq	r8, r2, r6, lsl r9
 28c:	95011101 	strls	r1, [r1, #-257]	; 0x101
 290:	13311942 	teqne	r1, #1081344	; 0x108000
 294:	0f170000 	svceq	0x00170000
 298:	490b0b00 	stmdbmi	fp, {r8, r9, fp}
 29c:	18000013 	stmdane	r0, {r0, r1, r4}
 2a0:	0e030005 	cdpeq	0, 0, cr0, cr3, cr5, {0}
 2a4:	0b3b0b3a 	bleq	ec2f94 <_Min_Stack_Size+0xec2b94>
 2a8:	18021349 	stmdane	r2, {r0, r3, r6, r8, r9, ip}
 2ac:	34190000 	ldrcc	r0, [r9], #-0
 2b0:	3a0e0300 	bcc	380eb8 <_Min_Stack_Size+0x380ab8>
 2b4:	490b3b0b 	stmdbmi	fp, {r0, r1, r3, r8, r9, fp, ip, sp}
 2b8:	00170213 	andseq	r0, r7, r3, lsl r2
 2bc:	00341a00 	eorseq	r1, r4, r0, lsl #20
 2c0:	0b3a0803 	bleq	e822d4 <_Min_Stack_Size+0xe81ed4>
 2c4:	13490b3b 	movtne	r0, #39739	; 0x9b3b
 2c8:	00001702 	andeq	r1, r0, r2, lsl #14
 2cc:	3f012e1b 	svccc	0x00012e1b
 2d0:	3a0e0319 	bcc	380f3c <_Min_Stack_Size+0x380b3c>
 2d4:	27053b0b 	strcs	r3, [r5, -fp, lsl #22]
 2d8:	12011119 	andne	r1, r1, #1073741830	; 0x40000006
 2dc:	97184006 	ldrls	r4, [r8, -r6]
 2e0:	13011942 	movwne	r1, #6466	; 0x1942
 2e4:	051c0000 	ldreq	r0, [ip, #-0]
 2e8:	3a0e0300 	bcc	380ef0 <_Min_Stack_Size+0x380af0>
 2ec:	49053b0b 	stmdbmi	r5, {r0, r1, r3, r8, r9, fp, ip, sp}
 2f0:	00180213 	andseq	r0, r8, r3, lsl r2
 2f4:	00341d00 	eorseq	r1, r4, r0, lsl #26
 2f8:	0b3a0803 	bleq	e8230c <_Min_Stack_Size+0xe81f0c>
 2fc:	1349053b 	movtne	r0, #38203	; 0x953b
 300:	00001802 	andeq	r1, r0, r2, lsl #16
 304:	3f012e1e 	svccc	0x00012e1e
 308:	3a0e0319 	bcc	380f74 <_Min_Stack_Size+0x380b74>
 30c:	27053b0b 	strcs	r3, [r5, -fp, lsl #22]
 310:	11134919 	tstne	r3, r9, lsl r9
 314:	40061201 	andmi	r1, r6, r1, lsl #4
 318:	19429718 	stmdbne	r2, {r3, r4, r8, r9, sl, ip, pc}^
 31c:	00001301 	andeq	r1, r0, r1, lsl #6
 320:	0300051f 	movweq	r0, #1311	; 0x51f
 324:	3b0b3a0e 	blcc	2ceb64 <_Min_Stack_Size+0x2ce764>
 328:	02134905 	andseq	r4, r3, #81920	; 0x14000
 32c:	20000017 	andcs	r0, r0, r7, lsl r0
 330:	0e030034 	mcreq	0, 0, r0, cr3, cr4, {1}
 334:	053b0b3a 	ldreq	r0, [fp, #-2874]!	; 0xb3a
 338:	17021349 	strne	r1, [r2, -r9, asr #6]
 33c:	34210000 	strtcc	r0, [r1], #-0
 340:	3a0e0300 	bcc	380f48 <_Min_Stack_Size+0x380b48>
 344:	49053b0b 	stmdbmi	r5, {r0, r1, r3, r8, r9, fp, ip, sp}
 348:	3c193f13 	ldccc	15, cr3, [r9], {19}
 34c:	22000019 	andcs	r0, r0, #25
 350:	193f012e 	ldmdbne	pc!, {r1, r2, r3, r5, r8}	; <UNPREDICTABLE>
 354:	0b3a0e03 	bleq	e83b68 <_Min_Stack_Size+0xe83768>
 358:	1927053b 	stmdbne	r7!, {r0, r1, r3, r4, r5, r8, sl}
 35c:	0000193c 	andeq	r1, r0, ip, lsr r9
 360:	49000523 	stmdbmi	r0, {r0, r1, r5, r8, sl}
 364:	00000013 	andeq	r0, r0, r3, lsl r0
 368:	25011101 	strcs	r1, [r1, #-257]	; 0x101
 36c:	030b130e 	movweq	r1, #45838	; 0xb30e
 370:	110e1b0e 	tstne	lr, lr, lsl #22
 374:	10061201 	andne	r1, r6, r1, lsl #4
 378:	02000017 	andeq	r0, r0, #23
 37c:	0b0b0024 	bleq	2c0414 <_Min_Stack_Size+0x2c0014>
 380:	0e030b3e 	vmoveq.16	d3[0], r0
 384:	16030000 	strne	r0, [r3], -r0
 388:	3a0e0300 	bcc	380f90 <_Min_Stack_Size+0x380b90>
 38c:	490b3b0b 	stmdbmi	fp, {r0, r1, r3, r8, r9, fp, ip, sp}
 390:	04000013 	streq	r0, [r0], #-19
 394:	0b0b0024 	bleq	2c042c <_Min_Stack_Size+0x2c002c>
 398:	08030b3e 	stmdaeq	r3, {r1, r2, r3, r4, r5, r8, r9, fp}
 39c:	35050000 	strcc	r0, [r5, #-0]
 3a0:	00134900 	andseq	r4, r3, r0, lsl #18
 3a4:	01010600 	tsteq	r1, r0, lsl #12
 3a8:	13011349 	movwne	r1, #4937	; 0x1349
 3ac:	21070000 	mrscs	r0, (UNDEF: 7)
 3b0:	2f134900 	svccs	0x00134900
 3b4:	0800000b 	stmdaeq	r0, {r0, r1, r3}
 3b8:	0b0b0104 	bleq	2c07d0 <_Min_Stack_Size+0x2c03d0>
 3bc:	053b0b3a 	ldreq	r0, [fp, #-2874]!	; 0xb3a
 3c0:	00001301 	andeq	r1, r0, r1, lsl #6
 3c4:	03002809 	movweq	r2, #2057	; 0x809
 3c8:	000d1c0e 	andeq	r1, sp, lr, lsl #24
 3cc:	00280a00 	eoreq	r0, r8, r0, lsl #20
 3d0:	0d1c0803 	ldceq	8, cr0, [ip, #-12]
 3d4:	160b0000 	strne	r0, [fp], -r0
 3d8:	3a0e0300 	bcc	380fe0 <_Min_Stack_Size+0x380be0>
 3dc:	49053b0b 	stmdbmi	r5, {r0, r1, r3, r8, r9, fp, ip, sp}
 3e0:	0c000013 	stceq	0, cr0, [r0], {19}
 3e4:	0b0b0113 	bleq	2c0838 <_Min_Stack_Size+0x2c0438>
 3e8:	053b0b3a 	ldreq	r0, [fp, #-2874]!	; 0xb3a
 3ec:	00001301 	andeq	r1, r0, r1, lsl #6
 3f0:	03000d0d 	movweq	r0, #3341	; 0xd0d
 3f4:	3b0b3a08 	blcc	2cec1c <_Min_Stack_Size+0x2ce81c>
 3f8:	38134905 	ldmdacc	r3, {r0, r2, r8, fp, lr}
 3fc:	0e00000b 	cdpeq	0, 0, cr0, cr0, cr11, {0}
 400:	0e03000d 	cdpeq	0, 0, cr0, cr3, cr13, {0}
 404:	053b0b3a 	ldreq	r0, [fp, #-2874]!	; 0xb3a
 408:	0b381349 	bleq	e05134 <_Min_Stack_Size+0xe04d34>
 40c:	130f0000 	movwne	r0, #61440	; 0xf000
 410:	3a0b0b01 	bcc	2c301c <_Min_Stack_Size+0x2c2c1c>
 414:	010b3b0b 	tsteq	fp, fp, lsl #22
 418:	10000013 	andne	r0, r0, r3, lsl r0
 41c:	0e03000d 	cdpeq	0, 0, cr0, cr3, cr13, {0}
 420:	0b3b0b3a 	bleq	ec3110 <_Min_Stack_Size+0xec2d10>
 424:	0b381349 	bleq	e05150 <_Min_Stack_Size+0xe04d50>
 428:	2e110000 	cdpcs	0, 1, cr0, cr1, cr0, {0}
 42c:	03193f01 	tsteq	r9, #1, 30
 430:	3b0b3a0e 	blcc	2cec70 <_Min_Stack_Size+0x2ce870>
 434:	49192705 	ldmdbmi	r9, {r0, r2, r8, r9, sl, sp}
 438:	010b2013 	tsteq	fp, r3, lsl r0
 43c:	12000013 	andne	r0, r0, #19
 440:	0e030005 	cdpeq	0, 0, cr0, cr3, cr5, {0}
 444:	053b0b3a 	ldreq	r0, [fp, #-2874]!	; 0xb3a
 448:	00001349 	andeq	r1, r0, r9, asr #6
 44c:	03003413 	movweq	r3, #1043	; 0x413
 450:	3b0b3a08 	blcc	2cec78 <_Min_Stack_Size+0x2ce878>
 454:	00134905 	andseq	r4, r3, r5, lsl #18
 458:	00341400 	eorseq	r1, r4, r0, lsl #8
 45c:	0b3a0e03 	bleq	e83c70 <_Min_Stack_Size+0xe83870>
 460:	1349053b 	movtne	r0, #38203	; 0x953b
 464:	2e150000 	cdpcs	0, 1, cr0, cr5, cr0, {0}
 468:	03193f00 	tsteq	r9, #0, 30
 46c:	3b0b3a0e 	blcc	2cecac <_Min_Stack_Size+0x2ce8ac>
 470:	1119270b 	tstne	r9, fp, lsl #14
 474:	40061201 	andmi	r1, r6, r1, lsl #4
 478:	19429718 	stmdbne	r2, {r3, r4, r8, r9, sl, ip, pc}^
 47c:	2e160000 	cdpcs	0, 1, cr0, cr6, cr0, {0}
 480:	03193f01 	tsteq	r9, #1, 30
 484:	3b0b3a0e 	blcc	2cecc4 <_Min_Stack_Size+0x2ce8c4>
 488:	11192705 	tstne	r9, r5, lsl #14
 48c:	40061201 	andmi	r1, r6, r1, lsl #4
 490:	19429718 	stmdbne	r2, {r3, r4, r8, r9, sl, ip, pc}^
 494:	00001301 	andeq	r1, r0, r1, lsl #6
 498:	03000517 	movweq	r0, #1303	; 0x517
 49c:	3b0b3a0e 	blcc	2cecdc <_Min_Stack_Size+0x2ce8dc>
 4a0:	02134905 	andseq	r4, r3, #81920	; 0x14000
 4a4:	18000018 	stmdane	r0, {r3, r4}
 4a8:	193f012e 	ldmdbne	pc!, {r1, r2, r3, r5, r8}	; <UNPREDICTABLE>
 4ac:	0b3a0e03 	bleq	e83cc0 <_Min_Stack_Size+0xe838c0>
 4b0:	1927053b 	stmdbne	r7!, {r0, r1, r3, r4, r5, r8, sl}
 4b4:	01111349 	tsteq	r1, r9, asr #6
 4b8:	18400612 	stmdane	r0, {r1, r4, r9, sl}^
 4bc:	01194297 			; <UNDEFINED> instruction: 0x01194297
 4c0:	19000013 	stmdbne	r0, {r0, r1, r4}
 4c4:	0e030034 	mcreq	0, 0, r0, cr3, cr4, {1}
 4c8:	053b0b3a 	ldreq	r0, [fp, #-2874]!	; 0xb3a
 4cc:	18021349 	stmdane	r2, {r0, r3, r6, r8, r9, ip}
 4d0:	341a0000 	ldrcc	r0, [sl], #-0
 4d4:	3a0e0300 	bcc	3810dc <_Min_Stack_Size+0x380cdc>
 4d8:	49053b0b 	stmdbmi	r5, {r0, r1, r3, r8, r9, fp, ip, sp}
 4dc:	00170213 	andseq	r0, r7, r3, lsl r2
 4e0:	011d1b00 	tsteq	sp, r0, lsl #22
 4e4:	01521331 	cmpeq	r2, r1, lsr r3
 4e8:	0b581755 	bleq	1606244 <_Min_Stack_Size+0x1605e44>
 4ec:	13010559 	movwne	r0, #5465	; 0x1559
 4f0:	051c0000 	ldreq	r0, [ip, #-0]
 4f4:	1c133100 	ldfnes	f3, [r3], {-0}
 4f8:	1d00000b 	stcne	0, cr0, [r0, #-44]	; 0xffffffd4
 4fc:	1755010b 	ldrbne	r0, [r5, -fp, lsl #2]
 500:	341e0000 	ldrcc	r0, [lr], #-0
 504:	02133100 	andseq	r3, r3, #0, 2
 508:	1f000017 	svcne	0x00000017
 50c:	13310034 	teqne	r1, #52	; 0x34
 510:	00000b1c 	andeq	r0, r0, ip, lsl fp
 514:	31011d20 	tstcc	r1, r0, lsr #26
 518:	12011113 	andne	r1, r1, #-1073741820	; 0xc0000004
 51c:	590b5806 	stmdbpl	fp, {r1, r2, fp, ip, lr}
 520:	21000005 	tstcs	r0, r5
 524:	0111010b 	tsteq	r1, fp, lsl #2
 528:	00000612 	andeq	r0, r0, r2, lsl r6
 52c:	03000522 	movweq	r0, #1314	; 0x522
 530:	3b0b3a0e 	blcc	2ced70 <_Min_Stack_Size+0x2ce970>
 534:	02134905 	andseq	r4, r3, #81920	; 0x14000
 538:	23000017 	movwcs	r0, #23
 53c:	193f002e 	ldmdbne	pc!, {r1, r2, r3, r5}	; <UNPREDICTABLE>
 540:	0b3a0e03 	bleq	e83d54 <_Min_Stack_Size+0xe83954>
 544:	1927053b 	stmdbne	r7!, {r0, r1, r3, r4, r5, r8, sl}
 548:	01111349 	tsteq	r1, r9, asr #6
 54c:	18400612 	stmdane	r0, {r1, r4, r9, sl}^
 550:	00194297 	mulseq	r9, r7, r2
 554:	00342400 	eorseq	r2, r4, r0, lsl #8
 558:	0b3a0803 	bleq	e8256c <_Min_Stack_Size+0xe8216c>
 55c:	1349053b 	movtne	r0, #38203	; 0x953b
 560:	00001702 	andeq	r1, r0, r2, lsl #14
 564:	0b000f25 	bleq	4200 <_Min_Stack_Size+0x3e00>
 568:	0013490b 	andseq	r4, r3, fp, lsl #18
 56c:	012e2600 			; <UNDEFINED> instruction: 0x012e2600
 570:	01111331 	tsteq	r1, r1, lsr r3
 574:	18400612 	stmdane	r0, {r1, r4, r9, sl}^
 578:	01194297 			; <UNDEFINED> instruction: 0x01194297
 57c:	27000013 	smladcs	r0, r3, r0, r0
 580:	13310005 	teqne	r1, #5
 584:	00001702 	andeq	r1, r0, r2, lsl #14
 588:	3f002e28 	svccc	0x00002e28
 58c:	3a0e0319 	bcc	3811f8 <_Min_Stack_Size+0x380df8>
 590:	27053b0b 	strcs	r3, [r5, -fp, lsl #22]
 594:	12011119 	andne	r1, r1, #1073741830	; 0x40000006
 598:	97184006 	ldrls	r4, [r8, -r6]
 59c:	00001942 	andeq	r1, r0, r2, asr #18
 5a0:	03003429 	movweq	r3, #1065	; 0x429
 5a4:	3b0b3a0e 	blcc	2cede4 <_Min_Stack_Size+0x2ce9e4>
 5a8:	0213490b 	andseq	r4, r3, #180224	; 0x2c000
 5ac:	2a000018 	bcs	614 <_Min_Stack_Size+0x214>
 5b0:	13490026 	movtne	r0, #36902	; 0x9026
 5b4:	342b0000 	strtcc	r0, [fp], #-0
 5b8:	3a0e0300 	bcc	3811c0 <_Min_Stack_Size+0x380dc0>
 5bc:	49053b0b 	stmdbmi	r5, {r0, r1, r3, r8, r9, fp, ip, sp}
 5c0:	3c193f13 	ldccc	15, cr3, [r9], {19}
 5c4:	00000019 	andeq	r0, r0, r9, lsl r0
 5c8:	25011101 	strcs	r1, [r1, #-257]	; 0x101
 5cc:	030b130e 	movweq	r1, #45838	; 0xb30e
 5d0:	110e1b0e 	tstne	lr, lr, lsl #22
 5d4:	10061201 	andne	r1, r6, r1, lsl #4
 5d8:	02000017 	andeq	r0, r0, #23
 5dc:	0b0b0024 	bleq	2c0674 <_Min_Stack_Size+0x2c0274>
 5e0:	0e030b3e 	vmoveq.16	d3[0], r0
 5e4:	16030000 	strne	r0, [r3], -r0
 5e8:	3a0e0300 	bcc	3811f0 <_Min_Stack_Size+0x380df0>
 5ec:	490b3b0b 	stmdbmi	fp, {r0, r1, r3, r8, r9, fp, ip, sp}
 5f0:	04000013 	streq	r0, [r0], #-19
 5f4:	0b0b0024 	bleq	2c068c <_Min_Stack_Size+0x2c028c>
 5f8:	08030b3e 	stmdaeq	r3, {r1, r2, r3, r4, r5, r8, r9, fp}
 5fc:	35050000 	strcc	r0, [r5, #-0]
 600:	00134900 	andseq	r4, r3, r0, lsl #18
 604:	01130600 	tsteq	r3, r0, lsl #12
 608:	0b3a0b0b 	bleq	e8323c <_Min_Stack_Size+0xe82e3c>
 60c:	1301053b 	movwne	r0, #5435	; 0x153b
 610:	0d070000 	stceq	0, cr0, [r7, #-0]
 614:	3a0e0300 	bcc	38121c <_Min_Stack_Size+0x380e1c>
 618:	49053b0b 	stmdbmi	r5, {r0, r1, r3, r8, r9, fp, ip, sp}
 61c:	000b3813 	andeq	r3, fp, r3, lsl r8
 620:	000d0800 	andeq	r0, sp, r0, lsl #16
 624:	0b3a0803 	bleq	e82638 <_Min_Stack_Size+0xe82238>
 628:	1349053b 	movtne	r0, #38203	; 0x953b
 62c:	00000b38 	andeq	r0, r0, r8, lsr fp
 630:	49002609 	stmdbmi	r0, {r0, r3, r9, sl, sp}
 634:	0a000013 	beq	688 <_Min_Stack_Size+0x288>
 638:	13490101 	movtne	r0, #37121	; 0x9101
 63c:	00001301 	andeq	r1, r0, r1, lsl #6
 640:	4900210b 	stmdbmi	r0, {r0, r1, r3, r8, sp}
 644:	000b2f13 	andeq	r2, fp, r3, lsl pc
 648:	00160c00 	andseq	r0, r6, r0, lsl #24
 64c:	0b3a0e03 	bleq	e83e60 <_Min_Stack_Size+0xe83a60>
 650:	1349053b 	movtne	r0, #38203	; 0x953b
 654:	040d0000 	streq	r0, [sp], #-0
 658:	3a0b0b01 	bcc	2c3264 <_Min_Stack_Size+0x2c2e64>
 65c:	01053b0b 	tsteq	r5, fp, lsl #22
 660:	0e000013 	mcreq	0, 0, r0, cr0, cr3, {0}
 664:	0e030028 	cdpeq	0, 0, cr0, cr3, cr8, {1}
 668:	00000d1c 	andeq	r0, r0, ip, lsl sp
 66c:	0300280f 	movweq	r2, #2063	; 0x80f
 670:	000d1c08 	andeq	r1, sp, r8, lsl #24
 674:	012e1000 			; <UNDEFINED> instruction: 0x012e1000
 678:	0b3a0e03 	bleq	e83e8c <_Min_Stack_Size+0xe83a8c>
 67c:	1927053b 	stmdbne	r7!, {r0, r1, r3, r4, r5, r8, sl}
 680:	13010b20 	movwne	r0, #6944	; 0x1b20
 684:	34110000 	ldrcc	r0, [r1], #-0
 688:	3a0e0300 	bcc	381290 <_Min_Stack_Size+0x380e90>
 68c:	49053b0b 	stmdbmi	r5, {r0, r1, r3, r8, r9, fp, ip, sp}
 690:	12000013 	andne	r0, r0, #19
 694:	193f012e 	ldmdbne	pc!, {r1, r2, r3, r5, r8}	; <UNPREDICTABLE>
 698:	0b3a0e03 	bleq	e83eac <_Min_Stack_Size+0xe83aac>
 69c:	1927053b 	stmdbne	r7!, {r0, r1, r3, r4, r5, r8, sl}
 6a0:	06120111 			; <UNDEFINED> instruction: 0x06120111
 6a4:	42971840 	addsmi	r1, r7, #64, 16	; 0x400000
 6a8:	00130119 	andseq	r0, r3, r9, lsl r1
 6ac:	011d1300 	tsteq	sp, r0, lsl #6
 6b0:	01521331 	cmpeq	r2, r1, lsr r3
 6b4:	0b581755 	bleq	1606410 <_Min_Stack_Size+0x1606010>
 6b8:	00000559 	andeq	r0, r0, r9, asr r5
 6bc:	55010b14 	strpl	r0, [r1, #-2836]	; 0xb14
 6c0:	15000017 	strne	r0, [r0, #-23]
 6c4:	13310034 	teqne	r1, #52	; 0x34
 6c8:	00001802 	andeq	r1, r0, r2, lsl #16
 6cc:	03003416 	movweq	r3, #1046	; 0x416
 6d0:	3b0b3a08 	blcc	2ceef8 <_Min_Stack_Size+0x2ceaf8>
 6d4:	02134905 	andseq	r4, r3, #81920	; 0x14000
 6d8:	17000017 	smladne	r0, r7, r0, r0
 6dc:	0e030034 	mcreq	0, 0, r0, cr3, cr4, {1}
 6e0:	053b0b3a 	ldreq	r0, [fp, #-2874]!	; 0xb3a
 6e4:	17021349 	strne	r1, [r2, -r9, asr #6]
 6e8:	34180000 	ldrcc	r0, [r8], #-0
 6ec:	3a0e0300 	bcc	3812f4 <_Min_Stack_Size+0x380ef4>
 6f0:	49053b0b 	stmdbmi	r5, {r0, r1, r3, r8, r9, fp, ip, sp}
 6f4:	3c193f13 	ldccc	15, cr3, [r9], {19}
 6f8:	19000019 	stmdbne	r0, {r0, r3, r4}
 6fc:	0e030034 	mcreq	0, 0, r0, cr3, cr4, {1}
 700:	053b0b3a 	ldreq	r0, [fp, #-2874]!	; 0xb3a
 704:	193f1349 	ldmdbne	pc!, {r0, r3, r6, r8, r9, ip}	; <UNPREDICTABLE>
 708:	00001802 	andeq	r1, r0, r2, lsl #16
 70c:	00110100 	andseq	r0, r1, r0, lsl #2
 710:	06550610 			; <UNDEFINED> instruction: 0x06550610
 714:	081b0803 	ldmdaeq	fp, {r0, r1, fp}
 718:	05130825 	ldreq	r0, [r3, #-2085]	; 0x825
 71c:	Address 0x0000071c is out of bounds.


Disassembly of section .debug_aranges:

00000000 <.debug_aranges>:
   0:	0000001c 	andeq	r0, r0, ip, lsl r0
   4:	00000002 	andeq	r0, r0, r2
   8:	00040000 	andeq	r0, r4, r0
   c:	00000000 	andeq	r0, r0, r0
  10:	08000bf0 	stmdaeq	r0, {r4, r5, r6, r7, r8, r9, fp}
  14:	00000094 	muleq	r0, r4, r0
	...
  20:	0000001c 	andeq	r0, r0, ip, lsl r0
  24:	04060002 	streq	r0, [r6], #-2
  28:	00040000 	andeq	r0, r4, r0
  2c:	00000000 	andeq	r0, r0, r0
  30:	08000258 	stmdaeq	r0, {r3, r4, r6, r9}
  34:	000002b8 			; <UNDEFINED> instruction: 0x000002b8
	...
  40:	0000001c 	andeq	r0, r0, ip, lsl r0
  44:	0c4b0002 	mcrreq	0, 0, r0, fp, cr2
  48:	00040000 	andeq	r0, r4, r0
  4c:	00000000 	andeq	r0, r0, r0
  50:	08000510 	stmdaeq	r0, {r4, r8, sl}
  54:	00000558 	andeq	r0, r0, r8, asr r5
	...
  60:	0000001c 	andeq	r0, r0, ip, lsl r0
  64:	1b470002 	blne	11c0074 <_Min_Stack_Size+0x11bfc74>
  68:	00040000 	andeq	r0, r4, r0
  6c:	00000000 	andeq	r0, r0, r0
  70:	08000a68 	stmdaeq	r0, {r3, r5, r6, r9, fp}
  74:	00000174 	andeq	r0, r0, r4, ror r1
	...
  80:	00000024 	andeq	r0, r0, r4, lsr #32
  84:	21430002 	cmpcs	r3, r2
  88:	00040000 	andeq	r0, r4, r0
  8c:	00000000 	andeq	r0, r0, r0
  90:	08000c84 	stmdaeq	r0, {r2, r7, sl, fp}
  94:	00000048 	andeq	r0, r0, r8, asr #32
  98:	08000ccc 	stmdaeq	r0, {r2, r3, r6, r7, sl, fp}
  9c:	00000002 	andeq	r0, r0, r2
	...

Disassembly of section .debug_ranges:

00000000 <.debug_ranges>:
   0:	08000bf0 	stmdaeq	r0, {r4, r5, r6, r7, r8, r9, fp}
   4:	08000c84 	stmdaeq	r0, {r2, r7, sl, fp}
	...
  10:	00000064 	andeq	r0, r0, r4, rrx
  14:	00000066 	andeq	r0, r0, r6, rrx
  18:	00000070 	andeq	r0, r0, r0, ror r0
  1c:	00000076 	andeq	r0, r0, r6, ror r0
  20:	00000080 	andeq	r0, r0, r0, lsl #1
  24:	00000082 	andeq	r0, r0, r2, lsl #1
	...
  30:	00000038 	andeq	r0, r0, r8, lsr r0
  34:	00000078 	andeq	r0, r0, r8, ror r0
  38:	00000084 	andeq	r0, r0, r4, lsl #1
  3c:	00000100 	andeq	r0, r0, r0, lsl #2
	...
  48:	ffffffff 			; <UNDEFINED> instruction: 0xffffffff
  4c:	00000000 	andeq	r0, r0, r0
  50:	08000c84 	stmdaeq	r0, {r2, r7, sl, fp}
  54:	08000ccc 	stmdaeq	r0, {r2, r3, r6, r7, sl, fp}
  58:	08000ccc 	stmdaeq	r0, {r2, r3, r6, r7, sl, fp}
  5c:	08000cce 	stmdaeq	r0, {r1, r2, r3, r6, r7, sl, fp}
	...

Disassembly of section .debug_line:

00000000 <.debug_line>:
   0:	00000209 	andeq	r0, r0, r9, lsl #4
   4:	01d60002 	bicseq	r0, r6, r2
   8:	01020000 	mrseq	r0, (UNDEF: 2)
   c:	000d0efb 	strdeq	r0, [sp], -fp
  10:	01010101 	tsteq	r1, r1, lsl #2
  14:	01000000 	mrseq	r0, (UNDEF: 0)
  18:	2f010000 	svccs	0x00010000
  1c:	2f74706f 	svccs	0x0074706f
  20:	2d636367 	stclcs	3, cr6, [r3, #-412]!	; 0xfffffe64
  24:	2d6d7261 	sfmcs	f7, 2, [sp, #-388]!	; 0xfffffe7c
  28:	656e6f6e 	strbvs	r6, [lr, #-3950]!	; 0xf6e
  2c:	6261652d 	rsbvs	r6, r1, #188743680	; 0xb400000
  30:	5f342d69 	svcpl	0x00342d69
  34:	30322d39 	eorscc	r2, r2, r9, lsr sp
  38:	33713531 	cmncc	r1, #205520896	; 0xc400000
  3c:	6d72612f 	ldfvse	f6, [r2, #-188]!	; 0xffffff44
  40:	6e6f6e2d 	cdpvs	14, 6, cr6, cr15, cr13, {1}
  44:	61652d65 	cmnvs	r5, r5, ror #26
  48:	692f6962 	stmdbvs	pc!, {r1, r5, r6, r8, fp, sp, lr}	; <UNPREDICTABLE>
  4c:	756c636e 	strbvc	r6, [ip, #-878]!	; 0x36e
  50:	6d2f6564 	cfstr32vs	mvfx6, [pc, #-400]!	; fffffec8 <_estack+0xdffdfec9>
  54:	69686361 	stmdbvs	r8!, {r0, r5, r6, r8, r9, sp, lr}^
  58:	2f00656e 	svccs	0x0000656e
  5c:	2f74706f 	svccs	0x0074706f
  60:	2d636367 	stclcs	3, cr6, [r3, #-412]!	; 0xfffffe64
  64:	2d6d7261 	sfmcs	f7, 2, [sp, #-388]!	; 0xfffffe7c
  68:	656e6f6e 	strbvs	r6, [lr, #-3950]!	; 0xf6e
  6c:	6261652d 	rsbvs	r6, r1, #188743680	; 0xb400000
  70:	5f342d69 	svcpl	0x00342d69
  74:	30322d39 	eorscc	r2, r2, r9, lsr sp
  78:	33713531 	cmncc	r1, #205520896	; 0xc400000
  7c:	6d72612f 	ldfvse	f6, [r2, #-188]!	; 0xffffff44
  80:	6e6f6e2d 	cdpvs	14, 6, cr6, cr15, cr13, {1}
  84:	61652d65 	cmnvs	r5, r5, ror #26
  88:	692f6962 	stmdbvs	pc!, {r1, r5, r6, r8, fp, sp, lr}	; <UNPREDICTABLE>
  8c:	756c636e 	strbvc	r6, [ip, #-878]!	; 0x36e
  90:	732f6564 			; <UNDEFINED> instruction: 0x732f6564
  94:	53007379 	movwpl	r7, #889	; 0x379
  98:	32334d54 	eorscc	r4, r3, #84, 26	; 0x1500
  9c:	78783446 	ldmdavc	r8!, {r1, r2, r6, sl, ip, sp}^
  a0:	5053445f 	subspl	r4, r3, pc, asr r4
  a4:	6474535f 	ldrbtvs	r5, [r4], #-863	; 0x35f
  a8:	69726550 	ldmdbvs	r2!, {r4, r6, r8, sl, sp, lr}^
  ac:	4c5f6870 	mrrcmi	8, 7, r6, pc, cr0	; <UNPREDICTABLE>
  b0:	565f6269 	ldrbpl	r6, [pc], -r9, ror #4
  b4:	2e382e31 	mrccs	14, 1, r2, cr8, cr1, {1}
  b8:	694c2f30 	stmdbvs	ip, {r4, r5, r8, r9, sl, fp, sp}^
  bc:	72617262 	rsbvc	r7, r1, #536870918	; 0x20000006
  c0:	2f736569 	svccs	0x00736569
  c4:	49534d43 	ldmdbmi	r3, {r0, r1, r6, r8, sl, fp, lr}^
  c8:	65442f53 	strbvs	r2, [r4, #-3923]	; 0xf53
  cc:	65636976 	strbvs	r6, [r3, #-2422]!	; 0x976
  d0:	2f54532f 	svccs	0x0054532f
  d4:	334d5453 	movtcc	r5, #54355	; 0xd453
  d8:	78344632 	ldmdavc	r4!, {r1, r4, r5, r9, sl, lr}
  dc:	6e492f78 	mcrvs	15, 2, r2, cr9, cr8, {3}
  e0:	64756c63 	ldrbtvs	r6, [r5], #-3171	; 0xc63
  e4:	54530065 	ldrbpl	r0, [r3], #-101	; 0x65
  e8:	4632334d 	ldrtmi	r3, [r2], -sp, asr #6
  ec:	5f787834 	svcpl	0x00787834
  f0:	5f505344 	svcpl	0x00505344
  f4:	50647453 	rsbpl	r7, r4, r3, asr r4
  f8:	70697265 	rsbvc	r7, r9, r5, ror #4
  fc:	694c5f68 	stmdbvs	ip, {r3, r5, r6, r8, r9, sl, fp, ip, lr}^
 100:	31565f62 	cmpcc	r6, r2, ror #30
 104:	302e382e 	eorcc	r3, lr, lr, lsr #16
 108:	62694c2f 	rsbvs	r4, r9, #12032	; 0x2f00
 10c:	69726172 	ldmdbvs	r2!, {r1, r4, r5, r6, r8, sp, lr}^
 110:	532f7365 			; <UNDEFINED> instruction: 0x532f7365
 114:	32334d54 	eorscc	r4, r3, #84, 26	; 0x1500
 118:	78783446 	ldmdavc	r8!, {r1, r2, r6, sl, ip, sp}^
 11c:	6474535f 	ldrbtvs	r5, [r4], #-863	; 0x35f
 120:	69726550 	ldmdbvs	r2!, {r4, r6, r8, sl, sp, lr}^
 124:	445f6870 	ldrbmi	r6, [pc], #-2160	; 12c <_Min_Heap_Size-0xd4>
 128:	65766972 	ldrbvs	r6, [r6, #-2418]!	; 0x972
 12c:	6e692f72 	mcrvs	15, 3, r2, cr9, cr2, {3}
 130:	54530063 	ldrbpl	r0, [r3], #-99	; 0x63
 134:	4632334d 	ldrtmi	r3, [r2], -sp, asr #6
 138:	5f787834 	svcpl	0x00787834
 13c:	5f505344 	svcpl	0x00505344
 140:	50647453 	rsbpl	r7, r4, r3, asr r4
 144:	70697265 	rsbvc	r7, r9, r5, ror #4
 148:	694c5f68 	stmdbvs	ip, {r3, r5, r6, r8, r9, sl, fp, ip, lr}^
 14c:	31565f62 	cmpcc	r6, r2, ror #30
 150:	302e382e 	eorcc	r3, lr, lr, lsr #16
 154:	62694c2f 	rsbvs	r4, r9, #12032	; 0x2f00
 158:	69726172 	ldmdbvs	r2!, {r1, r4, r5, r6, r8, sp, lr}^
 15c:	432f7365 			; <UNDEFINED> instruction: 0x432f7365
 160:	5349534d 	movtpl	r5, #37709	; 0x934d
 164:	636e492f 	cmnvs	lr, #770048	; 0xbc000
 168:	6564756c 	strbvs	r7, [r4, #-1388]!	; 0x56c
 16c:	6f740000 	svcvs	0x00740000
 170:	656c6767 	strbvs	r6, [ip, #-1895]!	; 0x767
 174:	0000632e 	andeq	r6, r0, lr, lsr #6
 178:	645f0000 	ldrbvs	r0, [pc], #-0	; 180 <_Min_Heap_Size-0x80>
 17c:	75616665 	strbvc	r6, [r1, #-1637]!	; 0x665
 180:	745f746c 	ldrbvc	r7, [pc], #-1132	; 188 <_Min_Heap_Size-0x78>
 184:	73657079 	cmnvc	r5, #121	; 0x79
 188:	0100682e 	tsteq	r0, lr, lsr #16
 18c:	735f0000 	cmpvc	pc, #0
 190:	6e696474 	mcrvs	4, 3, r6, cr9, cr4, {3}
 194:	00682e74 	rsbeq	r2, r8, r4, ror lr
 198:	73000002 	movwvc	r0, #2
 19c:	32336d74 	eorscc	r6, r3, #116, 26	; 0x1d00
 1a0:	78783466 	ldmdavc	r8!, {r1, r2, r5, r6, sl, ip, sp}^
 1a4:	0300682e 	movweq	r6, #2094	; 0x82e
 1a8:	74730000 	ldrbtvc	r0, [r3], #-0
 1ac:	6632336d 	ldrtvs	r3, [r2], -sp, ror #6
 1b0:	5f787834 	svcpl	0x00787834
 1b4:	6f697067 	svcvs	0x00697067
 1b8:	0400682e 	streq	r6, [r0], #-2094	; 0x82e
 1bc:	74730000 	ldrbtvc	r0, [r3], #-0
 1c0:	6632336d 	ldrtvs	r3, [r2], -sp, ror #6
 1c4:	5f787834 	svcpl	0x00787834
 1c8:	2e636372 	mcrcs	3, 3, r6, cr3, cr2, {3}
 1cc:	00040068 	andeq	r0, r4, r8, rrx
 1d0:	726f6300 	rsbvc	r6, pc, #0, 6
 1d4:	6d635f65 	stclvs	15, cr5, [r3, #-404]!	; 0xfffffe6c
 1d8:	00682e34 	rsbeq	r2, r8, r4, lsr lr
 1dc:	00000005 	andeq	r0, r0, r5
 1e0:	f0020500 			; <UNDEFINED> instruction: 0xf0020500
 1e4:	1808000b 	stmdane	r8, {r0, r1, r3}
 1e8:	40221e22 	eormi	r1, r2, r2, lsr #28
 1ec:	1f331f1f 	svcne	0x00331f1f
 1f0:	2f211b21 	svccs	0x00211b21
 1f4:	302f2f2f 	eorcc	r2, pc, pc, lsr #30
 1f8:	2a2d224f 	bcs	b48b3c <_Min_Stack_Size+0xb4873c>
 1fc:	302f2f21 	eorcc	r2, pc, r1, lsr #30
 200:	4c593130 	ldfmie	f3, [r9], {48}	; 0x30
 204:	6c472f1f 	mcrrvs	15, 1, r2, r7, cr15
 208:	01000802 	tsteq	r0, r2, lsl #16
 20c:	00033601 	andeq	r3, r3, r1, lsl #12
 210:	2a000200 	bcs	a18 <_Min_Stack_Size+0x618>
 214:	02000002 	andeq	r0, r0, #2
 218:	0d0efb01 	vstreq	d15, [lr, #-4]
 21c:	01010100 	mrseq	r0, (UNDEF: 17)
 220:	00000001 	andeq	r0, r0, r1
 224:	01000001 	tsteq	r0, r1
 228:	334d5453 	movtcc	r5, #54355	; 0xd453
 22c:	78344632 	ldmdavc	r4!, {r1, r4, r5, r9, sl, lr}
 230:	53445f78 	movtpl	r5, #20344	; 0x4f78
 234:	74535f50 	ldrbvc	r5, [r3], #-3920	; 0xf50
 238:	72655064 	rsbvc	r5, r5, #100	; 0x64
 23c:	5f687069 	svcpl	0x00687069
 240:	5f62694c 	svcpl	0x0062694c
 244:	382e3156 	stmdacc	lr!, {r1, r2, r4, r6, r8, ip, sp}
 248:	4c2f302e 	stcmi	0, cr3, [pc], #-184	; 198 <_Min_Heap_Size-0x68>
 24c:	61726269 	cmnvs	r2, r9, ror #4
 250:	73656972 	cmnvc	r5, #1867776	; 0x1c8000
 254:	4d54532f 	ldclmi	3, cr5, [r4, #-188]	; 0xffffff44
 258:	34463233 	strbcc	r3, [r6], #-563	; 0x233
 25c:	535f7878 	cmppl	pc, #120, 16	; 0x780000
 260:	65506474 	ldrbvs	r6, [r0, #-1140]	; 0x474
 264:	68706972 	ldmdavs	r0!, {r1, r4, r5, r6, r8, fp, sp, lr}^
 268:	6972445f 	ldmdbvs	r2!, {r0, r1, r2, r3, r4, r6, sl, lr}^
 26c:	2f726576 	svccs	0x00726576
 270:	00637273 	rsbeq	r7, r3, r3, ror r2
 274:	74706f2f 	ldrbtvc	r6, [r0], #-3887	; 0xf2f
 278:	6363672f 	cmnvs	r3, #12320768	; 0xbc0000
 27c:	6d72612d 	ldfvse	f6, [r2, #-180]!	; 0xffffff4c
 280:	6e6f6e2d 	cdpvs	14, 6, cr6, cr15, cr13, {1}
 284:	61652d65 	cmnvs	r5, r5, ror #26
 288:	342d6962 	strtcc	r6, [sp], #-2402	; 0x962
 28c:	322d395f 	eorcc	r3, sp, #1556480	; 0x17c000
 290:	71353130 	teqvc	r5, r0, lsr r1
 294:	72612f33 	rsbvc	r2, r1, #51, 30	; 0xcc
 298:	6f6e2d6d 	svcvs	0x006e2d6d
 29c:	652d656e 	strvs	r6, [sp, #-1390]!	; 0x56e
 2a0:	2f696261 	svccs	0x00696261
 2a4:	6c636e69 	stclvs	14, cr6, [r3], #-420	; 0xfffffe5c
 2a8:	2f656475 	svccs	0x00656475
 2ac:	6863616d 	stmdavs	r3!, {r0, r2, r3, r5, r6, r8, sp, lr}^
 2b0:	00656e69 	rsbeq	r6, r5, r9, ror #28
 2b4:	74706f2f 	ldrbtvc	r6, [r0], #-3887	; 0xf2f
 2b8:	6363672f 	cmnvs	r3, #12320768	; 0xbc0000
 2bc:	6d72612d 	ldfvse	f6, [r2, #-180]!	; 0xffffff4c
 2c0:	6e6f6e2d 	cdpvs	14, 6, cr6, cr15, cr13, {1}
 2c4:	61652d65 	cmnvs	r5, r5, ror #26
 2c8:	342d6962 	strtcc	r6, [sp], #-2402	; 0x962
 2cc:	322d395f 	eorcc	r3, sp, #1556480	; 0x17c000
 2d0:	71353130 	teqvc	r5, r0, lsr r1
 2d4:	72612f33 	rsbvc	r2, r1, #51, 30	; 0xcc
 2d8:	6f6e2d6d 	svcvs	0x006e2d6d
 2dc:	652d656e 	strvs	r6, [sp, #-1390]!	; 0x56e
 2e0:	2f696261 	svccs	0x00696261
 2e4:	6c636e69 	stclvs	14, cr6, [r3], #-420	; 0xfffffe5c
 2e8:	2f656475 	svccs	0x00656475
 2ec:	00737973 	rsbseq	r7, r3, r3, ror r9
 2f0:	334d5453 	movtcc	r5, #54355	; 0xd453
 2f4:	78344632 	ldmdavc	r4!, {r1, r4, r5, r9, sl, lr}
 2f8:	53445f78 	movtpl	r5, #20344	; 0x4f78
 2fc:	74535f50 	ldrbvc	r5, [r3], #-3920	; 0xf50
 300:	72655064 	rsbvc	r5, r5, #100	; 0x64
 304:	5f687069 	svcpl	0x00687069
 308:	5f62694c 	svcpl	0x0062694c
 30c:	382e3156 	stmdacc	lr!, {r1, r2, r4, r6, r8, ip, sp}
 310:	4c2f302e 	stcmi	0, cr3, [pc], #-184	; 260 <_Min_Heap_Size+0x60>
 314:	61726269 	cmnvs	r2, r9, ror #4
 318:	73656972 	cmnvc	r5, #1867776	; 0x1c8000
 31c:	534d432f 	movtpl	r4, #54063	; 0xd32f
 320:	442f5349 	strtmi	r5, [pc], #-841	; 328 <_Min_Heap_Size+0x128>
 324:	63697665 	cmnvs	r9, #105906176	; 0x6500000
 328:	54532f65 	ldrbpl	r2, [r3], #-3941	; 0xf65
 32c:	4d54532f 	ldclmi	3, cr5, [r4, #-188]	; 0xffffff44
 330:	34463233 	strbcc	r3, [r6], #-563	; 0x233
 334:	492f7878 	stmdbmi	pc!, {r3, r4, r5, r6, fp, ip, sp, lr}	; <UNPREDICTABLE>
 338:	756c636e 	strbvc	r6, [ip, #-878]!	; 0x36e
 33c:	53006564 	movwpl	r6, #1380	; 0x564
 340:	32334d54 	eorscc	r4, r3, #84, 26	; 0x1500
 344:	78783446 	ldmdavc	r8!, {r1, r2, r6, sl, ip, sp}^
 348:	5053445f 	subspl	r4, r3, pc, asr r4
 34c:	6474535f 	ldrbtvs	r5, [r4], #-863	; 0x35f
 350:	69726550 	ldmdbvs	r2!, {r4, r6, r8, sl, sp, lr}^
 354:	4c5f6870 	mrrcmi	8, 7, r6, pc, cr0	; <UNPREDICTABLE>
 358:	565f6269 	ldrbpl	r6, [pc], -r9, ror #4
 35c:	2e382e31 	mrccs	14, 1, r2, cr8, cr1, {1}
 360:	694c2f30 	stmdbvs	ip, {r4, r5, r8, r9, sl, fp, sp}^
 364:	72617262 	rsbvc	r7, r1, #536870918	; 0x20000006
 368:	2f736569 	svccs	0x00736569
 36c:	334d5453 	movtcc	r5, #54355	; 0xd453
 370:	78344632 	ldmdavc	r4!, {r1, r4, r5, r9, sl, lr}
 374:	74535f78 	ldrbvc	r5, [r3], #-3960	; 0xf78
 378:	72655064 	rsbvc	r5, r5, #100	; 0x64
 37c:	5f687069 	svcpl	0x00687069
 380:	76697244 	strbtvc	r7, [r9], -r4, asr #4
 384:	692f7265 	stmdbvs	pc!, {r0, r2, r5, r6, r9, ip, sp, lr}	; <UNPREDICTABLE>
 388:	5300636e 	movwpl	r6, #878	; 0x36e
 38c:	32334d54 	eorscc	r4, r3, #84, 26	; 0x1500
 390:	78783446 	ldmdavc	r8!, {r1, r2, r6, sl, ip, sp}^
 394:	5053445f 	subspl	r4, r3, pc, asr r4
 398:	6474535f 	ldrbtvs	r5, [r4], #-863	; 0x35f
 39c:	69726550 	ldmdbvs	r2!, {r4, r6, r8, sl, sp, lr}^
 3a0:	4c5f6870 	mrrcmi	8, 7, r6, pc, cr0	; <UNPREDICTABLE>
 3a4:	565f6269 	ldrbpl	r6, [pc], -r9, ror #4
 3a8:	2e382e31 	mrccs	14, 1, r2, cr8, cr1, {1}
 3ac:	694c2f30 	stmdbvs	ip, {r4, r5, r8, r9, sl, fp, sp}^
 3b0:	72617262 	rsbvc	r7, r1, #536870918	; 0x20000006
 3b4:	2f736569 	svccs	0x00736569
 3b8:	49534d43 	ldmdbmi	r3, {r0, r1, r6, r8, sl, fp, lr}^
 3bc:	6e492f53 	mcrvs	15, 2, r2, cr9, cr3, {2}
 3c0:	64756c63 	ldrbtvs	r6, [r5], #-3171	; 0xc63
 3c4:	73000065 	movwvc	r0, #101	; 0x65
 3c8:	32336d74 	eorscc	r6, r3, #116, 26	; 0x1d00
 3cc:	78783466 	ldmdavc	r8!, {r1, r2, r5, r6, sl, ip, sp}^
 3d0:	6970675f 	ldmdbvs	r0!, {r0, r1, r2, r3, r4, r6, r8, r9, sl, sp, lr}^
 3d4:	00632e6f 	rsbeq	r2, r3, pc, ror #28
 3d8:	5f000001 	svcpl	0x00000001
 3dc:	61666564 	cmnvs	r6, r4, ror #10
 3e0:	5f746c75 	svcpl	0x00746c75
 3e4:	65707974 	ldrbvs	r7, [r0, #-2420]!	; 0x974
 3e8:	00682e73 	rsbeq	r2, r8, r3, ror lr
 3ec:	5f000002 	svcpl	0x00000002
 3f0:	69647473 	stmdbvs	r4!, {r0, r1, r4, r5, r6, sl, ip, sp, lr}^
 3f4:	682e746e 	stmdavs	lr!, {r1, r2, r3, r5, r6, sl, ip, sp, lr}
 3f8:	00000300 	andeq	r0, r0, r0, lsl #6
 3fc:	336d7473 	cmncc	sp, #1929379840	; 0x73000000
 400:	78346632 	ldmdavc	r4!, {r1, r4, r5, r9, sl, sp, lr}
 404:	00682e78 	rsbeq	r2, r8, r8, ror lr
 408:	73000004 	movwvc	r0, #4
 40c:	32336d74 	eorscc	r6, r3, #116, 26	; 0x1d00
 410:	78783466 	ldmdavc	r8!, {r1, r2, r5, r6, sl, ip, sp}^
 414:	6970675f 	ldmdbvs	r0!, {r0, r1, r2, r3, r4, r6, r8, r9, sl, sp, lr}^
 418:	00682e6f 	rsbeq	r2, r8, pc, ror #28
 41c:	63000005 	movwvs	r0, #5
 420:	5f65726f 	svcpl	0x0065726f
 424:	2e346d63 	cdpcs	13, 3, cr6, cr4, cr3, {3}
 428:	00060068 	andeq	r0, r6, r8, rrx
 42c:	6d747300 	ldclvs	3, cr7, [r4, #-0]
 430:	34663233 	strbtcc	r3, [r6], #-563	; 0x233
 434:	725f7878 	subsvc	r7, pc, #120, 16	; 0x780000
 438:	682e6363 	stmdavs	lr!, {r0, r1, r5, r6, r8, r9, sp, lr}
 43c:	00000500 	andeq	r0, r0, r0, lsl #10
 440:	02050000 	andeq	r0, r5, #0
 444:	08000258 	stmdaeq	r0, {r3, r4, r6, r9}
 448:	0100ff03 	tsteq	r0, r3, lsl #30	; <UNPREDICTABLE>
 44c:	41414124 	cmpmi	r1, r4, lsr #2
 450:	41414141 	cmpmi	r1, r1, asr #2
 454:	4c434142 	stfmie	f4, [r3], {66}	; 0x42
 458:	032b3f59 			; <UNDEFINED> instruction: 0x032b3f59
 45c:	034b2e4a 	movteq	r2, #48714	; 0xbe4a
 460:	48032e38 	stmdami	r3, {r3, r4, r5, r9, sl, fp, sp}
 464:	034b322e 	movteq	r3, #45614	; 0xb22e
 468:	4d032e33 	stcmi	14, cr2, [r3, #-204]	; 0xffffff34
 46c:	034b322e 	movteq	r3, #45614	; 0xb22e
 470:	52032e2e 	andpl	r2, r3, #736	; 0x2e0
 474:	034b322e 	movteq	r3, #45614	; 0xb22e
 478:	57032e29 	strpl	r2, [r3, -r9, lsr #28]
 47c:	034b322e 	movteq	r3, #45614	; 0xb22e
 480:	5c032e24 	stcpl	14, cr2, [r3], {36}	; 0x24
 484:	034b322e 	movteq	r3, #45614	; 0xb22e
 488:	61032e1f 	tstvs	r3, pc, lsl lr
 48c:	034b322e 	movteq	r3, #45614	; 0xb22e
 490:	66032e1a 			; <UNDEFINED> instruction: 0x66032e1a
 494:	034b322e 	movteq	r3, #45614	; 0xb22e
 498:	6b032e15 	blvs	cbcf4 <_Min_Stack_Size+0xcb8f4>
 49c:	0359332e 	cmpeq	r9, #-1207959552	; 0xb8000000
 4a0:	71033c0f 	tstvc	r3, pc, lsl #24
 4a4:	0359322e 	cmpeq	r9, #-536870910	; 0xe0000002
 4a8:	76033c0a 	strvc	r3, [r3], -sl, lsl #24
 4ac:	0816032e 	ldmdaeq	r6, {r1, r2, r3, r5, r8, r9}
 4b0:	3c0b0382 	stccc	3, cr0, [fp], {130}	; 0x82
 4b4:	0200263e 	andeq	r2, r0, #65011712	; 0x3e00000
 4b8:	78030204 	stmdavc	r3, {r2, r9}
 4bc:	30305a3c 	eorscc	r5, r0, ip, lsr sl
 4c0:	751f2f30 	ldrvc	r2, [pc, #-3888]	; fffff598 <_estack+0xdffdf599>
 4c4:	1e301e4c 	cdpne	14, 3, cr1, cr0, cr12, {2}
 4c8:	20120330 	andscs	r0, r2, r0, lsr r3
 4cc:	032f1f21 			; <UNDEFINED> instruction: 0x032f1f21
 4d0:	1e033c62 	cdpne	12, 0, cr3, cr3, cr2, {3}
 4d4:	20620320 	rsbcs	r0, r2, r0, lsr #6
 4d8:	03201e03 			; <UNDEFINED> instruction: 0x03201e03
 4dc:	21033c62 	tstcs	r3, r2, ror #24
 4e0:	2e700320 	cdpcs	3, 7, cr0, cr0, cr0, {1}
 4e4:	7803352f 	stmdavc	r3, {r0, r1, r2, r3, r5, r8, sl, ip, sp}
 4e8:	59884b20 	stmibpl	r8, {r5, r8, r9, fp, lr}
 4ec:	159e1003 	ldrne	r1, [lr, #3]
 4f0:	21213d1f 			; <UNDEFINED> instruction: 0x21213d1f
 4f4:	3c110321 	ldccc	3, cr0, [r1], {33}	; 0x21
 4f8:	303e4221 	eorscc	r4, lr, r1, lsr #4
 4fc:	2f303022 	svccs	0x00303022
 500:	192e1c03 	stmdbne	lr!, {r0, r1, sl, fp, ip}
 504:	032e0903 			; <UNDEFINED> instruction: 0x032e0903
 508:	21164a0a 	tstcs	r6, sl, lsl #20
 50c:	193c0c03 	ldmdbne	ip!, {r0, r1, sl, fp}
 510:	032e0903 			; <UNDEFINED> instruction: 0x032e0903
 514:	21164a0a 	tstcs	r6, sl, lsl #20
 518:	173c0f03 	ldrne	r0, [ip, -r3, lsl #30]!
 51c:	172e1003 	strne	r1, [lr, -r3]!
 520:	182e1103 	stmdane	lr!, {r0, r1, r8, ip}
 524:	11032a26 	tstne	r3, r6, lsr #20
 528:	0c03163c 	stceq	6, cr1, [r3], {60}	; 0x3c
 52c:	cf03162e 	svcgt	0x0003162e
 530:	09034a00 	stmdbeq	r3, {r9, fp, lr}
 534:	2e77033c 	mrccs	3, 3, r0, cr7, cr12, {1}
 538:	21200903 			; <UNDEFINED> instruction: 0x21200903
 53c:	222a2267 	eorcs	r2, sl, #1879048198	; 0x70000006
 540:	01022121 	tsteq	r2, r1, lsr #2
 544:	ff010100 			; <UNDEFINED> instruction: 0xff010100
 548:	02000003 	andeq	r0, r0, #3
 54c:	00021500 	andeq	r1, r2, r0, lsl #10
 550:	fb010200 	blx	40d5a <_Min_Stack_Size+0x4095a>
 554:	01000d0e 	tsteq	r0, lr, lsl #26
 558:	00010101 	andeq	r0, r1, r1, lsl #2
 55c:	00010000 	andeq	r0, r1, r0
 560:	54530100 	ldrbpl	r0, [r3], #-256	; 0x100
 564:	4632334d 	ldrtmi	r3, [r2], -sp, asr #6
 568:	5f787834 	svcpl	0x00787834
 56c:	5f505344 	svcpl	0x00505344
 570:	50647453 	rsbpl	r7, r4, r3, asr r4
 574:	70697265 	rsbvc	r7, r9, r5, ror #4
 578:	694c5f68 	stmdbvs	ip, {r3, r5, r6, r8, r9, sl, fp, ip, lr}^
 57c:	31565f62 	cmpcc	r6, r2, ror #30
 580:	302e382e 	eorcc	r3, lr, lr, lsr #16
 584:	62694c2f 	rsbvs	r4, r9, #12032	; 0x2f00
 588:	69726172 	ldmdbvs	r2!, {r1, r4, r5, r6, r8, sp, lr}^
 58c:	532f7365 			; <UNDEFINED> instruction: 0x532f7365
 590:	32334d54 	eorscc	r4, r3, #84, 26	; 0x1500
 594:	78783446 	ldmdavc	r8!, {r1, r2, r6, sl, ip, sp}^
 598:	6474535f 	ldrbtvs	r5, [r4], #-863	; 0x35f
 59c:	69726550 	ldmdbvs	r2!, {r4, r6, r8, sl, sp, lr}^
 5a0:	445f6870 	ldrbmi	r6, [pc], #-2160	; 5a8 <_Min_Stack_Size+0x1a8>
 5a4:	65766972 	ldrbvs	r6, [r6, #-2418]!	; 0x972
 5a8:	72732f72 	rsbsvc	r2, r3, #456	; 0x1c8
 5ac:	6f2f0063 	svcvs	0x002f0063
 5b0:	672f7470 			; <UNDEFINED> instruction: 0x672f7470
 5b4:	612d6363 			; <UNDEFINED> instruction: 0x612d6363
 5b8:	6e2d6d72 	mcrvs	13, 1, r6, cr13, cr2, {3}
 5bc:	2d656e6f 	stclcs	14, cr6, [r5, #-444]!	; 0xfffffe44
 5c0:	69626165 	stmdbvs	r2!, {r0, r2, r5, r6, r8, sp, lr}^
 5c4:	395f342d 	ldmdbcc	pc, {r0, r2, r3, r5, sl, ip, sp}^	; <UNPREDICTABLE>
 5c8:	3130322d 	teqcc	r0, sp, lsr #4
 5cc:	2f337135 	svccs	0x00337135
 5d0:	2d6d7261 	sfmcs	f7, 2, [sp, #-388]!	; 0xfffffe7c
 5d4:	656e6f6e 	strbvs	r6, [lr, #-3950]!	; 0xf6e
 5d8:	6261652d 	rsbvs	r6, r1, #188743680	; 0xb400000
 5dc:	6e692f69 	cdpvs	15, 6, cr2, cr9, cr9, {3}
 5e0:	64756c63 	ldrbtvs	r6, [r5], #-3171	; 0xc63
 5e4:	616d2f65 	cmnvs	sp, r5, ror #30
 5e8:	6e696863 	cdpvs	8, 6, cr6, cr9, cr3, {3}
 5ec:	6f2f0065 	svcvs	0x002f0065
 5f0:	672f7470 			; <UNDEFINED> instruction: 0x672f7470
 5f4:	612d6363 			; <UNDEFINED> instruction: 0x612d6363
 5f8:	6e2d6d72 	mcrvs	13, 1, r6, cr13, cr2, {3}
 5fc:	2d656e6f 	stclcs	14, cr6, [r5, #-444]!	; 0xfffffe44
 600:	69626165 	stmdbvs	r2!, {r0, r2, r5, r6, r8, sp, lr}^
 604:	395f342d 	ldmdbcc	pc, {r0, r2, r3, r5, sl, ip, sp}^	; <UNPREDICTABLE>
 608:	3130322d 	teqcc	r0, sp, lsr #4
 60c:	2f337135 	svccs	0x00337135
 610:	2d6d7261 	sfmcs	f7, 2, [sp, #-388]!	; 0xfffffe7c
 614:	656e6f6e 	strbvs	r6, [lr, #-3950]!	; 0xf6e
 618:	6261652d 	rsbvs	r6, r1, #188743680	; 0xb400000
 61c:	6e692f69 	cdpvs	15, 6, cr2, cr9, cr9, {3}
 620:	64756c63 	ldrbtvs	r6, [r5], #-3171	; 0xc63
 624:	79732f65 	ldmdbvc	r3!, {r0, r2, r5, r6, r8, r9, sl, fp, sp}^
 628:	54530073 	ldrbpl	r0, [r3], #-115	; 0x73
 62c:	4632334d 	ldrtmi	r3, [r2], -sp, asr #6
 630:	5f787834 	svcpl	0x00787834
 634:	5f505344 	svcpl	0x00505344
 638:	50647453 	rsbpl	r7, r4, r3, asr r4
 63c:	70697265 	rsbvc	r7, r9, r5, ror #4
 640:	694c5f68 	stmdbvs	ip, {r3, r5, r6, r8, r9, sl, fp, ip, lr}^
 644:	31565f62 	cmpcc	r6, r2, ror #30
 648:	302e382e 	eorcc	r3, lr, lr, lsr #16
 64c:	62694c2f 	rsbvs	r4, r9, #12032	; 0x2f00
 650:	69726172 	ldmdbvs	r2!, {r1, r4, r5, r6, r8, sp, lr}^
 654:	432f7365 			; <UNDEFINED> instruction: 0x432f7365
 658:	5349534d 	movtpl	r5, #37709	; 0x934d
 65c:	7665442f 	strbtvc	r4, [r5], -pc, lsr #8
 660:	2f656369 	svccs	0x00656369
 664:	532f5453 			; <UNDEFINED> instruction: 0x532f5453
 668:	32334d54 	eorscc	r4, r3, #84, 26	; 0x1500
 66c:	78783446 	ldmdavc	r8!, {r1, r2, r6, sl, ip, sp}^
 670:	636e492f 	cmnvs	lr, #770048	; 0xbc000
 674:	6564756c 	strbvs	r7, [r4, #-1388]!	; 0x56c
 678:	4d545300 	ldclmi	3, cr5, [r4, #-0]
 67c:	34463233 	strbcc	r3, [r6], #-563	; 0x233
 680:	445f7878 	ldrbmi	r7, [pc], #-2168	; 688 <_Min_Stack_Size+0x288>
 684:	535f5053 	cmppl	pc, #83	; 0x53
 688:	65506474 	ldrbvs	r6, [r0, #-1140]	; 0x474
 68c:	68706972 	ldmdavs	r0!, {r1, r4, r5, r6, r8, fp, sp, lr}^
 690:	62694c5f 	rsbvs	r4, r9, #24320	; 0x5f00
 694:	2e31565f 	mrccs	6, 1, r5, cr1, cr15, {2}
 698:	2f302e38 	svccs	0x00302e38
 69c:	7262694c 	rsbvc	r6, r2, #76, 18	; 0x130000
 6a0:	65697261 	strbvs	r7, [r9, #-609]!	; 0x261
 6a4:	54532f73 	ldrbpl	r2, [r3], #-3955	; 0xf73
 6a8:	4632334d 	ldrtmi	r3, [r2], -sp, asr #6
 6ac:	5f787834 	svcpl	0x00787834
 6b0:	50647453 	rsbpl	r7, r4, r3, asr r4
 6b4:	70697265 	rsbvc	r7, r9, r5, ror #4
 6b8:	72445f68 	subvc	r5, r4, #104, 30	; 0x1a0
 6bc:	72657669 	rsbvc	r7, r5, #110100480	; 0x6900000
 6c0:	636e692f 	cmnvs	lr, #770048	; 0xbc000
 6c4:	4d545300 	ldclmi	3, cr5, [r4, #-0]
 6c8:	34463233 	strbcc	r3, [r6], #-563	; 0x233
 6cc:	445f7878 	ldrbmi	r7, [pc], #-2168	; 6d4 <_Min_Stack_Size+0x2d4>
 6d0:	535f5053 	cmppl	pc, #83	; 0x53
 6d4:	65506474 	ldrbvs	r6, [r0, #-1140]	; 0x474
 6d8:	68706972 	ldmdavs	r0!, {r1, r4, r5, r6, r8, fp, sp, lr}^
 6dc:	62694c5f 	rsbvs	r4, r9, #24320	; 0x5f00
 6e0:	2e31565f 	mrccs	6, 1, r5, cr1, cr15, {2}
 6e4:	2f302e38 	svccs	0x00302e38
 6e8:	7262694c 	rsbvc	r6, r2, #76, 18	; 0x130000
 6ec:	65697261 	strbvs	r7, [r9, #-609]!	; 0x261
 6f0:	4d432f73 	stclmi	15, cr2, [r3, #-460]	; 0xfffffe34
 6f4:	2f534953 	svccs	0x00534953
 6f8:	6c636e49 	stclvs	14, cr6, [r3], #-292	; 0xfffffedc
 6fc:	00656475 	rsbeq	r6, r5, r5, ror r4
 700:	6d747300 	ldclvs	3, cr7, [r4, #-0]
 704:	34663233 	strbtcc	r3, [r6], #-563	; 0x233
 708:	725f7878 	subsvc	r7, pc, #120, 16	; 0x780000
 70c:	632e6363 			; <UNDEFINED> instruction: 0x632e6363
 710:	00000100 	andeq	r0, r0, r0, lsl #2
 714:	6665645f 			; <UNDEFINED> instruction: 0x6665645f
 718:	746c7561 	strbtvc	r7, [ip], #-1377	; 0x561
 71c:	7079745f 	rsbsvc	r7, r9, pc, asr r4
 720:	682e7365 	stmdavs	lr!, {r0, r2, r5, r6, r8, r9, ip, sp, lr}
 724:	00000200 	andeq	r0, r0, r0, lsl #4
 728:	6474735f 	ldrbtvs	r7, [r4], #-863	; 0x35f
 72c:	2e746e69 	cdpcs	14, 7, cr6, cr4, cr9, {3}
 730:	00030068 	andeq	r0, r3, r8, rrx
 734:	6d747300 	ldclvs	3, cr7, [r4, #-0]
 738:	34663233 	strbtcc	r3, [r6], #-563	; 0x233
 73c:	682e7878 	stmdavs	lr!, {r3, r4, r5, r6, fp, ip, sp, lr}
 740:	00000400 	andeq	r0, r0, r0, lsl #8
 744:	336d7473 	cmncc	sp, #1929379840	; 0x73000000
 748:	78346632 	ldmdavc	r4!, {r1, r4, r5, r9, sl, sp, lr}
 74c:	63725f78 	cmnvs	r2, #120, 30	; 0x1e0
 750:	00682e63 	rsbeq	r2, r8, r3, ror #28
 754:	63000005 	movwvs	r0, #5
 758:	5f65726f 	svcpl	0x0065726f
 75c:	2e346d63 	cdpcs	13, 3, cr6, cr4, cr3, {3}
 760:	00060068 	andeq	r0, r6, r8, rrx
 764:	05000000 	streq	r0, [r0, #-0]
 768:	00051002 	andeq	r1, r5, r2
 76c:	01e10308 	mvneq	r0, r8, lsl #6
 770:	12031401 	andne	r1, r3, #16777216	; 0x1000000
 774:	206e0320 	rsbcs	r0, lr, r0, lsr #6
 778:	222c1d23 	eorcs	r1, ip, #2240	; 0x8c0
 77c:	24232323 	strtcs	r2, [r3], #-803	; 0x323
 780:	5b207903 	blpl	81eb94 <_Min_Stack_Size+0x81e794>
 784:	03323324 	teqeq	r2, #36, 6	; 0x90000000
 788:	77034a0c 	strvc	r4, [r3, -ip, lsl #20]
 78c:	03342320 	teqeq	r4, #32, 6	; 0x80000000
 790:	3f179e17 	svccc	0x00179e17
 794:	21581003 	cmpcs	r8, r3
 798:	2015d203 	andscs	sp, r5, r3, lsl #4
 79c:	206aae03 	rsbcs	sl, sl, r3, lsl #28
 7a0:	04020036 	streq	r0, [r2], #-54	; 0x36
 7a4:	15ca0302 	strbne	r0, [sl, #770]	; 0x302
 7a8:	0402003c 	streq	r0, [r2], #-60	; 0x3c
 7ac:	200d0302 	andcs	r0, sp, r2, lsl #6
 7b0:	02040200 	andeq	r0, r4, #0, 4
 7b4:	2e6aa803 	cdpcs	8, 6, cr10, cr10, cr3, {0}
 7b8:	02040200 	andeq	r0, r4, #0, 4
 7bc:	0402004b 	streq	r0, [r2], #-75	; 0x4b
 7c0:	15d70302 	ldrbne	r0, [r7, #770]	; 0x302
 7c4:	20730320 	rsbscs	r0, r3, r0, lsr #6
 7c8:	2e6ac003 	cdpcs	0, 6, cr12, cr10, cr3, {0}
 7cc:	580b032f 	stmdapl	fp, {r0, r1, r2, r3, r5, r8, r9}
 7d0:	31313117 	teqcc	r1, r7, lsl r1
 7d4:	164a1603 	strbne	r1, [sl], -r3, lsl #12
 7d8:	18661503 	stmdane	r6!, {r0, r1, r8, sl, ip}^
 7dc:	207a0334 	rsbscs	r0, sl, r4, lsr r3
 7e0:	46442323 	strbmi	r2, [r4], -r3, lsr #6
 7e4:	3c170321 	ldccc	3, cr0, [r7], {33}	; 0x21
 7e8:	00df0316 	sbcseq	r0, pc, r6, lsl r3	; <UNPREDICTABLE>
 7ec:	ae282066 	cdpge	0, 2, cr2, cr8, cr6, {3}
 7f0:	15580e03 	ldrbne	r0, [r8, #-3587]	; 0xe03
 7f4:	17661b03 	strbne	r1, [r6, -r3, lsl #22]!
 7f8:	9e018603 	cfmadd32ls	mvax0, mvfx8, mvfx1, mvfx3
 7fc:	00ea0315 	rsceq	r0, sl, r5, lsl r3
 800:	0e031866 	cdpeq	8, 0, cr1, cr3, cr6, {3}
 804:	0f0315ba 	svceq	0x000315ba
 808:	16031566 	strne	r1, [r3], -r6, ror #10
 80c:	3f311966 	svccc	0x00311966
 810:	4a1d0323 	bmi	7414a4 <_Min_Stack_Size+0x7410a4>
 814:	233f3119 	teqcs	pc, #1073741830	; 0x40000006
 818:	4a01b803 	bmi	6e82c <_Min_Stack_Size+0x6e42c>
 81c:	23313118 	teqcs	r1, #24, 2
 820:	13580e03 	cmpne	r8, #3, 28	; 0x30
 824:	6617032f 	ldrvs	r0, [r7], -pc, lsr #6
 828:	23313118 	teqcs	r1, #24, 2
 82c:	18581003 	ldmdane	r8, {r0, r1, ip}^
 830:	03233131 			; <UNDEFINED> instruction: 0x03233131
 834:	31185810 	tstcc	r8, r0, lsl r8
 838:	25033131 	strcs	r3, [r3, #-305]	; 0x131
 83c:	034c274a 	movteq	r2, #51018	; 0xc74a
 840:	22344a38 	eorscs	r4, r4, #56, 20	; 0x38000
 844:	222f211e 	eorcs	r2, pc, #-2147483641	; 0x80000007
 848:	222f2131 	eorcs	r2, pc, #1073741836	; 0x4000000c
 84c:	2f2a253f 	svccs	0x002a253f
 850:	b5032f22 	strlt	r2, [r3, #-3874]	; 0xf22
 854:	262f207f 			; <UNDEFINED> instruction: 0x262f207f
 858:	37312221 	ldrcc	r2, [r1, -r1, lsr #4]!
 85c:	292e0a03 	stmdbcs	lr!, {r0, r1, r9, fp}
 860:	3d677733 	stclcc	7, cr7, [r7, #-204]!	; 0xffffff34
 864:	9000f303 	andls	pc, r0, r3, lsl #6
 868:	2b345a18 	blcs	d170d0 <_Min_Stack_Size+0xd16cd0>
 86c:	03243f31 			; <UNDEFINED> instruction: 0x03243f31
 870:	0316900b 	tsteq	r6, #11
 874:	0315660d 	tsteq	r5, #13631488	; 0xd00000
 878:	166601b9 			; <UNDEFINED> instruction: 0x166601b9
 87c:	18661703 	stmdane	r6!, {r0, r1, r8, r9, sl, ip}^
 880:	0323313f 			; <UNDEFINED> instruction: 0x0323313f
 884:	3f186615 	svccc	0x00186615
 888:	12032331 	andne	r2, r3, #-1006632960	; 0xc4000000
 88c:	1d421866 	stclne	8, cr1, [r2, #-408]	; 0xfffffe68
 890:	11032331 	tstne	r3, r1, lsr r3
 894:	1d421858 	stclne	8, cr1, [r2, #-352]	; 0xfffffea0
 898:	d4033131 	strle	r3, [r3], #-305	; 0x131
 89c:	3f186600 	svccc	0x00186600
 8a0:	f1032331 			; <UNDEFINED> instruction: 0xf1032331
 8a4:	03166600 	tsteq	r6, #0, 12
 8a8:	2c196626 	ldccs	6, cr6, [r9], {38}	; 0x26
 8ac:	19034626 	stmdbne	r3, {r1, r2, r5, r9, sl, lr}
 8b0:	262c1958 			; <UNDEFINED> instruction: 0x262c1958
 8b4:	58170346 	ldmdapl	r7, {r1, r2, r6, r8, r9}
 8b8:	46262c19 			; <UNDEFINED> instruction: 0x46262c19
 8bc:	19583203 	ldmdbne	r8, {r0, r1, r9, ip, sp}^
 8c0:	0346262c 	movteq	r2, #26156	; 0x662c
 8c4:	2c19582d 	ldccs	8, cr5, [r9], {45}	; 0x2d
 8c8:	23034626 	movwcs	r4, #13862	; 0x3626
 8cc:	262c1958 			; <UNDEFINED> instruction: 0x262c1958
 8d0:	58160346 	ldmdapl	r6, {r1, r2, r6, r8, r9}
 8d4:	46262c19 			; <UNDEFINED> instruction: 0x46262c19
 8d8:	19581403 	ldmdbne	r8, {r0, r1, sl, ip}^
 8dc:	0346262c 	movteq	r2, #26156	; 0x662c
 8e0:	2c18582f 	ldccs	8, cr5, [r8], {47}	; 0x2f
 8e4:	29034626 	stmdbcs	r3, {r1, r2, r5, r9, sl, lr}
 8e8:	262c1858 			; <UNDEFINED> instruction: 0x262c1858
 8ec:	582b0346 	stmdapl	fp!, {r1, r2, r6, r8, r9}
 8f0:	46262c18 			; <UNDEFINED> instruction: 0x46262c18
 8f4:	18581a03 	ldmdane	r8, {r0, r1, r9, fp, ip}^
 8f8:	0346262c 	movteq	r2, #26156	; 0x662c
 8fc:	2c185818 	ldccs	8, cr5, [r8], {24}
 900:	33034626 	movwcc	r4, #13862	; 0x3626
 904:	262c1858 			; <UNDEFINED> instruction: 0x262c1858
 908:	582e0346 	stmdapl	lr!, {r1, r2, r6, r8, r9}
 90c:	46262c18 			; <UNDEFINED> instruction: 0x46262c18
 910:	18581203 	ldmdane	r8, {r0, r1, r9, ip}^
 914:	0340222c 	movteq	r2, #556	; 0x22c
 918:	196602ae 	stmdbne	r6!, {r1, r2, r3, r5, r7, r9}^
 91c:	0345282b 	movteq	r2, #22571	; 0x582b
 920:	0903581e 	stmdbeq	r3, {r1, r2, r3, r4, fp, ip, lr}
 924:	22322101 	eorscs	r2, r2, #1073741824	; 0x40000000
 928:	0a032540 	beq	c9e30 <_Min_Stack_Size+0xc9a30>
 92c:	3c69034a 	stclcc	3, cr0, [r9], #-296	; 0xfffffed8
 930:	032e0d03 			; <UNDEFINED> instruction: 0x032e0d03
 934:	0a034a0a 	beq	d3164 <_Min_Stack_Size+0xd2d64>
 938:	12031458 	andne	r1, r3, #88, 8	; 0x58000000
 93c:	0a031982 	beq	c6f4c <_Min_Stack_Size+0xc6b4c>
 940:	7411033c 	ldrvc	r0, [r1], #-828	; 0x33c
 944:	00060218 	andeq	r0, r6, r8, lsl r2
 948:	02370101 	eorseq	r0, r7, #1073741824	; 0x40000000
 94c:	00020000 	andeq	r0, r2, r0
 950:	000001b6 			; <UNDEFINED> instruction: 0x000001b6
 954:	0efb0102 	cdpeq	1, 15, cr0, cr11, cr2, {0}
 958:	0101000d 	tsteq	r1, sp
 95c:	00000101 	andeq	r0, r0, r1, lsl #2
 960:	00000100 	andeq	r0, r0, r0, lsl #2
 964:	4d545301 	ldclmi	3, cr5, [r4, #-4]
 968:	34463233 	strbcc	r3, [r6], #-563	; 0x233
 96c:	445f7878 	ldrbmi	r7, [pc], #-2168	; 974 <_Min_Stack_Size+0x574>
 970:	535f5053 	cmppl	pc, #83	; 0x53
 974:	65506474 	ldrbvs	r6, [r0, #-1140]	; 0x474
 978:	68706972 	ldmdavs	r0!, {r1, r4, r5, r6, r8, fp, sp, lr}^
 97c:	62694c5f 	rsbvs	r4, r9, #24320	; 0x5f00
 980:	2e31565f 	mrccs	6, 1, r5, cr1, cr15, {2}
 984:	2f302e38 	svccs	0x00302e38
 988:	6a6f7250 	bvs	1bdd2d0 <_Min_Stack_Size+0x1bdced0>
 98c:	2f746365 	svccs	0x00746365
 990:	334d5453 	movtcc	r5, #54355	; 0xd453
 994:	78344632 	ldmdavc	r4!, {r1, r4, r5, r9, sl, lr}
 998:	74535f78 	ldrbvc	r5, [r3], #-3960	; 0xf78
 99c:	72655064 	rsbvc	r5, r5, #100	; 0x64
 9a0:	5f687069 	svcpl	0x00687069
 9a4:	706d6554 	rsbvc	r6, sp, r4, asr r5
 9a8:	6574616c 	ldrbvs	r6, [r4, #-364]!	; 0x16c
 9ac:	6f2f0073 	svcvs	0x002f0073
 9b0:	672f7470 			; <UNDEFINED> instruction: 0x672f7470
 9b4:	612d6363 			; <UNDEFINED> instruction: 0x612d6363
 9b8:	6e2d6d72 	mcrvs	13, 1, r6, cr13, cr2, {3}
 9bc:	2d656e6f 	stclcs	14, cr6, [r5, #-444]!	; 0xfffffe44
 9c0:	69626165 	stmdbvs	r2!, {r0, r2, r5, r6, r8, sp, lr}^
 9c4:	395f342d 	ldmdbcc	pc, {r0, r2, r3, r5, sl, ip, sp}^	; <UNPREDICTABLE>
 9c8:	3130322d 	teqcc	r0, sp, lsr #4
 9cc:	2f337135 	svccs	0x00337135
 9d0:	2d6d7261 	sfmcs	f7, 2, [sp, #-388]!	; 0xfffffe7c
 9d4:	656e6f6e 	strbvs	r6, [lr, #-3950]!	; 0xf6e
 9d8:	6261652d 	rsbvs	r6, r1, #188743680	; 0xb400000
 9dc:	6e692f69 	cdpvs	15, 6, cr2, cr9, cr9, {3}
 9e0:	64756c63 	ldrbtvs	r6, [r5], #-3171	; 0xc63
 9e4:	616d2f65 	cmnvs	sp, r5, ror #30
 9e8:	6e696863 	cdpvs	8, 6, cr6, cr9, cr3, {3}
 9ec:	6f2f0065 	svcvs	0x002f0065
 9f0:	672f7470 			; <UNDEFINED> instruction: 0x672f7470
 9f4:	612d6363 			; <UNDEFINED> instruction: 0x612d6363
 9f8:	6e2d6d72 	mcrvs	13, 1, r6, cr13, cr2, {3}
 9fc:	2d656e6f 	stclcs	14, cr6, [r5, #-444]!	; 0xfffffe44
 a00:	69626165 	stmdbvs	r2!, {r0, r2, r5, r6, r8, sp, lr}^
 a04:	395f342d 	ldmdbcc	pc, {r0, r2, r3, r5, sl, ip, sp}^	; <UNPREDICTABLE>
 a08:	3130322d 	teqcc	r0, sp, lsr #4
 a0c:	2f337135 	svccs	0x00337135
 a10:	2d6d7261 	sfmcs	f7, 2, [sp, #-388]!	; 0xfffffe7c
 a14:	656e6f6e 	strbvs	r6, [lr, #-3950]!	; 0xf6e
 a18:	6261652d 	rsbvs	r6, r1, #188743680	; 0xb400000
 a1c:	6e692f69 	cdpvs	15, 6, cr2, cr9, cr9, {3}
 a20:	64756c63 	ldrbtvs	r6, [r5], #-3171	; 0xc63
 a24:	79732f65 	ldmdbvc	r3!, {r0, r2, r5, r6, r8, r9, sl, fp, sp}^
 a28:	54530073 	ldrbpl	r0, [r3], #-115	; 0x73
 a2c:	4632334d 	ldrtmi	r3, [r2], -sp, asr #6
 a30:	5f787834 	svcpl	0x00787834
 a34:	5f505344 	svcpl	0x00505344
 a38:	50647453 	rsbpl	r7, r4, r3, asr r4
 a3c:	70697265 	rsbvc	r7, r9, r5, ror #4
 a40:	694c5f68 	stmdbvs	ip, {r3, r5, r6, r8, r9, sl, fp, ip, lr}^
 a44:	31565f62 	cmpcc	r6, r2, ror #30
 a48:	302e382e 	eorcc	r3, lr, lr, lsr #16
 a4c:	62694c2f 	rsbvs	r4, r9, #12032	; 0x2f00
 a50:	69726172 	ldmdbvs	r2!, {r1, r4, r5, r6, r8, sp, lr}^
 a54:	432f7365 			; <UNDEFINED> instruction: 0x432f7365
 a58:	5349534d 	movtpl	r5, #37709	; 0x934d
 a5c:	636e492f 	cmnvs	lr, #770048	; 0xbc000
 a60:	6564756c 	strbvs	r7, [r4, #-1388]!	; 0x56c
 a64:	4d545300 	ldclmi	3, cr5, [r4, #-0]
 a68:	34463233 	strbcc	r3, [r6], #-563	; 0x233
 a6c:	445f7878 	ldrbmi	r7, [pc], #-2168	; a74 <_Min_Stack_Size+0x674>
 a70:	535f5053 	cmppl	pc, #83	; 0x53
 a74:	65506474 	ldrbvs	r6, [r0, #-1140]	; 0x474
 a78:	68706972 	ldmdavs	r0!, {r1, r4, r5, r6, r8, fp, sp, lr}^
 a7c:	62694c5f 	rsbvs	r4, r9, #24320	; 0x5f00
 a80:	2e31565f 	mrccs	6, 1, r5, cr1, cr15, {2}
 a84:	2f302e38 	svccs	0x00302e38
 a88:	7262694c 	rsbvc	r6, r2, #76, 18	; 0x130000
 a8c:	65697261 	strbvs	r7, [r9, #-609]!	; 0x261
 a90:	4d432f73 	stclmi	15, cr2, [r3, #-460]	; 0xfffffe34
 a94:	2f534953 	svccs	0x00534953
 a98:	69766544 	ldmdbvs	r6!, {r2, r6, r8, sl, sp, lr}^
 a9c:	532f6563 			; <UNDEFINED> instruction: 0x532f6563
 aa0:	54532f54 	ldrbpl	r2, [r3], #-3924	; 0xf54
 aa4:	4632334d 	ldrtmi	r3, [r2], -sp, asr #6
 aa8:	2f787834 	svccs	0x00787834
 aac:	6c636e49 	stclvs	14, cr6, [r3], #-292	; 0xfffffedc
 ab0:	00656475 	rsbeq	r6, r5, r5, ror r4
 ab4:	73797300 	cmnvc	r9, #0, 6
 ab8:	5f6d6574 	svcpl	0x006d6574
 abc:	336d7473 	cmncc	sp, #1929379840	; 0x73000000
 ac0:	78346632 	ldmdavc	r4!, {r1, r4, r5, r9, sl, sp, lr}
 ac4:	00632e78 	rsbeq	r2, r3, r8, ror lr
 ac8:	5f000001 	svcpl	0x00000001
 acc:	61666564 	cmnvs	r6, r4, ror #10
 ad0:	5f746c75 	svcpl	0x00746c75
 ad4:	65707974 	ldrbvs	r7, [r0, #-2420]!	; 0x974
 ad8:	00682e73 	rsbeq	r2, r8, r3, ror lr
 adc:	5f000002 	svcpl	0x00000002
 ae0:	69647473 	stmdbvs	r4!, {r0, r1, r4, r5, r6, sl, ip, sp, lr}^
 ae4:	682e746e 	stmdavs	lr!, {r1, r2, r3, r5, r6, sl, ip, sp, lr}
 ae8:	00000300 	andeq	r0, r0, r0, lsl #6
 aec:	65726f63 	ldrbvs	r6, [r2, #-3939]!	; 0xf63
 af0:	346d635f 	strbtcc	r6, [sp], #-863	; 0x35f
 af4:	0400682e 	streq	r6, [r0], #-2094	; 0x82e
 af8:	74730000 	ldrbtvc	r0, [r3], #-0
 afc:	6632336d 	ldrtvs	r3, [r2], -sp, ror #6
 b00:	2e787834 	mrccs	8, 3, r7, cr8, cr4, {1}
 b04:	00050068 	andeq	r0, r5, r8, rrx
 b08:	05000000 	streq	r0, [r0, #-0]
 b0c:	000a6802 	andeq	r6, sl, r2, lsl #16
 b10:	03e30308 	mvneq	r0, #8, 6	; 0x20000000
 b14:	1c241501 	cfstr32ne	mvfx1, [r4], #-4
 b18:	032e0d03 			; <UNDEFINED> instruction: 0x032e0d03
 b1c:	234e2073 	movtcs	r2, #57459	; 0xe073
 b20:	69233f1d 	stmdbvs	r3!, {r0, r2, r3, r4, r8, r9, sl, fp, ip, sp}
 b24:	206d0323 	rsbcs	r0, sp, r3, lsr #6
 b28:	3f201303 	svccc	0x00201303
 b2c:	20019a03 	andcs	r9, r1, r3, lsl #20
 b30:	48304f31 	ldmdami	r0!, {r0, r4, r5, r8, r9, sl, fp, lr}
 b34:	4c3e3d4b 	ldcmi	13, cr3, [lr], #-300	; 0xfffffed4
 b38:	df032332 	svcle	0x00032332
 b3c:	034c3c7e 	movteq	r3, #52350	; 0xcc7e
 b40:	212e01a2 	smulwbcs	lr, r2, r1
 b44:	2018031f 	andscs	r0, r8, pc, lsl r3
 b48:	3d206803 	stccc	8, cr6, [r0, #-12]!
 b4c:	034d324d 	movteq	r3, #53837	; 0xd24d
 b50:	0b034a0d 	bleq	d338c <_Min_Stack_Size+0xd2f8c>
 b54:	14034d20 	strne	r4, [r3], #-3360	; 0xd20
 b58:	4a0e0358 	bmi	3818c0 <_Min_Stack_Size+0x3814c0>
 b5c:	b9034d4b 	stmdblt	r3, {r0, r1, r3, r6, r8, sl, fp, lr}
 b60:	182e087e 	stmdane	lr!, {r1, r2, r3, r4, r5, r6, fp}
 b64:	00c8034c 	sbceq	r0, r8, ip, asr #6
 b68:	42036858 	andmi	r6, r3, #88, 16	; 0x580000
 b6c:	3123213c 			; <UNDEFINED> instruction: 0x3123213c
 b70:	033c7a03 	teqeq	ip, #12288	; 0x3000
 b74:	33292e0b 			; <UNDEFINED> instruction: 0x33292e0b
 b78:	67741103 	ldrbvs	r1, [r4, -r3, lsl #2]!
 b7c:	205c032f 	subscs	r0, ip, pc, lsr #6
 b80:	01000b02 	tsteq	r0, r2, lsl #22
 b84:	00006d01 	andeq	r6, r0, r1, lsl #26
 b88:	2b000200 	blcs	1390 <_Min_Stack_Size+0xf90>
 b8c:	02000000 	andeq	r0, r0, #0
 b90:	0d0efb01 	vstreq	d15, [lr, #-4]
 b94:	01010100 	mrseq	r0, (UNDEF: 17)
 b98:	00000001 	andeq	r0, r0, r1
 b9c:	01000001 	tsteq	r0, r1
 ba0:	61747300 	cmnvs	r4, r0, lsl #6
 ba4:	70757472 	rsbsvc	r7, r5, r2, ror r4
 ba8:	6d74735f 	ldclvs	3, cr7, [r4, #-380]!	; 0xfffffe84
 bac:	34663233 	strbtcc	r3, [r6], #-563	; 0x233
 bb0:	2e787830 	mrccs	8, 3, r7, cr8, cr0, {1}
 bb4:	00000073 	andeq	r0, r0, r3, ror r0
 bb8:	05000000 	streq	r0, [r0, #-0]
 bbc:	000c8402 	andeq	r8, ip, r2, lsl #8
 bc0:	00cb0308 	sbceq	r0, fp, r8, lsl #6
 bc4:	21232101 			; <UNDEFINED> instruction: 0x21232101
 bc8:	21232121 			; <UNDEFINED> instruction: 0x21232121
 bcc:	21212121 			; <UNDEFINED> instruction: 0x21212121
 bd0:	31212321 			; <UNDEFINED> instruction: 0x31212321
 bd4:	30232121 	eorcc	r2, r3, r1, lsr #2
 bd8:	63032f30 	movwvs	r2, #16176	; 0x3f30
 bdc:	322f3420 	eorcc	r3, pc, #32, 8	; 0x20000000
 be0:	00020236 	andeq	r0, r2, r6, lsr r2
 be4:	05000101 	streq	r0, [r0, #-257]	; 0x101
 be8:	000ccc02 	andeq	ip, ip, r2, lsl #24
 bec:	00f90308 	rscseq	r0, r9, r8, lsl #6
 bf0:	00010201 	andeq	r0, r1, r1, lsl #4
 bf4:	Address 0x00000bf4 is out of bounds.


Disassembly of section .debug_str:

00000000 <.debug_str>:
   0:	4f495047 	svcmi	0x00495047
   4:	7079545f 	rsbsvc	r5, r9, pc, asr r4
   8:	66654465 	strbtvs	r4, [r5], -r5, ror #8
   c:	49504700 	ldmdbmi	r0, {r8, r9, sl, lr}^
  10:	69505f4f 	ldmdbvs	r0, {r0, r1, r2, r3, r6, r8, r9, sl, fp, ip, lr}^
  14:	5047006e 	subpl	r0, r7, lr, rrx
  18:	495f4f49 	ldmdbmi	pc, {r0, r3, r6, r8, r9, sl, fp, lr}^	; <UNPREDICTABLE>
  1c:	4474696e 	ldrbtmi	r6, [r4], #-2414	; 0x96e
  20:	47006665 	strmi	r6, [r0, -r5, ror #12]
  24:	4d4f4950 	stclmi	9, cr4, [pc, #-320]	; fffffeec <_estack+0xdffdfeed>
  28:	5f65646f 	svcpl	0x0065646f
  2c:	65707954 	ldrbvs	r7, [r0, #-2388]!	; 0x954
  30:	00666544 	rsbeq	r6, r6, r4, asr #10
  34:	726f6873 	rsbvc	r6, pc, #7536640	; 0x730000
  38:	6e692074 	mcrvs	0, 3, r2, cr9, cr4, {3}
  3c:	69730074 	ldmdbvs	r3!, {r2, r4, r5, r6}^
  40:	7974657a 	ldmdbvc	r4!, {r1, r3, r4, r5, r6, r8, sl, sp, lr}^
  44:	47006570 	smlsdxmi	r0, r0, r5, r6
  48:	5f4f4950 	svcpl	0x004f4950
  4c:	7079544f 	rsbsvc	r5, r9, pc, asr #8
  50:	444f5f65 	strbmi	r5, [pc], #-3941	; 58 <_Min_Heap_Size-0x1a8>
  54:	656d2f00 	strbvs	r2, [sp, #-3840]!	; 0xf00
  58:	2f616964 	svccs	0x00616964
  5c:	686e6964 	stmdavs	lr!, {r2, r5, r6, r8, fp, sp, lr}^
  60:	6e6f6874 	mcrvs	8, 3, r6, cr15, cr4, {3}
  64:	41442f67 	cmpmi	r4, r7, ror #30
  68:	442f4154 	strtmi	r4, [pc], #-340	; 70 <_Min_Heap_Size-0x190>
  6c:	52415f54 	subpl	r5, r1, #84, 30	; 0x150
  70:	74732f4d 	ldrbtvc	r2, [r3], #-3917	; 0xf4d
  74:	6632336d 	ldrtvs	r3, [r2], -sp, ror #6
  78:	69642d34 	stmdbvs	r4!, {r2, r4, r5, r8, sl, fp, sp}^
  7c:	766f6373 			; <UNDEFINED> instruction: 0x766f6373
  80:	2d797265 	lfmcs	f7, 2, [r9, #-404]!	; 0xfffffe6c
  84:	696e696d 	stmdbvs	lr!, {r0, r2, r3, r5, r6, r8, fp, sp, lr}^
  88:	006c616d 	rsbeq	r6, ip, sp, ror #2
  8c:	6e69616d 	powvsez	f6, f1, #5.0
  90:	676f7400 	strbvs	r7, [pc, -r0, lsl #8]!
  94:	2e656c67 	cdpcs	12, 6, cr6, cr5, cr7, {3}
  98:	5f5f0063 	svcpl	0x005f0063
  9c:	746e6975 	strbtvc	r6, [lr], #-2421	; 0x975
  a0:	745f3631 	ldrbvc	r3, [pc], #-1585	; a8 <_Min_Heap_Size-0x158>
  a4:	74756200 	ldrbtvc	r6, [r5], #-512	; 0x200
  a8:	5f6e6f74 	svcpl	0x006e6f74
  ac:	73657270 	cmnvc	r5, #112, 4
  b0:	00646573 	rsbeq	r6, r4, r3, ror r5
  b4:	4f495047 	svcmi	0x00495047
  b8:	79544f5f 	ldmdbvc	r4, {r0, r1, r2, r3, r4, r6, r8, r9, sl, fp, lr}^
  bc:	47006570 	smlsdxmi	r0, r0, r5, r6
  c0:	5f4f4950 	svcpl	0x004f4950
  c4:	65646f4d 	strbvs	r6, [r4, #-3917]!	; 0xf4d
  c8:	0046415f 	subeq	r4, r6, pc, asr r1
  cc:	42414e45 	submi	r4, r1, #1104	; 0x450
  d0:	4700454c 	strmi	r4, [r0, -ip, asr #10]
  d4:	5f4f4950 	svcpl	0x004f4950
  d8:	65657053 	strbvs	r7, [r5, #-83]!	; 0x53
  dc:	50470064 	subpl	r0, r7, r4, rrx
  e0:	495f4f49 	ldmdbmi	pc, {r0, r3, r6, r8, r9, sl, fp, lr}^	; <UNPREDICTABLE>
  e4:	0074696e 	rsbseq	r6, r4, lr, ror #18
  e8:	4f495047 	svcmi	0x00495047
  ec:	646f4d5f 	strbtvs	r4, [pc], #-3423	; f4 <_Min_Heap_Size-0x10c>
  f0:	4e415f65 	cdpmi	15, 4, cr5, cr1, cr5, {3}
  f4:	49504700 	ldmdbmi	r0, {r8, r9, sl, lr}^
  f8:	79544f4f 	ldmdbvc	r4, {r0, r1, r2, r3, r6, r8, r9, sl, fp, lr}^
  fc:	545f6570 	ldrbpl	r6, [pc], #-1392	; 104 <_Min_Heap_Size-0xfc>
 100:	44657079 	strbtmi	r7, [r5], #-121	; 0x79
 104:	4f006665 	svcmi	0x00006665
 108:	45505954 	ldrbmi	r5, [r0, #-2388]	; 0x954
 10c:	6f6c0052 	svcvs	0x006c0052
 110:	6c20676e 	stcvs	7, cr6, [r0], #-440	; 0xfffffe48
 114:	20676e6f 	rsbcs	r6, r7, pc, ror #28
 118:	00746e69 	rsbseq	r6, r4, r9, ror #28
 11c:	4f495047 	svcmi	0x00495047
 120:	646f4d5f 	strbtvs	r4, [pc], #-3423	; 128 <_Min_Heap_Size-0xd8>
 124:	554f5f65 	strbpl	r5, [pc, #-3941]	; fffff1c7 <_estack+0xdffdf1c8>
 128:	55500054 	ldrbpl	r0, [r0, #-84]	; 0x54
 12c:	00524450 	subseq	r4, r2, r0, asr r4
 130:	4f495047 	svcmi	0x00495047
 134:	646f4d5f 	strbtvs	r4, [pc], #-3423	; 13c <_Min_Heap_Size-0xc4>
 138:	4e495f65 	cdpmi	15, 4, cr5, cr9, cr5, {3}
 13c:	52534200 	subspl	r4, r3, #0, 4
 140:	4d004852 	stcmi	8, cr4, [r0, #-328]	; 0xfffffeb8
 144:	5245444f 	subpl	r4, r5, #1325400064	; 0x4f000000
 148:	755f5f00 	ldrbvc	r5, [pc, #-3840]	; fffff250 <_estack+0xdffdf251>
 14c:	38746e69 	ldmdacc	r4!, {r0, r3, r5, r6, r9, sl, fp, sp, lr}^
 150:	4700745f 	smlsdmi	r0, pc, r4, r7	; <UNPREDICTABLE>
 154:	5f4f4950 	svcpl	0x004f4950
 158:	64616552 	strbtvs	r6, [r1], #-1362	; 0x552
 15c:	75706e49 	ldrbvc	r6, [r0, #-3657]!	; 0xe49
 160:	74614474 	strbtvc	r4, [r1], #-1140	; 0x474
 164:	74694261 	strbtvc	r4, [r9], #-609	; 0x261
 168:	755f5f00 	ldrbvc	r5, [pc, #-3840]	; fffff270 <_estack+0xdffdf271>
 16c:	33746e69 	cmncc	r4, #1680	; 0x690
 170:	00745f32 	rsbseq	r5, r4, r2, lsr pc
 174:	4f495047 	svcmi	0x00495047
 178:	79544f5f 	ldmdbvc	r4, {r0, r1, r2, r3, r4, r6, r8, r9, sl, fp, lr}^
 17c:	505f6570 	subspl	r6, pc, r0, ror r5	; <UNPREDICTABLE>
 180:	6e750050 	mrcvs	0, 3, r0, cr5, cr0, {2}
 184:	6e676973 	mcrvs	9, 3, r6, cr7, cr3, {3}
 188:	63206465 			; <UNDEFINED> instruction: 0x63206465
 18c:	00726168 	rsbseq	r6, r2, r8, ror #2
 190:	4f495047 	svcmi	0x00495047
 194:	5075505f 	rsbspl	r5, r5, pc, asr r0
 198:	6f6c0064 	svcvs	0x006c0064
 19c:	6c20676e 	stcvs	7, cr6, [r0], #-440	; 0xfffffe48
 1a0:	20676e6f 	rsbcs	r6, r7, pc, ror #28
 1a4:	69736e75 	ldmdbvs	r3!, {r0, r2, r4, r5, r6, r9, sl, fp, sp, lr}^
 1a8:	64656e67 	strbtvs	r6, [r5], #-3687	; 0xe67
 1ac:	746e6920 	strbtvc	r6, [lr], #-2336	; 0x920
 1b0:	49504700 	ldmdbmi	r0, {r8, r9, sl, lr}^
 1b4:	6e495f4f 	cdpvs	15, 4, cr5, cr9, cr15, {2}
 1b8:	79547469 	ldmdbvc	r4, {r0, r3, r5, r6, sl, ip, sp, lr}^
 1bc:	65446570 	strbvs	r6, [r4, #-1392]	; 0x570
 1c0:	68730066 	ldmdavs	r3!, {r1, r2, r5, r6}^
 1c4:	2074726f 	rsbscs	r7, r4, pc, ror #4
 1c8:	69736e75 	ldmdbvs	r3!, {r0, r2, r4, r5, r6, r9, sl, fp, sp, lr}^
 1cc:	64656e67 	strbtvs	r6, [r5], #-3687	; 0xe67
 1d0:	746e6920 	strbtvc	r6, [lr], #-2336	; 0x920
 1d4:	43435200 	movtmi	r5, #12800	; 0x3200
 1d8:	4248415f 	submi	r4, r8, #-1073741801	; 0xc0000017
 1dc:	72655031 	rsbvc	r5, r5, #49	; 0x31
 1e0:	43687069 	cmnmi	r8, #105	; 0x69
 1e4:	6b636f6c 	blvs	18dbf9c <_Min_Stack_Size+0x18dbb9c>
 1e8:	00646d43 	rsbeq	r6, r4, r3, asr #26
 1ec:	4f495047 	svcmi	0x00495047
 1f0:	7361465f 	cmnvc	r1, #99614720	; 0x5f00000
 1f4:	70535f74 	subsvc	r5, r3, r4, ror pc
 1f8:	00646565 	rsbeq	r6, r4, r5, ror #10
 1fc:	41534944 	cmpmi	r3, r4, asr #18
 200:	00454c42 	subeq	r4, r5, r2, asr #24
 204:	4f495047 	svcmi	0x00495047
 208:	776f4c5f 			; <UNDEFINED> instruction: 0x776f4c5f
 20c:	6570535f 	ldrbvs	r5, [r0, #-863]!	; 0x35f
 210:	47006465 	strmi	r6, [r0, -r5, ror #8]
 214:	5f4f4950 	svcpl	0x004f4950
 218:	6964654d 	stmdbvs	r4!, {r0, r2, r3, r6, r8, sl, sp, lr}^
 21c:	535f6d75 	cmppl	pc, #7488	; 0x1d40
 220:	64656570 	strbtvs	r6, [r5], #-1392	; 0x570
 224:	50534f00 	subspl	r4, r3, r0, lsl #30
 228:	52444545 	subpl	r4, r4, #289406976	; 0x11400000
 22c:	49504700 	ldmdbmi	r0, {r8, r9, sl, lr}^
 230:	6570534f 	ldrbvs	r5, [r0, #-847]!	; 0x34f
 234:	545f6465 	ldrbpl	r6, [pc], #-1125	; 23c <_Min_Heap_Size+0x3c>
 238:	44657079 	strbtmi	r7, [r5], #-121	; 0x79
 23c:	47006665 	strmi	r6, [r0, -r5, ror #12]
 240:	5f4f4950 	svcpl	0x004f4950
 244:	64507550 	ldrbvs	r7, [r0], #-1360	; 0x550
 248:	574f445f 	smlsldpl	r4, pc, pc, r4	; <UNPREDICTABLE>
 24c:	5449004e 	strbpl	r0, [r9], #-78	; 0x4e
 250:	78525f4d 	ldmdavc	r2, {r0, r2, r3, r6, r8, r9, sl, fp, ip, lr}^
 254:	66667542 	strbtvs	r7, [r6], -r2, asr #10
 258:	47007265 	strmi	r7, [r0, -r5, ror #4]
 25c:	5f4f4950 	svcpl	0x004f4950
 260:	64507550 	ldrbvs	r7, [r0], #-1360	; 0x550
 264:	504f4e5f 	subpl	r4, pc, pc, asr lr	; <UNPREDICTABLE>
 268:	004c4c55 	subeq	r4, ip, r5, asr ip
 26c:	4f495047 	svcmi	0x00495047
 270:	676f545f 			; <UNDEFINED> instruction: 0x676f545f
 274:	42656c67 	rsbmi	r6, r5, #26368	; 0x6700
 278:	00737469 	rsbseq	r7, r3, r9, ror #8
 27c:	6e695f5f 	mcrvs	15, 3, r5, cr9, cr15, {2}
 280:	5f323374 	svcpl	0x00323374
 284:	50470074 	subpl	r0, r7, r4, ror r0
 288:	485f4f49 	ldmdami	pc, {r0, r3, r6, r8, r9, sl, fp, lr}^	; <UNPREDICTABLE>
 28c:	5f686769 	svcpl	0x00686769
 290:	65657053 	strbvs	r7, [r5, #-83]!	; 0x53
 294:	50470064 	subpl	r0, r7, r4, rrx
 298:	75504f49 	ldrbvc	r4, [r0, #-3913]	; 0xf49
 29c:	545f6450 	ldrbpl	r6, [pc], #-1104	; 2a4 <_Min_Heap_Size+0xa4>
 2a0:	44657079 	strbtmi	r7, [r5], #-121	; 0x79
 2a4:	47006665 	strmi	r6, [r0, -r5, ror #12]
 2a8:	5f4f4950 	svcpl	0x004f4950
 2ac:	64507550 	ldrbvs	r7, [r0], #-1360	; 0x550
 2b0:	0050555f 	subseq	r5, r0, pc, asr r5
 2b4:	636e7546 	cmnvs	lr, #293601280	; 0x11800000
 2b8:	6e6f6974 	mcrvs	9, 3, r6, cr15, cr4, {3}
 2bc:	74536c61 	ldrbvc	r6, [r3], #-3169	; 0xc61
 2c0:	00657461 	rsbeq	r7, r5, r1, ror #8
 2c4:	52525342 	subspl	r5, r2, #134217729	; 0x8000001
 2c8:	4e47004c 	cdpmi	0, 4, cr0, cr7, cr12, {2}
 2cc:	20432055 	subcs	r2, r3, r5, asr r0
 2d0:	2e392e34 	mrccs	14, 1, r2, cr9, cr4, {1}
 2d4:	30322033 	eorscc	r2, r2, r3, lsr r0
 2d8:	35303531 	ldrcc	r3, [r0, #-1329]!	; 0x531
 2dc:	28203932 	stmdacs	r0!, {r1, r4, r5, r8, fp, ip, sp}
 2e0:	656c6572 	strbvs	r6, [ip, #-1394]!	; 0x572
 2e4:	29657361 	stmdbcs	r5!, {r0, r5, r6, r8, r9, ip, sp, lr}^
 2e8:	52415b20 	subpl	r5, r1, #32, 22	; 0x8000
 2ec:	6d652f4d 	stclvs	15, cr2, [r5, #-308]!	; 0xfffffecc
 2f0:	64646562 	strbtvs	r6, [r4], #-1378	; 0x562
 2f4:	342d6465 	strtcc	r6, [sp], #-1125	; 0x465
 2f8:	622d395f 	eorvs	r3, sp, #1556480	; 0x17c000
 2fc:	636e6172 	cmnvs	lr, #-2147483620	; 0x8000001c
 300:	65722068 	ldrbvs	r2, [r2, #-104]!	; 0x68
 304:	69736976 	ldmdbvs	r3!, {r1, r2, r4, r5, r6, r8, fp, sp, lr}^
 308:	32206e6f 	eorcc	r6, r0, #1776	; 0x6f0
 30c:	37393732 			; <UNDEFINED> instruction: 0x37393732
 310:	2d205d37 	stccs	13, cr5, [r0, #-220]!	; 0xffffff24
 314:	74696c6d 	strbtvc	r6, [r9], #-3181	; 0xc6d
 318:	2d656c74 	stclcs	12, cr6, [r5, #-464]!	; 0xfffffe30
 31c:	69646e65 	stmdbvs	r4!, {r0, r2, r5, r6, r9, sl, fp, sp, lr}^
 320:	2d206e61 	stccs	14, cr6, [r0, #-388]!	; 0xfffffe7c
 324:	7568746d 	strbvc	r7, [r8, #-1133]!	; 0x46d
 328:	2d20626d 	sfmcs	f6, 4, [r0, #-436]!	; 0xfffffe4c
 32c:	7570636d 	ldrbvc	r6, [r0, #-877]!	; 0x36d
 330:	726f633d 	rsbvc	r6, pc, #-201326592	; 0xf4000000
 334:	2d786574 	cfldr64cs	mvdx6, [r8, #-464]!	; 0xfffffe30
 338:	2d20346d 	cfstrscs	mvf3, [r0, #-436]!	; 0xfffffe4c
 33c:	7568746d 	strbvc	r7, [r8, #-1133]!	; 0x46d
 340:	692d626d 	pushvs	{r0, r2, r3, r5, r6, r9, sp, lr}
 344:	7265746e 	rsbvc	r7, r5, #1845493760	; 0x6e000000
 348:	6b726f77 	blvs	1c9c12c <_Min_Stack_Size+0x1c9bd2c>
 34c:	666d2d20 	strbtvs	r2, [sp], -r0, lsr #26
 350:	74616f6c 	strbtvc	r6, [r1], #-3948	; 0xf6c
 354:	6962612d 	stmdbvs	r2!, {r0, r2, r3, r5, r8, sp, lr}^
 358:	7261683d 	rsbvc	r6, r1, #3997696	; 0x3d0000
 35c:	6d2d2064 	stcvs	0, cr2, [sp, #-400]!	; 0xfffffe70
 360:	3d757066 	ldclcc	0, cr7, [r5, #-408]!	; 0xfffffe68
 364:	34767066 	ldrbtcc	r7, [r6], #-102	; 0x66
 368:	2d70732d 	ldclcs	3, cr7, [r0, #-180]!	; 0xffffff4c
 36c:	20363164 	eorscs	r3, r6, r4, ror #2
 370:	2d20672d 	stccs	7, cr6, [r0, #-180]!	; 0xffffff4c
 374:	4c00324f 	sfmmi	f3, 4, [r0], {79}	; 0x4f
 378:	00524b43 	subseq	r4, r2, r3, asr #22
 37c:	4f495047 	svcmi	0x00495047
 380:	646f4d5f 	strbtvs	r4, [pc], #-3423	; 388 <_Min_Heap_Size+0x188>
 384:	69700065 	ldmdbvs	r0!, {r0, r2, r5, r6}^
 388:	736f706e 	cmnvc	pc, #110	; 0x6e
 38c:	74694200 	strbtvc	r4, [r9], #-512	; 0x200
 390:	5445535f 	strbpl	r5, [r5], #-863	; 0x35f
 394:	49504700 	ldmdbmi	r0, {r8, r9, sl, lr}^
 398:	65525f4f 	ldrbvs	r5, [r2, #-3919]	; 0xf4f
 39c:	754f6461 	strbvc	r6, [pc, #-1121]	; ffffff43 <_estack+0xdffdff44>
 3a0:	74757074 	ldrbtvc	r7, [r5], #-116	; 0x74
 3a4:	61746144 	cmnvs	r4, r4, asr #2
 3a8:	49504700 	ldmdbmi	r0, {r8, r9, sl, lr}^
 3ac:	46415f4f 	strbmi	r5, [r1], -pc, asr #30
 3b0:	6d657400 	cfstrdvs	mvd7, [r5, #-0]
 3b4:	50470070 	subpl	r0, r7, r0, ror r0
 3b8:	535f4f49 	cmppl	pc, #292	; 0x124
 3bc:	63757274 	cmnvs	r5, #116, 4	; 0x40000007
 3c0:	696e4974 	stmdbvs	lr!, {r2, r4, r5, r6, r8, fp, lr}^
 3c4:	69420074 	stmdbvs	r2, {r2, r4, r5, r6}^
 3c8:	6c615674 	stclvs	6, cr5, [r1], #-464	; 0xfffffe30
 3cc:	74694200 	strbtvc	r4, [r9], #-512	; 0x200
 3d0:	5345525f 	movtpl	r5, #21087	; 0x525f
 3d4:	47005445 	strmi	r5, [r0, -r5, asr #8]
 3d8:	5f4f4950 	svcpl	0x004f4950
 3dc:	74697257 	strbtvc	r7, [r9], #-599	; 0x257
 3e0:	74694265 	strbtvc	r4, [r9], #-613	; 0x265
 3e4:	49504700 	ldmdbmi	r0, {r8, r9, sl, lr}^
 3e8:	65535f4f 	ldrbvs	r5, [r3, #-3919]	; 0xf4f
 3ec:	74694274 	strbtvc	r4, [r9], #-628	; 0x274
 3f0:	50470073 	subpl	r0, r7, r3, ror r0
 3f4:	525f4f49 	subspl	r4, pc, #292	; 0x124
 3f8:	74657365 	strbtvc	r7, [r5], #-869	; 0x365
 3fc:	73746942 	cmnvc	r4, #1081344	; 0x108000
 400:	49504700 	ldmdbmi	r0, {r8, r9, sl, lr}^
 404:	65445f4f 	strbvs	r5, [r4, #-3919]	; 0xf4f
 408:	74696e49 	strbtvc	r6, [r9], #-3657	; 0xe49
 40c:	74696200 	strbtvc	r6, [r9], #-512	; 0x200
 410:	74617473 	strbtvc	r7, [r1], #-1139	; 0x473
 414:	52007375 	andpl	r7, r0, #-738197503	; 0xd4000001
 418:	415f4343 	cmpmi	pc, r3, asr #6
 41c:	50314248 	eorspl	r4, r1, r8, asr #4
 420:	70697265 	rsbvc	r7, r9, r5, ror #4
 424:	73655268 	cmnvc	r5, #104, 4	; 0x80000006
 428:	6d437465 	cfstrdvs	mvd7, [r3, #-404]	; 0xfffffe6c
 42c:	50470064 	subpl	r0, r7, r4, rrx
 430:	495f4f49 	ldmdbmi	pc, {r0, r3, r6, r8, r9, sl, fp, lr}^	; <UNPREDICTABLE>
 434:	5374696e 	cmnpl	r4, #1802240	; 0x1b8000
 438:	63757274 	cmnvs	r5, #116, 4	; 0x40000007
 43c:	6f500074 	svcvs	0x00500074
 440:	61567472 	cmpvs	r6, r2, ror r4
 444:	5047006c 	subpl	r0, r7, ip, rrx
 448:	505f4f49 	subspl	r4, pc, r9, asr #30
 44c:	6f536e69 	svcvs	0x00536e69
 450:	65637275 	strbvs	r7, [r3, #-629]!	; 0x275
 454:	49504700 	ldmdbmi	r0, {r8, r9, sl, lr}^
 458:	65525f4f 	ldrbvs	r5, [r2, #-3919]	; 0xf4f
 45c:	6e496461 	cdpvs	4, 4, cr6, cr9, cr1, {3}
 460:	44747570 	ldrbtmi	r7, [r4], #-1392	; 0x570
 464:	00617461 	rsbeq	r7, r1, r1, ror #8
 468:	4f495047 	svcmi	0x00495047
 46c:	6e69505f 	mcrvs	0, 3, r5, cr9, cr15, {2}
 470:	6b636f4c 	blvs	18dc1a8 <_Min_Stack_Size+0x18dbda8>
 474:	666e6f43 	strbtvs	r6, [lr], -r3, asr #30
 478:	42006769 	andmi	r6, r0, #27525120	; 0x1a40000
 47c:	63417469 	movtvs	r7, #5225	; 0x1469
 480:	6e6f6974 	mcrvs	9, 3, r6, cr15, cr4, {3}
 484:	72756300 	rsbsvc	r6, r5, #0, 6
 488:	746e6572 	strbtvc	r6, [lr], #-1394	; 0x572
 48c:	006e6970 	rsbeq	r6, lr, r0, ror r9
 490:	4f495047 	svcmi	0x00495047
 494:	6972575f 	ldmdbvs	r2!, {r0, r1, r2, r3, r4, r6, r8, r9, sl, ip, lr}^
 498:	47006574 	smlsdxmi	r0, r4, r5, r6
 49c:	784f4950 	stmdavc	pc, {r4, r6, r8, fp, lr}^	; <UNPREDICTABLE>
 4a0:	6d657400 	cfstrdvs	mvd7, [r5, #-0]
 4a4:	00325f70 	eorseq	r5, r2, r0, ror pc
 4a8:	4f495047 	svcmi	0x00495047
 4ac:	6e69505f 	mcrvs	0, 3, r5, cr9, cr15, {2}
 4b0:	6f434641 	svcvs	0x00434641
 4b4:	6769666e 	strbvs	r6, [r9, -lr, ror #12]!
 4b8:	49504700 	ldmdbmi	r0, {r8, r9, sl, lr}^
 4bc:	65525f4f 	ldrbvs	r5, [r2, #-3919]	; 0xf4f
 4c0:	754f6461 	strbvc	r6, [pc, #-1121]	; 67 <_Min_Heap_Size-0x199>
 4c4:	74757074 	ldrbtvc	r7, [r5], #-116	; 0x74
 4c8:	61746144 	cmnvs	r4, r4, asr #2
 4cc:	00746942 	rsbseq	r6, r4, r2, asr #18
 4d0:	334d5453 	movtcc	r5, #54355	; 0xd453
 4d4:	78344632 	ldmdavc	r4!, {r1, r4, r5, r9, sl, lr}
 4d8:	53445f78 	movtpl	r5, #20344	; 0x4f78
 4dc:	74535f50 	ldrbvc	r5, [r3], #-3920	; 0xf50
 4e0:	72655064 	rsbvc	r5, r5, #100	; 0x64
 4e4:	5f687069 	svcpl	0x00687069
 4e8:	5f62694c 	svcpl	0x0062694c
 4ec:	382e3156 	stmdacc	lr!, {r1, r2, r4, r6, r8, ip, sp}
 4f0:	4c2f302e 	stcmi	0, cr3, [pc], #-184	; 440 <_Min_Stack_Size+0x40>
 4f4:	61726269 	cmnvs	r2, r9, ror #4
 4f8:	73656972 	cmnvc	r5, #1867776	; 0x1c8000
 4fc:	4d54532f 	ldclmi	3, cr5, [r4, #-188]	; 0xffffff44
 500:	34463233 	strbcc	r3, [r6], #-563	; 0x233
 504:	535f7878 	cmppl	pc, #120, 16	; 0x780000
 508:	65506474 	ldrbvs	r6, [r0, #-1140]	; 0x474
 50c:	68706972 	ldmdavs	r0!, {r1, r4, r5, r6, r8, fp, sp, lr}^
 510:	6972445f 	ldmdbvs	r2!, {r0, r1, r2, r3, r4, r6, sl, lr}^
 514:	2f726576 	svccs	0x00726576
 518:	2f637273 	svccs	0x00637273
 51c:	336d7473 	cmncc	sp, #1929379840	; 0x73000000
 520:	78346632 	ldmdavc	r4!, {r1, r4, r5, r9, sl, sp, lr}
 524:	70675f78 	rsbvc	r5, r7, r8, ror pc
 528:	632e6f69 			; <UNDEFINED> instruction: 0x632e6f69
 52c:	43435200 	movtmi	r5, #12800	; 0x3200
 530:	4c43485f 	mcrrmi	8, 5, r4, r3, cr15
 534:	4352004b 	cmpmi	r2, #75	; 0x4b
 538:	534c5f43 	movtpl	r5, #53059	; 0xcf43
 53c:	50410045 	subpl	r0, r1, r5, asr #32
 540:	504c3142 	subpl	r3, ip, r2, asr #2
 544:	00524e45 	subseq	r4, r2, r5, asr #28
 548:	5f434352 	svcpl	0x00434352
 54c:	534c4c50 	movtpl	r4, #52304	; 0xcc50
 550:	6d434941 	stclvs	9, cr4, [r3, #-260]	; 0xfffffefc
 554:	43520064 	cmpmi	r2, #100	; 0x64
 558:	4c505f43 	mrrcmi	15, 4, r5, r0, cr3
 55c:	4941534c 	stmdbmi	r1, {r2, r3, r6, r8, r9, ip, lr}^
 560:	51766944 	cmnpl	r6, r4, asr #18
 564:	43435200 	movtmi	r5, #12800	; 0x3200
 568:	4c4c505f 	mcrrmi	0, 5, r5, ip, cr15
 56c:	44494153 	strbmi	r4, [r9], #-339	; 0x153
 570:	00527669 	subseq	r7, r2, r9, ror #12
 574:	74617473 	strbtvc	r7, [r1], #-1139	; 0x473
 578:	65727375 	ldrbvs	r7, [r2, #-885]!	; 0x375
 57c:	59530067 	ldmdbpl	r3, {r0, r1, r2, r5, r6}^
 580:	4b4c4353 	blmi	13112d4 <_Min_Stack_Size+0x1310ed4>
 584:	6572465f 	ldrbvs	r4, [r2, #-1631]!	; 0x65f
 588:	6e657571 	mcrvs	5, 3, r7, cr5, cr1, {3}
 58c:	70007963 	andvc	r7, r0, r3, ror #18
 590:	006d6c6c 	rsbeq	r6, sp, ip, ror #24
 594:	706c6c70 	rsbvc	r6, ip, r0, ror ip
 598:	43435200 	movtmi	r5, #12800	; 0x3200
 59c:	4f434d5f 	svcmi	0x00434d5f
 5a0:	756f5331 	strbvc	r5, [pc, #-817]!	; 277 <_Min_Heap_Size+0x77>
 5a4:	00656372 	rsbeq	r6, r5, r2, ror r3
 5a8:	5f434352 	svcpl	0x00434352
 5ac:	31425041 	cmpcc	r2, r1, asr #32
 5b0:	69726550 	ldmdbvs	r2!, {r4, r6, r8, sl, sp, lr}^
 5b4:	65526870 	ldrbvs	r6, [r2, #-2160]	; 0x870
 5b8:	43746573 	cmnmi	r4, #482344960	; 0x1cc00000
 5bc:	5000646d 	andpl	r6, r0, sp, ror #8
 5c0:	004e4c4c 	subeq	r4, lr, ip, asr #24
 5c4:	5f434352 	svcpl	0x00434352
 5c8:	50494153 	subpl	r4, r9, r3, asr r1
 5cc:	41534c4c 	cmpmi	r3, ip, asr #24
 5d0:	6b6c4349 	blvs	1b112fc <_Min_Stack_Size+0x1b10efc>
 5d4:	43766944 	cmnmi	r6, #68, 18	; 0x110000
 5d8:	69666e6f 	stmdbvs	r6!, {r0, r1, r2, r3, r5, r6, r9, sl, fp, sp, lr}^
 5dc:	4c500067 	mrrcmi	0, 6, r0, r0, cr7	; <UNPREDICTABLE>
 5e0:	5000504c 	andpl	r5, r0, ip, asr #32
 5e4:	00514c4c 	subseq	r4, r1, ip, asr #24
 5e8:	5f434352 	svcpl	0x00434352
 5ec:	61656c43 	cmnvs	r5, r3, asr #24
 5f0:	50544972 	subspl	r4, r4, r2, ror r9
 5f4:	69646e65 	stmdbvs	r4!, {r0, r2, r5, r6, r9, sl, fp, sp, lr}^
 5f8:	6942676e 	stmdbvs	r2, {r1, r2, r3, r5, r6, r8, r9, sl, sp, lr}^
 5fc:	4c500074 	mrrcmi	0, 7, r0, r0, cr4	; <UNPREDICTABLE>
 600:	52004d4c 	andpl	r4, r0, #76, 26	; 0x1300
 604:	415f4343 	cmpmi	pc, r3, asr #6
 608:	50314248 	eorspl	r4, r1, r8, asr #4
 60c:	70697265 	rsbvc	r7, r9, r5, ror #4
 610:	48410068 	stmdami	r1, {r3, r5, r6}^
 614:	504c3142 	subpl	r3, ip, r2, asr #2
 618:	00524e45 	subseq	r4, r2, r5, asr #28
 61c:	5f434352 	svcpl	0x00434352
 620:	636f6c43 	cmnvs	pc, #17152	; 0x4300
 624:	5200736b 	andpl	r7, r0, #-1409286143	; 0xac000001
 628:	415f4343 	cmpmi	pc, r3, asr #6
 62c:	50324250 	eorspl	r4, r2, r0, asr r2
 630:	70697265 	rsbvc	r7, r9, r5, ror #4
 634:	6f6c4368 	svcvs	0x006c4368
 638:	504c6b63 	subpl	r6, ip, r3, ror #22
 63c:	65646f4d 	strbvs	r6, [r4, #-3917]!	; 0xf4d
 640:	00646d43 	rsbeq	r6, r4, r3, asr #26
 644:	434b4344 	movtmi	r4, #45892	; 0xb344
 648:	00524746 	subseq	r4, r2, r6, asr #14
 64c:	5f434352 	svcpl	0x00434352
 650:	61656c43 	cmnvs	r5, r3, asr #24
 654:	616c4672 	smcvs	50274	; 0xc462
 658:	48410067 	stmdami	r1, {r0, r1, r2, r5, r6}^
 65c:	53523142 	cmppl	r2, #-2147483632	; 0x80000010
 660:	44005254 	strmi	r5, [r0], #-596	; 0x254
 664:	46434b43 	strbmi	r4, [r3], -r3, asr #22
 668:	00325247 	eorseq	r5, r2, r7, asr #4
 66c:	72706d74 	rsbsvc	r6, r0, #116, 26	; 0x1d00
 670:	50006765 	andpl	r6, r0, r5, ror #14
 674:	324b4c43 	subcc	r4, fp, #17152	; 0x4300
 678:	6572465f 	ldrbvs	r4, [r2, #-1631]!	; 0x65f
 67c:	6e657571 	mcrvs	5, 3, r7, cr5, cr1, {3}
 680:	52007963 	andpl	r7, r0, #1622016	; 0x18c000
 684:	415f4343 	cmpmi	pc, r3, asr #6
 688:	50324248 	eorspl	r4, r2, r8, asr #4
 68c:	70697265 	rsbvc	r7, r9, r5, ror #4
 690:	6f6c4368 	svcvs	0x006c4368
 694:	6d436b63 	vstrvs	d22, [r3, #-396]	; 0xfffffe74
 698:	50410064 	subpl	r0, r1, r4, rrx
 69c:	53523242 	cmppl	r2, #536870916	; 0x20000004
 6a0:	52005254 	andpl	r5, r0, #84, 4	; 0x40000005
 6a4:	505f4343 	subspl	r4, pc, r3, asr #6
 6a8:	314b4c43 	cmpcc	fp, r3, asr #24
 6ac:	666e6f43 	strbtvs	r6, [lr], -r3, asr #30
 6b0:	52006769 	andpl	r6, r0, #27525120	; 0x1a40000
 6b4:	415f4343 	cmpmi	pc, r3, asr #6
 6b8:	50334248 	eorspl	r4, r3, r8, asr #4
 6bc:	70697265 	rsbvc	r7, r9, r5, ror #4
 6c0:	73655268 	cmnvc	r5, #104, 4	; 0x80000006
 6c4:	6d437465 	cfstrdvs	mvd7, [r3, #-404]	; 0xfffffe6c
 6c8:	43520064 	cmpmi	r2, #100	; 0x64
 6cc:	41535f43 	cmpmi	r3, r3, asr #30
 6d0:	6f6c4249 	svcvs	0x006c4249
 6d4:	43416b63 	movtmi	r6, #7011	; 0x1b63
 6d8:	6f434b4c 	svcvs	0x00434b4c
 6dc:	6769666e 	strbvs	r6, [r9, -lr, ror #12]!
 6e0:	43435200 	movtmi	r5, #12800	; 0x3200
 6e4:	4c43485f 	mcrrmi	8, 5, r4, r3, cr15
 6e8:	6e6f434b 	cdpvs	3, 6, cr4, cr15, cr11, {2}
 6ec:	00676966 	rsbeq	r6, r7, r6, ror #18
 6f0:	5f434352 	svcpl	0x00434352
 6f4:	43535953 	cmpmi	r3, #1359872	; 0x14c000
 6f8:	6f434b4c 	svcvs	0x00434b4c
 6fc:	6769666e 	strbvs	r6, [r9, -lr, ror #12]!
 700:	43435200 	movtmi	r5, #12800	; 0x3200
 704:	45534c5f 	ldrbmi	r4, [r3, #-3167]	; 0xc5f
 708:	666e6f43 	strbtvs	r6, [lr], -r3, asr #30
 70c:	52006769 	andpl	r6, r0, #27525120	; 0x1a40000
 710:	465f4343 	ldrbmi	r4, [pc], -r3, asr #6
 714:	0047414c 	subeq	r4, r7, ip, asr #2
 718:	5377654e 	cmnpl	r7, #327155712	; 0x13800000
 71c:	65746174 	ldrbvs	r6, [r4, #-372]!	; 0x174
 720:	4c4c5000 	marmi	acc0, r5, ip
 724:	52474643 	subpl	r4, r7, #70254592	; 0x4300000
 728:	43435200 	movtmi	r5, #12800	; 0x3200
 72c:	6361425f 	cmnvs	r1, #-268435451	; 0xf0000005
 730:	5270756b 	rsbspl	r7, r0, #448790528	; 0x1ac00000
 734:	74657365 	strbtvc	r7, [r5], #-869	; 0x365
 738:	00646d43 	rsbeq	r6, r4, r3, asr #26
 73c:	5f434352 	svcpl	0x00434352
 740:	45005449 	strmi	r5, [r0, #-1097]	; 0x449
 744:	726f7272 	rsbvc	r7, pc, #536870919	; 0x20000007
 748:	74617453 	strbtvc	r7, [r1], #-1107	; 0x453
 74c:	52007375 	andpl	r7, r0, #-738197503	; 0xd4000001
 750:	505f4343 	subspl	r4, pc, r3, asr #6
 754:	6f534c4c 	svcvs	0x00534c4c
 758:	65637275 	strbvs	r7, [r3, #-629]!	; 0x275
 75c:	43435200 	movtmi	r5, #12800	; 0x3200
 760:	7465475f 	strbtvc	r4, [r5], #-1887	; 0x75f
 764:	43535953 	cmpmi	r3, #1359872	; 0x14c000
 768:	6f534b4c 	svcvs	0x00534b4c
 76c:	65637275 	strbvs	r7, [r3, #-629]!	; 0x275
 770:	43435200 	movtmi	r5, #12800	; 0x3200
 774:	6961575f 	stmdbvs	r1!, {r0, r1, r2, r3, r4, r6, r8, r9, sl, ip, lr}^
 778:	726f4674 	rsbvc	r4, pc, #116, 12	; 0x7400000
 77c:	53455348 	movtpl	r5, #21320	; 0x5348
 780:	74726174 	ldrbtvc	r6, [r2], #-372	; 0x174
 784:	48007055 	stmdami	r0, {r0, r2, r4, r6, ip, sp, lr}
 788:	5f4b4c43 	svcpl	0x004b4c43
 78c:	71657246 	cmnvc	r5, r6, asr #4
 790:	636e6575 	cmnvs	lr, #490733568	; 0x1d400000
 794:	43520079 	cmpmi	r2, #121	; 0x79
 798:	50415f43 	subpl	r5, r1, r3, asr #30
 79c:	65503142 	ldrbvs	r3, [r0, #-322]	; 0x142
 7a0:	68706972 	ldmdavs	r0!, {r1, r4, r5, r6, r8, fp, sp, lr}^
 7a4:	6c6c7000 	stclvs	0, cr7, [ip], #-0
 7a8:	006f6376 	rsbeq	r6, pc, r6, ror r3	; <UNPREDICTABLE>
 7ac:	5f434352 	svcpl	0x00434352
 7b0:	43435452 	movtmi	r5, #13394	; 0x3452
 7b4:	6f434b4c 	svcvs	0x00434b4c
 7b8:	6769666e 	strbvs	r6, [r9, -lr, ror #12]!
 7bc:	43435200 	movtmi	r5, #12800	; 0x3200
 7c0:	4f434d5f 	svcmi	0x00434d5f
 7c4:	6e6f4331 	mcrvs	3, 3, r4, cr15, cr1, {1}
 7c8:	00676966 	rsbeq	r6, r7, r6, ror #18
 7cc:	5f434352 	svcpl	0x00434352
 7d0:	43535953 	cmpmi	r3, #1359872	; 0x14c000
 7d4:	52004b4c 	andpl	r4, r0, #76, 22	; 0x13000
 7d8:	505f4343 	subspl	r4, pc, r3, asr #6
 7dc:	32494c4c 	subcc	r4, r9, #76, 24	; 0x4c00
 7e0:	646d4353 	strbtvs	r4, [sp], #-851	; 0x353
 7e4:	43435200 	movtmi	r5, #12800	; 0x3200
 7e8:	7079545f 	rsbsvc	r5, r9, pc, asr r4
 7ec:	66654465 	strbtvs	r4, [r5], -r5, ror #8
 7f0:	65727000 	ldrbvs	r7, [r2, #-0]!
 7f4:	52006373 	andpl	r6, r0, #-872415231	; 0xcc000001
 7f8:	525f4343 	subspl	r4, pc, #201326593	; 0xc000001
 7fc:	4c434354 	mcrrmi	3, 5, r4, r3, cr4
 800:	756f534b 	strbvc	r5, [pc, #-843]!	; 4bd <_Min_Stack_Size+0xbd>
 804:	00656372 	rsbeq	r6, r5, r2, ror r3
 808:	5f434352 	svcpl	0x00434352
 80c:	42494153 	submi	r4, r9, #-1073741804	; 0xc0000014
 810:	6b636f6c 	blvs	18dc5c8 <_Min_Stack_Size+0x18dc1c8>
 814:	4b4c4341 	blmi	1311520 <_Min_Stack_Size+0x1311120>
 818:	72756f53 	rsbsvc	r6, r5, #332	; 0x14c
 81c:	52006563 	andpl	r6, r0, #415236096	; 0x18c00000
 820:	535f4343 	cmppl	pc, #201326593	; 0xc000001
 824:	6c424941 	mcrrvs	9, 4, r4, r2, cr1
 828:	426b636f 	rsbmi	r6, fp, #-1140850687	; 0xbc000001
 82c:	534b4c43 	movtpl	r4, #48195	; 0xbc43
 830:	6372756f 	cmnvs	r2, #465567744	; 0x1bc00000
 834:	43520065 	cmpmi	r2, #101	; 0x65
 838:	544c5f43 	strbpl	r5, [ip], #-3907	; 0xf43
 83c:	4c434344 	mcrrmi	3, 4, r4, r3, cr4
 840:	7669444b 	strbtvc	r4, [r9], -fp, asr #8
 844:	666e6f43 	strbtvs	r6, [lr], -r3, asr #30
 848:	50006769 	andpl	r6, r0, r9, ror #14
 84c:	32494c4c 	subcc	r4, r9, #76, 24	; 0x4c00
 850:	47464353 	smlsldmi	r4, r6, r3, r3
 854:	43520052 	cmpmi	r2, #82	; 0x52
 858:	48415f43 	stmdami	r1, {r0, r1, r6, r8, r9, sl, fp, ip, lr}^
 85c:	65503242 	ldrbvs	r3, [r0, #-578]	; 0x242
 860:	68706972 	ldmdavs	r0!, {r1, r4, r5, r6, r8, fp, sp, lr}^
 864:	636f6c43 	cmnvs	pc, #17152	; 0x4300
 868:	4d504c6b 	ldclmi	12, cr4, [r0, #-428]	; 0xfffffe54
 86c:	4365646f 	cmnmi	r5, #1862270976	; 0x6f000000
 870:	5200646d 	andpl	r6, r0, #1828716544	; 0x6d000000
 874:	505f4343 	subspl	r4, pc, r3, asr #6
 878:	32494c4c 	subcc	r4, r9, #76, 24	; 0x4c00
 87c:	6e6f4353 	mcrvs	3, 3, r4, cr15, cr3, {2}
 880:	00676966 	rsbeq	r6, r7, r6, ror #18
 884:	5f434352 	svcpl	0x00434352
 888:	43495348 	movtmi	r5, #37704	; 0x9348
 88c:	5200646d 	andpl	r6, r0, #1828716544	; 0x6d000000
 890:	415f4343 	cmpmi	pc, r3, asr #6
 894:	50324248 	eorspl	r4, r2, r8, asr #4
 898:	70697265 	rsbvc	r7, r9, r5, ror #4
 89c:	50410068 	subpl	r0, r1, r8, rrx
 8a0:	504c3242 	subpl	r3, ip, r2, asr #4
 8a4:	00524e45 	subseq	r4, r2, r5, asr #28
 8a8:	5f434352 	svcpl	0x00434352
 8ac:	33424841 	movtcc	r4, #10305	; 0x2841
 8b0:	69726550 	ldmdbvs	r2!, {r4, r6, r8, sl, sp, lr}^
 8b4:	52006870 	andpl	r6, r0, #112, 16	; 0x700000
 8b8:	4d5f4343 	ldclmi	3, cr4, [pc, #-268]	; 7b4 <_Min_Stack_Size+0x3b4>
 8bc:	44324f43 	ldrtmi	r4, [r2], #-3907	; 0xf43
 8c0:	52007669 	andpl	r7, r0, #110100480	; 0x6900000
 8c4:	535f4343 	cmppl	pc, #201326593	; 0xc000001
 8c8:	4c504941 	mrrcmi	9, 4, r4, r0, cr1
 8cc:	5332494c 	teqpl	r2, #76, 18	; 0x130000
 8d0:	446b6c43 	strbtmi	r6, [fp], #-3139	; 0xc43
 8d4:	6f437669 	svcvs	0x00437669
 8d8:	6769666e 	strbvs	r6, [r9, -lr, ror #12]!
 8dc:	43435200 	movtmi	r5, #12800	; 0x3200
 8e0:	4354525f 	cmpmi	r4, #-268435451	; 0xf0000005
 8e4:	434b4c43 	movtmi	r4, #48195	; 0xbc43
 8e8:	4500646d 	strmi	r6, [r0, #-1133]	; 0x46d
 8ec:	524f5252 	subpl	r5, pc, #536870917	; 0x20000005
 8f0:	43435200 	movtmi	r5, #12800	; 0x3200
 8f4:	6f6c435f 	svcvs	0x006c435f
 8f8:	65536b63 	ldrbvs	r6, [r3, #-2915]	; 0xb63
 8fc:	69727563 	ldmdbvs	r2!, {r0, r1, r5, r6, r8, sl, ip, sp, lr}^
 900:	79537974 	ldmdbvc	r3, {r2, r4, r5, r6, r8, fp, ip, sp, lr}^
 904:	6d657473 	cfstrdvs	mvd7, [r5, #-460]!	; 0xfffffe34
 908:	00646d43 	rsbeq	r6, r4, r3, asr #26
 90c:	5f434352 	svcpl	0x00434352
 910:	494c4c50 	stmdbmi	ip, {r4, r6, sl, fp, lr}^
 914:	69445332 	stmdbvs	r4, {r1, r4, r5, r8, r9, ip, lr}^
 918:	52005176 	andpl	r5, r0, #-2147483619	; 0x8000001d
 91c:	505f4343 	subspl	r4, pc, r3, asr #6
 920:	41534c4c 	cmpmi	r3, ip, asr #24
 924:	6e6f4349 	cdpvs	3, 6, cr4, cr15, cr9, {2}
 928:	00676966 	rsbeq	r6, r7, r6, ror #18
 92c:	33424841 	movtcc	r4, #10305	; 0x2841
 930:	00524e45 	subseq	r4, r2, r5, asr #28
 934:	5f434352 	svcpl	0x00434352
 938:	4d45534c 	stclmi	3, cr5, [r5, #-304]	; 0xfffffed0
 93c:	4365646f 	cmnmi	r5, #1862270976	; 0x6f000000
 940:	69666e6f 	stmdbvs	r6!, {r0, r1, r2, r3, r5, r6, r9, sl, fp, sp, lr}^
 944:	48410067 	stmdami	r1, {r0, r1, r2, r5, r6}^
 948:	504c3242 	subpl	r3, ip, r2, asr #4
 94c:	00524e45 	subseq	r4, r2, r5, asr #28
 950:	5f434352 	svcpl	0x00434352
 954:	314f434d 	cmpcc	pc, sp, asr #6
 958:	00766944 	rsbseq	r6, r6, r4, asr #18
 95c:	5f434352 	svcpl	0x00434352
 960:	32425041 	subcc	r5, r2, #65	; 0x41
 964:	69726550 	ldmdbvs	r2!, {r4, r6, r8, sl, sp, lr}^
 968:	65526870 	ldrbvs	r6, [r2, #-2160]	; 0x870
 96c:	43746573 	cmnmi	r4, #482344960	; 0x1cc00000
 970:	5200646d 	andpl	r6, r0, #1828716544	; 0x6d000000
 974:	4d5f4343 	ldclmi	3, cr4, [pc, #-268]	; 870 <_Min_Stack_Size+0x470>
 978:	53324f43 	teqpl	r2, #268	; 0x10c
 97c:	6372756f 	cmnvs	r2, #465567744	; 0x1bc00000
 980:	43520065 	cmpmi	r2, #101	; 0x65
 984:	32495f43 	subcc	r5, r9, #268	; 0x10c
 988:	4b4c4353 	blmi	13116dc <_Min_Stack_Size+0x13112dc>
 98c:	72756f53 	rsbsvc	r6, r5, #332	; 0x14c
 990:	50006563 	andpl	r6, r0, r3, ror #10
 994:	41534c4c 	cmpmi	r3, ip, asr #24
 998:	47464349 	strbmi	r4, [r6, -r9, asr #6]
 99c:	45520052 	ldrbmi	r0, [r2, #-82]	; 0x52
 9a0:	56524553 			; <UNDEFINED> instruction: 0x56524553
 9a4:	00304445 	eorseq	r4, r0, r5, asr #8
 9a8:	45534552 	ldrbmi	r4, [r3, #-1362]	; 0x552
 9ac:	44455652 	strbmi	r5, [r5], #-1618	; 0x652
 9b0:	45520031 	ldrbmi	r0, [r2, #-49]	; 0x31
 9b4:	56524553 			; <UNDEFINED> instruction: 0x56524553
 9b8:	00324445 	eorseq	r4, r2, r5, asr #8
 9bc:	45534552 	ldrbmi	r4, [r3, #-1362]	; 0x552
 9c0:	44455652 	strbmi	r5, [r5], #-1618	; 0x652
 9c4:	45520033 	ldrbmi	r0, [r2, #-51]	; 0x33
 9c8:	56524553 			; <UNDEFINED> instruction: 0x56524553
 9cc:	00344445 	eorseq	r4, r4, r5, asr #8
 9d0:	45534552 	ldrbmi	r4, [r3, #-1362]	; 0x552
 9d4:	44455652 	strbmi	r5, [r5], #-1618	; 0x652
 9d8:	45520035 	ldrbmi	r0, [r2, #-53]	; 0x35
 9dc:	56524553 			; <UNDEFINED> instruction: 0x56524553
 9e0:	00364445 	eorseq	r4, r6, r5, asr #8
 9e4:	334d5453 	movtcc	r5, #54355	; 0xd453
 9e8:	78344632 	ldmdavc	r4!, {r1, r4, r5, r9, sl, lr}
 9ec:	53445f78 	movtpl	r5, #20344	; 0x4f78
 9f0:	74535f50 	ldrbvc	r5, [r3], #-3920	; 0xf50
 9f4:	72655064 	rsbvc	r5, r5, #100	; 0x64
 9f8:	5f687069 	svcpl	0x00687069
 9fc:	5f62694c 	svcpl	0x0062694c
 a00:	382e3156 	stmdacc	lr!, {r1, r2, r4, r6, r8, ip, sp}
 a04:	4c2f302e 	stcmi	0, cr3, [pc], #-184	; 954 <_Min_Stack_Size+0x554>
 a08:	61726269 	cmnvs	r2, r9, ror #4
 a0c:	73656972 	cmnvc	r5, #1867776	; 0x1c8000
 a10:	4d54532f 	ldclmi	3, cr5, [r4, #-188]	; 0xffffff44
 a14:	34463233 	strbcc	r3, [r6], #-563	; 0x233
 a18:	535f7878 	cmppl	pc, #120, 16	; 0x780000
 a1c:	65506474 	ldrbvs	r6, [r0, #-1140]	; 0x474
 a20:	68706972 	ldmdavs	r0!, {r1, r4, r5, r6, r8, fp, sp, lr}^
 a24:	6972445f 	ldmdbvs	r2!, {r0, r1, r2, r3, r4, r6, sl, lr}^
 a28:	2f726576 	svccs	0x00726576
 a2c:	2f637273 	svccs	0x00637273
 a30:	336d7473 	cmncc	sp, #1929379840	; 0x73000000
 a34:	78346632 	ldmdavc	r4!, {r1, r4, r5, r9, sl, sp, lr}
 a38:	63725f78 	cmnvs	r2, #120, 30	; 0x1e0
 a3c:	00632e63 	rsbeq	r2, r3, r3, ror #28
 a40:	5f434352 	svcpl	0x00434352
 a44:	46746547 	ldrbtmi	r6, [r4], -r7, asr #10
 a48:	5367616c 	cmnpl	r7, #108, 2
 a4c:	75746174 	ldrbvc	r6, [r4, #-372]!	; 0x174
 a50:	43520073 	cmpmi	r2, #115	; 0x73
 a54:	53485f43 	movtpl	r5, #36675	; 0x8f43
 a58:	6e6f4345 	cdpvs	3, 6, cr4, cr15, cr5, {2}
 a5c:	00676966 	rsbeq	r6, r7, r6, ror #18
 a60:	5f434352 	svcpl	0x00434352
 a64:	42494153 	submi	r4, r9, #-1073741804	; 0xc0000014
 a68:	6b636f6c 	blvs	18dc820 <_Min_Stack_Size+0x18dc420>
 a6c:	4b4c4342 	blmi	131177c <_Min_Stack_Size+0x131137c>
 a70:	666e6f43 	strbtvs	r6, [lr], -r3, asr #30
 a74:	50006769 	andpl	r6, r0, r9, ror #14
 a78:	41534c4c 	cmpmi	r3, ip, asr #24
 a7c:	50004e49 	andpl	r4, r0, r9, asr #28
 a80:	41534c4c 	cmpmi	r3, ip, asr #24
 a84:	50005149 	andpl	r5, r0, r9, asr #2
 a88:	41534c4c 	cmpmi	r3, ip, asr #24
 a8c:	52005249 	andpl	r5, r0, #-1879048188	; 0x90000004
 a90:	545f4343 	ldrbpl	r4, [pc], #-835	; a98 <_Min_Stack_Size+0x698>
 a94:	4c434d49 	mcrrmi	13, 4, r4, r3, cr9
 a98:	6572504b 	ldrbvs	r5, [r2, #-75]!	; 0x4b
 a9c:	6c616373 	stclvs	3, cr6, [r1], #-460	; 0xfffffe34
 aa0:	52007265 	andpl	r7, r0, #1342177286	; 0x50000006
 aa4:	505f4343 	subspl	r4, pc, r3, asr #6
 aa8:	6d434c4c 	stclvs	12, cr4, [r3, #-304]	; 0xfffffed0
 aac:	50410064 	subpl	r0, r1, r4, rrx
 ab0:	4e453242 	cdpmi	2, 4, cr3, cr5, cr2, {2}
 ab4:	48410052 	stmdami	r1, {r1, r4, r6}^
 ab8:	53523342 	cmppl	r2, #134217729	; 0x8000001
 abc:	52005254 	andpl	r5, r0, #84, 4	; 0x40000005
 ac0:	4d5f4343 	ldclmi	3, cr4, [pc, #-268]	; 9bc <_Min_Stack_Size+0x5bc>
 ac4:	0065646f 	rsbeq	r6, r5, pc, ror #8
 ac8:	5f434352 	svcpl	0x00434352
 acc:	32424841 	subcc	r4, r2, #4259840	; 0x410000
 ad0:	69726550 	ldmdbvs	r2!, {r4, r6, r8, sl, sp, lr}^
 ad4:	65526870 	ldrbvs	r6, [r2, #-2160]	; 0x870
 ad8:	43746573 	cmnmi	r4, #482344960	; 0x1cc00000
 adc:	5200646d 	andpl	r6, r0, #1828716544	; 0x6d000000
 ae0:	415f4343 	cmpmi	pc, r3, asr #6
 ae4:	50314250 	eorspl	r4, r1, r0, asr r2
 ae8:	70697265 	rsbvc	r7, r9, r5, ror #4
 aec:	6f6c4368 	svcvs	0x006c4368
 af0:	504c6b63 	subpl	r6, ip, r3, ror #22
 af4:	65646f4d 	strbvs	r6, [r4, #-3917]!	; 0xf4d
 af8:	00646d43 	rsbeq	r6, r4, r3, asr #26
 afc:	5f434352 	svcpl	0x00434352
 b00:	4b4c4350 	blmi	1311848 <_Min_Stack_Size+0x1311448>
 b04:	6e6f4332 	mcrvs	3, 3, r4, cr15, cr2, {1}
 b08:	00676966 	rsbeq	r6, r7, r6, ror #18
 b0c:	5f434352 	svcpl	0x00434352
 b10:	43535953 	cmpmi	r3, #1359872	; 0x14c000
 b14:	6f534b4c 	svcvs	0x00534b4c
 b18:	65637275 	strbvs	r7, [r3, #-629]!	; 0x275
 b1c:	43435200 	movtmi	r5, #12800	; 0x3200
 b20:	4553485f 	ldrbmi	r4, [r3, #-2143]	; 0x85f
 b24:	4c435000 	marmi	acc0, r5, r3
 b28:	465f314b 	ldrbmi	r3, [pc], -fp, asr #2
 b2c:	75716572 	ldrbvc	r6, [r1, #-1394]!	; 0x572
 b30:	79636e65 	stmdbvc	r3!, {r0, r2, r5, r6, r9, sl, fp, sp, lr}^
 b34:	42504100 	subsmi	r4, r0, #0, 2
 b38:	50424841 	subpl	r4, r2, r1, asr #16
 b3c:	63736572 	cmnvs	r3, #478150656	; 0x1c800000
 b40:	6c626154 	stfvse	f6, [r2], #-336	; 0xfffffeb0
 b44:	43520065 	cmpmi	r2, #101	; 0x65
 b48:	64415f43 	strbvs	r5, [r1], #-3907	; 0xf43
 b4c:	7473756a 	ldrbtvc	r7, [r3], #-1386	; 0x56a
 b50:	43495348 	movtmi	r5, #37704	; 0x9348
 b54:	62696c61 	rsbvs	r6, r9, #24832	; 0x6100
 b58:	69746172 	ldmdbvs	r4!, {r1, r4, r5, r6, r8, sp, lr}^
 b5c:	61566e6f 	cmpvs	r6, pc, ror #28
 b60:	0065756c 	rsbeq	r7, r5, ip, ror #10
 b64:	73657368 	cmnvc	r5, #104, 6	; 0xa0000001
 b68:	75746174 	ldrbvc	r6, [r4, #-372]!	; 0x174
 b6c:	4c500073 	mrrcmi	0, 7, r0, r0, cr3	; <UNPREDICTABLE>
 b70:	5332494c 	teqpl	r2, #76, 18	; 0x130000
 b74:	4352004e 	cmpmi	r2, #78	; 0x4e
 b78:	65475f43 	strbvs	r5, [r7, #-3907]	; 0xf43
 b7c:	6f6c4374 	svcvs	0x006c4374
 b80:	46736b63 	ldrbtmi	r6, [r3], -r3, ror #22
 b84:	00716572 	rsbseq	r6, r1, r2, ror r5
 b88:	5f434352 	svcpl	0x00434352
 b8c:	32425041 	subcc	r5, r2, #65	; 0x41
 b90:	69726550 	ldmdbvs	r2!, {r4, r6, r8, sl, sp, lr}^
 b94:	6c436870 	mcrrvs	8, 7, r6, r3, cr0
 b98:	436b636f 	cmnmi	fp, #-1140850687	; 0xbc000001
 b9c:	4100646d 	tstmi	r0, sp, ror #8
 ba0:	52324248 	eorspl	r4, r2, #72, 4	; 0x80000004
 ba4:	00525453 	subseq	r5, r2, r3, asr r4
 ba8:	5f434352 	svcpl	0x00434352
 bac:	6e496544 	cdpvs	5, 4, cr6, cr9, cr4, {2}
 bb0:	50007469 	andpl	r7, r0, r9, ror #8
 bb4:	32494c4c 	subcc	r4, r9, #76, 24	; 0x4c00
 bb8:	52005253 	andpl	r5, r0, #805306373	; 0x30000005
 bbc:	475f4343 	ldrbmi	r4, [pc, -r3, asr #6]
 bc0:	54497465 	strbpl	r7, [r9], #-1125	; 0x465
 bc4:	74617453 	strbtvc	r7, [r1], #-1107	; 0x453
 bc8:	41007375 	tstmi	r0, r5, ror r3
 bcc:	45314250 	ldrmi	r4, [r1, #-592]!	; 0x250
 bd0:	4100524e 	tstmi	r0, lr, asr #4
 bd4:	45324248 	ldrmi	r4, [r2, #-584]!	; 0x248
 bd8:	5200524e 	andpl	r5, r0, #-536870908	; 0xe0000004
 bdc:	415f4343 	cmpmi	pc, r3, asr #6
 be0:	50334248 	eorspl	r4, r3, r8, asr #4
 be4:	70697265 	rsbvc	r7, r9, r5, ror #4
 be8:	6f6c4368 	svcvs	0x006c4368
 bec:	504c6b63 	subpl	r6, ip, r3, ror #22
 bf0:	65646f4d 	strbvs	r6, [r4, #-3917]!	; 0xf4d
 bf4:	00646d43 	rsbeq	r6, r4, r3, asr #26
 bf8:	72617473 	rsbvc	r7, r1, #1929379840	; 0x73000000
 bfc:	63707574 	cmnvs	r0, #116, 10	; 0x1d000000
 c00:	746e756f 	strbtvc	r7, [lr], #-1391	; 0x56f
 c04:	52007265 	andpl	r7, r0, #1342177286	; 0x50000006
 c08:	415f4343 	cmpmi	pc, r3, asr #6
 c0c:	50324250 	eorspl	r4, r2, r0, asr r2
 c10:	70697265 	rsbvc	r7, r9, r5, ror #4
 c14:	43520068 	cmpmi	r2, #104	; 0x68
 c18:	49545f43 	ldmdbmi	r4, {r0, r1, r6, r8, r9, sl, fp, ip, lr}^
 c1c:	4b4c434d 	blmi	1311958 <_Min_Stack_Size+0x1311558>
 c20:	73657250 	cmnvc	r5, #80, 4
 c24:	666e6f43 	strbtvs	r6, [lr], -r3, asr #30
 c28:	52006769 	andpl	r6, r0, #27525120	; 0x1a40000
 c2c:	495f4343 	ldmdbmi	pc, {r0, r1, r6, r8, r9, lr}^	; <UNPREDICTABLE>
 c30:	4c435332 	mcrrmi	3, 3, r5, r3, cr2
 c34:	6e6f434b 	cdpvs	3, 6, cr4, cr15, cr11, {2}
 c38:	00676966 	rsbeq	r6, r7, r6, ror #18
 c3c:	5f434352 	svcpl	0x00434352
 c40:	324f434d 	subcc	r4, pc, #872415233	; 0x34000001
 c44:	666e6f43 	strbtvs	r6, [lr], -r3, asr #30
 c48:	53006769 	movwpl	r6, #1897	; 0x769
 c4c:	52474353 	subpl	r4, r7, #1275068417	; 0x4c000001
 c50:	42484100 	submi	r4, r8, #0, 2
 c54:	45504c33 	ldrbmi	r4, [r0, #-3123]	; 0xc33
 c58:	4100524e 	tstmi	r0, lr, asr #4
 c5c:	52314250 	eorspl	r4, r1, #80, 4
 c60:	00525453 	subseq	r5, r2, r3, asr r4
 c64:	5f434352 	svcpl	0x00434352
 c68:	4349534c 	movtmi	r5, #37708	; 0x934c
 c6c:	4300646d 	movwmi	r6, #1133	; 0x46d
 c70:	5441474b 	strbpl	r4, [r1], #-1867	; 0x74b
 c74:	00524e45 	subseq	r4, r2, r5, asr #28
 c78:	52434442 	subpl	r4, r3, #1107296256	; 0x42000000
 c7c:	43435200 	movtmi	r5, #12800	; 0x3200
 c80:	4250415f 	subsmi	r4, r0, #-1073741801	; 0xc0000017
 c84:	72655031 	rsbvc	r5, r5, #49	; 0x31
 c88:	43687069 	cmnmi	r8, #105	; 0x69
 c8c:	6b636f6c 	blvs	18dca44 <_Min_Stack_Size+0x18dc644>
 c90:	00646d43 	rsbeq	r6, r4, r3, asr #26
 c94:	5f434352 	svcpl	0x00434352
 c98:	6f435449 	svcvs	0x00435449
 c9c:	6769666e 	strbvs	r6, [r9, -lr, ror #12]!
 ca0:	43555300 	cmpmi	r5, #0, 6
 ca4:	53534543 	cmppl	r3, #281018368	; 0x10c00000
 ca8:	43435200 	movtmi	r5, #12800	; 0x3200
 cac:	4c4c505f 	mcrrmi	0, 5, r5, ip, cr15
 cb0:	666e6f43 	strbtvs	r6, [lr], -r3, asr #30
 cb4:	52006769 	andpl	r6, r0, #27525120	; 0x1a40000
 cb8:	435f4343 	cmpmi	pc, #201326593	; 0xc000001
 cbc:	6b636f6c 	blvs	18dca74 <_Min_Stack_Size+0x18dc674>
 cc0:	70795473 	rsbsvc	r5, r9, r3, ror r4
 cc4:	66654465 	strbtvs	r4, [r5], -r5, ror #8
 cc8:	42484100 	submi	r4, r8, #0, 2
 ccc:	524e4531 	subpl	r4, lr, #205520896	; 0xc400000
 cd0:	6c6c7000 	stclvs	0, cr7, [ip], #-0
 cd4:	72756f73 	rsbsvc	r6, r5, #460	; 0x1cc
 cd8:	52006563 	andpl	r6, r0, #415236096	; 0x18c00000
 cdc:	415f4343 	cmpmi	pc, r3, asr #6
 ce0:	50314248 	eorspl	r4, r1, r8, asr #4
 ce4:	70697265 	rsbvc	r7, r9, r5, ror #4
 ce8:	6f6c4368 	svcvs	0x006c4368
 cec:	504c6b63 	subpl	r6, ip, r3, ror #22
 cf0:	65646f4d 	strbvs	r6, [r4, #-3917]!	; 0xf4d
 cf4:	00646d43 	rsbeq	r6, r4, r3, asr #26
 cf8:	5f434352 	svcpl	0x00434352
 cfc:	33424841 	movtcc	r4, #10305	; 0x2841
 d00:	69726550 	ldmdbvs	r2!, {r4, r6, r8, sl, sp, lr}^
 d04:	6c436870 	mcrrvs	8, 7, r6, r3, cr0
 d08:	436b636f 	cmnmi	fp, #-1140850687	; 0xbc000001
 d0c:	4800646d 	stmdami	r0, {r0, r2, r3, r5, r6, sl, sp, lr}
 d10:	74534553 	ldrbvc	r4, [r3], #-1363	; 0x553
 d14:	73757461 	cmnvc	r5, #1627389952	; 0x61000000
 d18:	55504300 	ldrbpl	r4, [r0, #-768]	; 0x300
 d1c:	53004449 	movwpl	r4, #1097	; 0x449
 d20:	32334d54 	eorscc	r4, r3, #84, 26	; 0x1500
 d24:	78783446 	ldmdavc	r8!, {r1, r2, r6, sl, ip, sp}^
 d28:	5053445f 	subspl	r4, r3, pc, asr r4
 d2c:	6474535f 	ldrbtvs	r5, [r4], #-863	; 0x35f
 d30:	69726550 	ldmdbvs	r2!, {r4, r6, r8, sl, sp, lr}^
 d34:	4c5f6870 	mrrcmi	8, 7, r6, pc, cr0	; <UNPREDICTABLE>
 d38:	565f6269 	ldrbpl	r6, [pc], -r9, ror #4
 d3c:	2e382e31 	mrccs	14, 1, r2, cr8, cr1, {1}
 d40:	72502f30 	subsvc	r2, r0, #48, 30	; 0xc0
 d44:	63656a6f 	cmnvs	r5, #454656	; 0x6f000
 d48:	54532f74 	ldrbpl	r2, [r3], #-3956	; 0xf74
 d4c:	4632334d 	ldrtmi	r3, [r2], -sp, asr #6
 d50:	5f787834 	svcpl	0x00787834
 d54:	50647453 	rsbpl	r7, r4, r3, asr r4
 d58:	70697265 	rsbvc	r7, r9, r5, ror #4
 d5c:	65545f68 	ldrbvs	r5, [r4, #-3944]	; 0xf68
 d60:	616c706d 	cmnvs	ip, sp, rrx
 d64:	2f736574 	svccs	0x00736574
 d68:	74737973 	ldrbtvc	r7, [r3], #-2419	; 0x973
 d6c:	735f6d65 	cmpvc	pc, #6464	; 0x1940
 d70:	32336d74 	eorscc	r6, r3, #116, 26	; 0x1d00
 d74:	78783466 	ldmdavc	r8!, {r1, r2, r5, r6, sl, ip, sp}^
 d78:	5300632e 	movwpl	r6, #814	; 0x32e
 d7c:	545f4243 	ldrbpl	r4, [pc], #-579	; d84 <_Min_Stack_Size+0x984>
 d80:	00657079 	rsbeq	r7, r5, r9, ror r0
 d84:	52534349 	subspl	r4, r3, #603979777	; 0x24000001
 d88:	54504f00 	ldrbpl	r4, [r0], #-3840	; 0xf00
 d8c:	5259454b 	subspl	r4, r9, #314572800	; 0x12c00000
 d90:	41464200 	mrsmi	r4, (UNDEF: 102)
 d94:	46430052 			; <UNDEFINED> instruction: 0x46430052
 d98:	4f005253 	svcmi	0x00005253
 d9c:	52435450 	subpl	r5, r3, #80, 8	; 0x50000000
 da0:	49410031 	stmdbmi	r1, {r0, r4, r5}^
 da4:	00524352 	subseq	r4, r2, r2, asr r3
 da8:	72617453 	rsbvc	r7, r1, #1392508928	; 0x53000000
 dac:	43705574 	cmnmi	r0, #116, 10	; 0x1d000000
 db0:	746e756f 	strbtvc	r7, [lr], #-1391	; 0x56f
 db4:	53007265 	movwpl	r7, #613	; 0x265
 db8:	52534348 	subspl	r4, r3, #72, 6	; 0x20000001
 dbc:	52575000 	subspl	r5, r7, #0
 dc0:	7079545f 	rsbsvc	r5, r9, pc, asr r4
 dc4:	66654465 	strbtvs	r4, [r5], -r5, ror #8
 dc8:	73795300 	cmnvc	r9, #0, 6
 dcc:	436d6574 	cmnmi	sp, #116, 10	; 0x1d000000
 dd0:	4365726f 	cmnmi	r5, #-268435450	; 0xf0000006
 dd4:	6b636f6c 	blvs	18dcb8c <_Min_Stack_Size+0x18dc78c>
 dd8:	61647055 	qdsubvs	r7, r5, r4
 ddc:	4d006574 	cfstr32mi	mvfx6, [r0, #-464]	; 0xfffffe30
 de0:	5241464d 	subpl	r4, r1, #80740352	; 0x4d00000
 de4:	73795300 	cmnvc	r9, #0, 6
 de8:	496d6574 	stmdbmi	sp!, {r2, r4, r5, r6, r8, sl, sp, lr}^
 dec:	0074696e 	rsbseq	r6, r4, lr, ror #18
 df0:	524f5456 	subpl	r5, pc, #1442840576	; 0x56000000
 df4:	41534900 	cmpmi	r3, r0, lsl #18
 df8:	46440052 			; <UNDEFINED> instruction: 0x46440052
 dfc:	53005253 	movwpl	r5, #595	; 0x253
 e00:	65747379 	ldrbvs	r7, [r4, #-889]!	; 0x379
 e04:	726f436d 	rsbvc	r4, pc, #-1275068415	; 0xb4000001
 e08:	6f6c4365 	svcvs	0x006c4365
 e0c:	48006b63 	stmdami	r0, {r0, r1, r5, r6, r8, r9, fp, sp, lr}
 e10:	00525346 	subseq	r5, r2, r6, asr #6
 e14:	52464d4d 	subpl	r4, r6, #4928	; 0x1340
 e18:	74655300 	strbtvc	r5, [r5], #-768	; 0x300
 e1c:	43737953 	cmnmi	r3, #1359872	; 0x14c000
 e20:	6b636f6c 	blvs	18dcbd8 <_Min_Stack_Size+0x18dc7d8>
 e24:	53464100 	movtpl	r4, #24832	; 0x6100
 e28:	4c460052 	mcrrmi	0, 5, r0, r6, cr2
 e2c:	5f485341 	svcpl	0x00485341
 e30:	65707954 	ldrbvs	r7, [r0, #-2388]!	; 0x954
 e34:	00666544 	rsbeq	r6, r6, r4, asr #10
 e38:	43415043 	movtmi	r5, #4163	; 0x1043
 e3c:	504f0052 	subpl	r0, pc, r2, asr r0	; <UNPREDICTABLE>
 e40:	00524354 	subseq	r4, r2, r4, asr r3

Disassembly of section .comment:

00000000 <.comment>:
   0:	3a434347 	bcc	10d0d24 <_Min_Stack_Size+0x10d0924>
   4:	4e472820 	cdpmi	8, 4, cr2, cr7, cr0, {1}
   8:	6f542055 	svcvs	0x00542055
   c:	20736c6f 	rsbscs	r6, r3, pc, ror #24
  10:	20726f66 	rsbscs	r6, r2, r6, ror #30
  14:	204d5241 	subcs	r5, sp, r1, asr #4
  18:	65626d45 	strbvs	r6, [r2, #-3397]!	; 0xd45
  1c:	64656464 	strbtvs	r6, [r5], #-1124	; 0x464
  20:	6f725020 	svcvs	0x00725020
  24:	73736563 	cmnvc	r3, #415236096	; 0x18c00000
  28:	2973726f 	ldmdbcs	r3!, {r0, r1, r2, r3, r5, r6, r9, ip, sp, lr}^
  2c:	392e3420 	stmdbcc	lr!, {r5, sl, ip, sp}
  30:	3220332e 	eorcc	r3, r0, #-1207959552	; 0xb8000000
  34:	30353130 	eorscc	r3, r5, r0, lsr r1
  38:	20393235 	eorscs	r3, r9, r5, lsr r2
  3c:	6c657228 	sfmvs	f7, 2, [r5], #-160	; 0xffffff60
  40:	65736165 	ldrbvs	r6, [r3, #-357]!	; 0x165
  44:	415b2029 	cmpmi	fp, r9, lsr #32
  48:	652f4d52 	strvs	r4, [pc, #-3410]!	; fffff2fe <_estack+0xdffdf2ff>
  4c:	6465626d 	strbtvs	r6, [r5], #-621	; 0x26d
  50:	2d646564 	cfstr64cs	mvdx6, [r4, #-400]!	; 0xfffffe70
  54:	2d395f34 	ldccs	15, cr5, [r9, #-208]!	; 0xffffff30
  58:	6e617262 	cdpvs	2, 6, cr7, cr1, cr2, {3}
  5c:	72206863 	eorvc	r6, r0, #6488064	; 0x630000
  60:	73697665 	cmnvc	r9, #105906176	; 0x6500000
  64:	206e6f69 	rsbcs	r6, lr, r9, ror #30
  68:	39373232 	ldmdbcc	r7!, {r1, r4, r5, r9, ip, sp}
  6c:	005d3737 	subseq	r3, sp, r7, lsr r7

Disassembly of section .debug_frame:

00000000 <.debug_frame>:
   0:	0000000c 	andeq	r0, r0, ip
   4:	ffffffff 			; <UNDEFINED> instruction: 0xffffffff
   8:	7c020001 	stcvc	0, cr0, [r2], {1}
   c:	000d0c0e 	andeq	r0, sp, lr, lsl #24
  10:	0000001c 	andeq	r0, r0, ip, lsl r0
  14:	00000000 	andeq	r0, r0, r0
  18:	08000bf0 	stmdaeq	r0, {r4, r5, r6, r7, r8, r9, fp}
  1c:	00000094 	muleq	r0, r4, r0
  20:	84100e41 	ldrhi	r0, [r0], #-3649	; 0xe41
  24:	86038504 	strhi	r8, [r3], -r4, lsl #10
  28:	42018e02 	andmi	r8, r1, #2, 28
  2c:	0000200e 	andeq	r2, r0, lr
  30:	0000000c 	andeq	r0, r0, ip
  34:	ffffffff 			; <UNDEFINED> instruction: 0xffffffff
  38:	7c020001 	stcvc	0, cr0, [r2], {1}
  3c:	000d0c0e 	andeq	r0, sp, lr, lsl #24
  40:	00000068 	andeq	r0, r0, r8, rrx
  44:	00000030 	andeq	r0, r0, r0, lsr r0
  48:	08000258 	stmdaeq	r0, {r3, r4, r6, r9}
  4c:	0000015c 	andeq	r0, r0, ip, asr r1
  50:	83080e41 	movwhi	r0, #36417	; 0x8e41
  54:	6c018e02 	stcvs	14, cr8, [r1], {2}
  58:	0ec3ce0a 	cdpeq	14, 12, cr12, cr3, cr10, {0}
  5c:	480b4200 	stmdami	fp, {r9, lr}
  60:	0ec3ce0a 	cdpeq	14, 12, cr12, cr3, cr10, {0}
  64:	480b4200 	stmdami	fp, {r9, lr}
  68:	0ec3ce0a 	cdpeq	14, 12, cr12, cr3, cr10, {0}
  6c:	480b4200 	stmdami	fp, {r9, lr}
  70:	0ec3ce0a 	cdpeq	14, 12, cr12, cr3, cr10, {0}
  74:	480b4200 	stmdami	fp, {r9, lr}
  78:	0ec3ce0a 	cdpeq	14, 12, cr12, cr3, cr10, {0}
  7c:	480b4200 	stmdami	fp, {r9, lr}
  80:	0ec3ce0a 	cdpeq	14, 12, cr12, cr3, cr10, {0}
  84:	480b4200 	stmdami	fp, {r9, lr}
  88:	0ec3ce0a 	cdpeq	14, 12, cr12, cr3, cr10, {0}
  8c:	480b4200 	stmdami	fp, {r9, lr}
  90:	0ec3ce0a 	cdpeq	14, 12, cr12, cr3, cr10, {0}
  94:	480b4200 	stmdami	fp, {r9, lr}
  98:	0ec3ce0a 	cdpeq	14, 12, cr12, cr3, cr10, {0}
  9c:	4a0b4200 	bmi	2d08a4 <_Min_Stack_Size+0x2d04a4>
  a0:	0ec3ce0a 	cdpeq	14, 12, cr12, cr3, cr10, {0}
  a4:	4a0b4200 	bmi	2d08ac <_Min_Stack_Size+0x2d04ac>
  a8:	000ec3ce 	andeq	ip, lr, lr, asr #7
  ac:	00000020 	andeq	r0, r0, r0, lsr #32
  b0:	00000030 	andeq	r0, r0, r0, lsr r0
  b4:	080003b4 	stmdaeq	r0, {r2, r4, r5, r7, r8, r9}
  b8:	000000b2 	strheq	r0, [r0], -r2
  bc:	841c0e43 	ldrhi	r0, [ip], #-3651	; 0xe43
  c0:	86068507 	strhi	r8, [r6], -r7, lsl #10
  c4:	88048705 	stmdahi	r4, {r0, r2, r8, r9, sl, pc}
  c8:	8e028903 	cdphi	9, 0, cr8, cr2, cr3, {0}
  cc:	00000001 	andeq	r0, r0, r1
  d0:	0000000c 	andeq	r0, r0, ip
  d4:	00000030 	andeq	r0, r0, r0, lsr r0
  d8:	08000468 	stmdaeq	r0, {r3, r5, r6, sl}
  dc:	00000012 	andeq	r0, r0, r2, lsl r0
  e0:	00000014 	andeq	r0, r0, r4, lsl r0
  e4:	00000030 	andeq	r0, r0, r0, lsr r0
  e8:	0800047c 	stmdaeq	r0, {r2, r3, r4, r5, r6, sl}
  ec:	00000024 	andeq	r0, r0, r4, lsr #32
  f0:	50080e41 	andpl	r0, r8, r1, asr #28
  f4:	0000000e 	andeq	r0, r0, lr
  f8:	0000000c 	andeq	r0, r0, ip
  fc:	00000030 	andeq	r0, r0, r0, lsr r0
 100:	080004a0 	stmdaeq	r0, {r5, r7, sl}
 104:	0000000c 	andeq	r0, r0, ip
 108:	0000000c 	andeq	r0, r0, ip
 10c:	00000030 	andeq	r0, r0, r0, lsr r0
 110:	080004ac 	stmdaeq	r0, {r2, r3, r5, r7, sl}
 114:	00000006 	andeq	r0, r0, r6
 118:	0000000c 	andeq	r0, r0, ip
 11c:	00000030 	andeq	r0, r0, r0, lsr r0
 120:	080004b4 	stmdaeq	r0, {r2, r4, r5, r7, sl}
 124:	0000000c 	andeq	r0, r0, ip
 128:	0000000c 	andeq	r0, r0, ip
 12c:	00000030 	andeq	r0, r0, r0, lsr r0
 130:	080004c0 	stmdaeq	r0, {r6, r7, sl}
 134:	00000006 	andeq	r0, r0, r6
 138:	0000000c 	andeq	r0, r0, ip
 13c:	00000030 	andeq	r0, r0, r0, lsr r0
 140:	080004c8 	stmdaeq	r0, {r3, r6, r7, sl}
 144:	00000004 	andeq	r0, r0, r4
 148:	0000000c 	andeq	r0, r0, ip
 14c:	00000030 	andeq	r0, r0, r0, lsr r0
 150:	080004cc 	stmdaeq	r0, {r2, r3, r6, r7, sl}
 154:	00000004 	andeq	r0, r0, r4
 158:	0000000c 	andeq	r0, r0, ip
 15c:	00000030 	andeq	r0, r0, r0, lsr r0
 160:	080004d0 	stmdaeq	r0, {r4, r6, r7, sl}
 164:	0000000a 	andeq	r0, r0, sl
 168:	0000000c 	andeq	r0, r0, ip
 16c:	00000030 	andeq	r0, r0, r0, lsr r0
 170:	080004dc 	stmdaeq	r0, {r2, r3, r4, r6, r7, sl}
 174:	00000004 	andeq	r0, r0, r4
 178:	0000000c 	andeq	r0, r0, ip
 17c:	00000030 	andeq	r0, r0, r0, lsr r0
 180:	080004e0 	stmdaeq	r0, {r5, r6, r7, sl}
 184:	00000008 	andeq	r0, r0, r8
 188:	00000018 	andeq	r0, r0, r8, lsl r0
 18c:	00000030 	andeq	r0, r0, r0, lsr r0
 190:	080004e8 	stmdaeq	r0, {r3, r5, r6, r7, sl}
 194:	00000028 	andeq	r0, r0, r8, lsr #32
 198:	84040e46 	strhi	r0, [r4], #-3654	; 0xe46
 19c:	0ec44a01 	vdiveq.f32	s9, s8, s2
 1a0:	00000000 	andeq	r0, r0, r0
 1a4:	0000000c 	andeq	r0, r0, ip
 1a8:	ffffffff 			; <UNDEFINED> instruction: 0xffffffff
 1ac:	7c020001 	stcvc	0, cr0, [r2], {1}
 1b0:	000d0c0e 	andeq	r0, sp, lr, lsl #24
 1b4:	00000018 	andeq	r0, r0, r8, lsl r0
 1b8:	000001a4 	andeq	r0, r0, r4, lsr #3
 1bc:	08000510 	stmdaeq	r0, {r4, r8, sl}
 1c0:	00000050 	andeq	r0, r0, r0, asr r0
 1c4:	84080e47 	strhi	r0, [r8], #-3655	; 0xe47
 1c8:	54018502 	strpl	r8, [r1], #-1282	; 0x502
 1cc:	000ec4c5 	andeq	ip, lr, r5, asr #9
 1d0:	0000000c 	andeq	r0, r0, ip
 1d4:	000001a4 	andeq	r0, r0, r4, lsr #3
 1d8:	08000560 	stmdaeq	r0, {r5, r6, r8, sl}
 1dc:	00000010 	andeq	r0, r0, r0, lsl r0
 1e0:	00000014 	andeq	r0, r0, r4, lsl r0
 1e4:	000001a4 	andeq	r0, r0, r4, lsr #3
 1e8:	08000570 	stmdaeq	r0, {r4, r5, r6, r8, sl}
 1ec:	00000034 	andeq	r0, r0, r4, lsr r0
 1f0:	55080e41 	strpl	r0, [r8, #-3649]	; 0xe41
 1f4:	0000000e 	andeq	r0, r0, lr
 1f8:	0000000c 	andeq	r0, r0, ip
 1fc:	000001a4 	andeq	r0, r0, r4, lsr #3
 200:	080005a4 	stmdaeq	r0, {r2, r5, r7, r8, sl}
 204:	00000014 	andeq	r0, r0, r4, lsl r0
 208:	0000000c 	andeq	r0, r0, ip
 20c:	000001a4 	andeq	r0, r0, r4, lsr #3
 210:	080005b8 	stmdaeq	r0, {r3, r4, r5, r7, r8, sl}
 214:	0000000c 	andeq	r0, r0, ip
 218:	0000000c 	andeq	r0, r0, ip
 21c:	000001a4 	andeq	r0, r0, r4, lsr #3
 220:	080005c4 	stmdaeq	r0, {r2, r6, r7, r8, sl}
 224:	00000020 	andeq	r0, r0, r0, lsr #32
 228:	0000000c 	andeq	r0, r0, ip
 22c:	000001a4 	andeq	r0, r0, r4, lsr #3
 230:	080005e4 	stmdaeq	r0, {r2, r5, r6, r7, r8, sl}
 234:	0000000c 	andeq	r0, r0, ip
 238:	00000018 	andeq	r0, r0, r8, lsl r0
 23c:	000001a4 	andeq	r0, r0, r4, lsr #3
 240:	080005f0 	stmdaeq	r0, {r4, r5, r6, r7, r8, sl}
 244:	00000024 	andeq	r0, r0, r4, lsr #32
 248:	84080e41 	strhi	r0, [r8], #-3649	; 0xe41
 24c:	4d018502 	cfstr32mi	mvfx8, [r1, #-8]
 250:	000ec4c5 	andeq	ip, lr, r5, asr #9
 254:	0000000c 	andeq	r0, r0, ip
 258:	000001a4 	andeq	r0, r0, r4, lsr #3
 25c:	08000614 	stmdaeq	r0, {r2, r4, r9, sl}
 260:	0000000c 	andeq	r0, r0, ip
 264:	0000000c 	andeq	r0, r0, ip
 268:	000001a4 	andeq	r0, r0, r4, lsr #3
 26c:	08000620 	stmdaeq	r0, {r5, r9, sl}
 270:	00000014 	andeq	r0, r0, r4, lsl r0
 274:	0000000c 	andeq	r0, r0, ip
 278:	000001a4 	andeq	r0, r0, r4, lsr #3
 27c:	08000634 	stmdaeq	r0, {r2, r4, r5, r9, sl}
 280:	0000000c 	andeq	r0, r0, ip
 284:	0000000c 	andeq	r0, r0, ip
 288:	000001a4 	andeq	r0, r0, r4, lsr #3
 28c:	08000640 	stmdaeq	r0, {r6, r9, sl}
 290:	00000018 	andeq	r0, r0, r8, lsl r0
 294:	0000000c 	andeq	r0, r0, ip
 298:	000001a4 	andeq	r0, r0, r4, lsr #3
 29c:	08000658 	stmdaeq	r0, {r3, r4, r6, r9, sl}
 2a0:	0000000c 	andeq	r0, r0, ip
 2a4:	0000000c 	andeq	r0, r0, ip
 2a8:	000001a4 	andeq	r0, r0, r4, lsr #3
 2ac:	08000664 	stmdaeq	r0, {r2, r5, r6, r9, sl}
 2b0:	0000000c 	andeq	r0, r0, ip
 2b4:	0000000c 	andeq	r0, r0, ip
 2b8:	000001a4 	andeq	r0, r0, r4, lsr #3
 2bc:	08000670 	stmdaeq	r0, {r4, r5, r6, r9, sl}
 2c0:	00000014 	andeq	r0, r0, r4, lsl r0
 2c4:	0000000c 	andeq	r0, r0, ip
 2c8:	000001a4 	andeq	r0, r0, r4, lsr #3
 2cc:	08000684 	stmdaeq	r0, {r2, r7, r9, sl}
 2d0:	00000014 	andeq	r0, r0, r4, lsl r0
 2d4:	0000000c 	andeq	r0, r0, ip
 2d8:	000001a4 	andeq	r0, r0, r4, lsr #3
 2dc:	08000698 	stmdaeq	r0, {r3, r4, r7, r9, sl}
 2e0:	00000014 	andeq	r0, r0, r4, lsl r0
 2e4:	0000000c 	andeq	r0, r0, ip
 2e8:	000001a4 	andeq	r0, r0, r4, lsr #3
 2ec:	080006ac 	stmdaeq	r0, {r2, r3, r5, r7, r9, sl}
 2f0:	00000010 	andeq	r0, r0, r0, lsl r0
 2f4:	0000000c 	andeq	r0, r0, ip
 2f8:	000001a4 	andeq	r0, r0, r4, lsr #3
 2fc:	080006bc 	stmdaeq	r0, {r2, r3, r4, r5, r7, r9, sl}
 300:	00000014 	andeq	r0, r0, r4, lsl r0
 304:	0000000c 	andeq	r0, r0, ip
 308:	000001a4 	andeq	r0, r0, r4, lsr #3
 30c:	080006d0 	stmdaeq	r0, {r4, r6, r7, r9, sl}
 310:	00000014 	andeq	r0, r0, r4, lsl r0
 314:	0000000c 	andeq	r0, r0, ip
 318:	000001a4 	andeq	r0, r0, r4, lsr #3
 31c:	080006e4 	stmdaeq	r0, {r2, r5, r6, r7, r9, sl}
 320:	00000014 	andeq	r0, r0, r4, lsl r0
 324:	00000018 	andeq	r0, r0, r8, lsl r0
 328:	000001a4 	andeq	r0, r0, r4, lsr #3
 32c:	080006f8 	stmdaeq	r0, {r3, r4, r5, r6, r7, r9, sl}
 330:	00000098 	muleq	r0, r8, r0
 334:	84040e41 	strhi	r0, [r4], #-3649	; 0xe41
 338:	c40a5c01 	strgt	r5, [sl], #-3073	; 0xc01
 33c:	0b46000e 	bleq	118037c <_Min_Stack_Size+0x117ff7c>
 340:	0000000c 	andeq	r0, r0, ip
 344:	000001a4 	andeq	r0, r0, r4, lsr #3
 348:	08000790 	stmdaeq	r0, {r4, r7, r8, r9, sl}
 34c:	00000030 	andeq	r0, r0, r0, lsr r0
 350:	0000000c 	andeq	r0, r0, ip
 354:	000001a4 	andeq	r0, r0, r4, lsr #3
 358:	080007c0 	stmdaeq	r0, {r6, r7, r8, r9, sl}
 35c:	0000000c 	andeq	r0, r0, ip
 360:	0000000c 	andeq	r0, r0, ip
 364:	000001a4 	andeq	r0, r0, r4, lsr #3
 368:	080007cc 	stmdaeq	r0, {r2, r3, r6, r7, r8, r9, sl}
 36c:	0000000c 	andeq	r0, r0, ip
 370:	0000000c 	andeq	r0, r0, ip
 374:	000001a4 	andeq	r0, r0, r4, lsr #3
 378:	080007d8 	stmdaeq	r0, {r3, r4, r6, r7, r8, r9, sl}
 37c:	0000000c 	andeq	r0, r0, ip
 380:	0000000c 	andeq	r0, r0, ip
 384:	000001a4 	andeq	r0, r0, r4, lsr #3
 388:	080007e4 	stmdaeq	r0, {r2, r5, r6, r7, r8, r9, sl}
 38c:	00000018 	andeq	r0, r0, r8, lsl r0
 390:	0000000c 	andeq	r0, r0, ip
 394:	000001a4 	andeq	r0, r0, r4, lsr #3
 398:	080007fc 	stmdaeq	r0, {r2, r3, r4, r5, r6, r7, r8, r9, sl}
 39c:	00000018 	andeq	r0, r0, r8, lsl r0
 3a0:	0000000c 	andeq	r0, r0, ip
 3a4:	000001a4 	andeq	r0, r0, r4, lsr #3
 3a8:	08000814 	stmdaeq	r0, {r2, r4, fp}
 3ac:	00000018 	andeq	r0, r0, r8, lsl r0
 3b0:	0000000c 	andeq	r0, r0, ip
 3b4:	000001a4 	andeq	r0, r0, r4, lsr #3
 3b8:	0800082c 	stmdaeq	r0, {r2, r3, r5, fp}
 3bc:	0000001c 	andeq	r0, r0, ip, lsl r0
 3c0:	0000000c 	andeq	r0, r0, ip
 3c4:	000001a4 	andeq	r0, r0, r4, lsr #3
 3c8:	08000848 	stmdaeq	r0, {r3, r6, fp}
 3cc:	00000018 	andeq	r0, r0, r8, lsl r0
 3d0:	0000000c 	andeq	r0, r0, ip
 3d4:	000001a4 	andeq	r0, r0, r4, lsr #3
 3d8:	08000860 	stmdaeq	r0, {r5, r6, fp}
 3dc:	0000000c 	andeq	r0, r0, ip
 3e0:	0000000c 	andeq	r0, r0, ip
 3e4:	000001a4 	andeq	r0, r0, r4, lsr #3
 3e8:	0800086c 	stmdaeq	r0, {r2, r3, r5, r6, fp}
 3ec:	00000018 	andeq	r0, r0, r8, lsl r0
 3f0:	0000000c 	andeq	r0, r0, ip
 3f4:	000001a4 	andeq	r0, r0, r4, lsr #3
 3f8:	08000884 	stmdaeq	r0, {r2, r7, fp}
 3fc:	00000018 	andeq	r0, r0, r8, lsl r0
 400:	0000000c 	andeq	r0, r0, ip
 404:	000001a4 	andeq	r0, r0, r4, lsr #3
 408:	0800089c 	stmdaeq	r0, {r2, r3, r4, r7, fp}
 40c:	00000018 	andeq	r0, r0, r8, lsl r0
 410:	0000000c 	andeq	r0, r0, ip
 414:	000001a4 	andeq	r0, r0, r4, lsr #3
 418:	080008b4 	stmdaeq	r0, {r2, r4, r5, r7, fp}
 41c:	00000018 	andeq	r0, r0, r8, lsl r0
 420:	0000000c 	andeq	r0, r0, ip
 424:	000001a4 	andeq	r0, r0, r4, lsr #3
 428:	080008cc 	stmdaeq	r0, {r2, r3, r6, r7, fp}
 42c:	00000018 	andeq	r0, r0, r8, lsl r0
 430:	0000000c 	andeq	r0, r0, ip
 434:	000001a4 	andeq	r0, r0, r4, lsr #3
 438:	080008e4 	stmdaeq	r0, {r2, r5, r6, r7, fp}
 43c:	00000018 	andeq	r0, r0, r8, lsl r0
 440:	0000000c 	andeq	r0, r0, ip
 444:	000001a4 	andeq	r0, r0, r4, lsr #3
 448:	080008fc 	stmdaeq	r0, {r2, r3, r4, r5, r6, r7, fp}
 44c:	00000018 	andeq	r0, r0, r8, lsl r0
 450:	0000000c 	andeq	r0, r0, ip
 454:	000001a4 	andeq	r0, r0, r4, lsr #3
 458:	08000914 	stmdaeq	r0, {r2, r4, r8, fp}
 45c:	00000018 	andeq	r0, r0, r8, lsl r0
 460:	0000000c 	andeq	r0, r0, ip
 464:	000001a4 	andeq	r0, r0, r4, lsr #3
 468:	0800092c 	stmdaeq	r0, {r2, r3, r5, r8, fp}
 46c:	00000018 	andeq	r0, r0, r8, lsl r0
 470:	0000000c 	andeq	r0, r0, ip
 474:	000001a4 	andeq	r0, r0, r4, lsr #3
 478:	08000944 	stmdaeq	r0, {r2, r6, r8, fp}
 47c:	00000018 	andeq	r0, r0, r8, lsl r0
 480:	0000000c 	andeq	r0, r0, ip
 484:	000001a4 	andeq	r0, r0, r4, lsr #3
 488:	0800095c 	stmdaeq	r0, {r2, r3, r4, r6, r8, fp}
 48c:	00000018 	andeq	r0, r0, r8, lsl r0
 490:	0000000c 	andeq	r0, r0, ip
 494:	000001a4 	andeq	r0, r0, r4, lsr #3
 498:	08000974 	stmdaeq	r0, {r2, r4, r5, r6, r8, fp}
 49c:	00000018 	andeq	r0, r0, r8, lsl r0
 4a0:	0000000c 	andeq	r0, r0, ip
 4a4:	000001a4 	andeq	r0, r0, r4, lsr #3
 4a8:	0800098c 	stmdaeq	r0, {r2, r3, r7, r8, fp}
 4ac:	00000018 	andeq	r0, r0, r8, lsl r0
 4b0:	0000000c 	andeq	r0, r0, ip
 4b4:	000001a4 	andeq	r0, r0, r4, lsr #3
 4b8:	080009a4 	stmdaeq	r0, {r2, r5, r7, r8, fp}
 4bc:	00000018 	andeq	r0, r0, r8, lsl r0
 4c0:	0000000c 	andeq	r0, r0, ip
 4c4:	000001a4 	andeq	r0, r0, r4, lsr #3
 4c8:	080009bc 	stmdaeq	r0, {r2, r3, r4, r5, r7, r8, fp}
 4cc:	00000018 	andeq	r0, r0, r8, lsl r0
 4d0:	0000000c 	andeq	r0, r0, ip
 4d4:	000001a4 	andeq	r0, r0, r4, lsr #3
 4d8:	080009d4 	stmdaeq	r0, {r2, r4, r6, r7, r8, fp}
 4dc:	00000018 	andeq	r0, r0, r8, lsl r0
 4e0:	0000000c 	andeq	r0, r0, ip
 4e4:	000001a4 	andeq	r0, r0, r4, lsr #3
 4e8:	080009ec 	stmdaeq	r0, {r2, r3, r5, r6, r7, r8, fp}
 4ec:	00000018 	andeq	r0, r0, r8, lsl r0
 4f0:	0000000c 	andeq	r0, r0, ip
 4f4:	000001a4 	andeq	r0, r0, r4, lsr #3
 4f8:	08000a04 	stmdaeq	r0, {r2, r9, fp}
 4fc:	00000034 	andeq	r0, r0, r4, lsr r0
 500:	0000000c 	andeq	r0, r0, ip
 504:	000001a4 	andeq	r0, r0, r4, lsr #3
 508:	08000a38 	stmdaeq	r0, {r3, r4, r5, r9, fp}
 50c:	00000010 	andeq	r0, r0, r0, lsl r0
 510:	0000000c 	andeq	r0, r0, ip
 514:	000001a4 	andeq	r0, r0, r4, lsr #3
 518:	08000a48 	stmdaeq	r0, {r3, r6, r9, fp}
 51c:	00000014 	andeq	r0, r0, r4, lsl r0
 520:	0000000c 	andeq	r0, r0, ip
 524:	000001a4 	andeq	r0, r0, r4, lsr #3
 528:	08000a5c 	stmdaeq	r0, {r2, r3, r4, r6, r9, fp}
 52c:	0000000c 	andeq	r0, r0, ip
 530:	0000000c 	andeq	r0, r0, ip
 534:	ffffffff 			; <UNDEFINED> instruction: 0xffffffff
 538:	7c020001 	stcvc	0, cr0, [r2], {1}
 53c:	000d0c0e 	andeq	r0, sp, lr, lsl #24
 540:	00000018 	andeq	r0, r0, r8, lsl r0
 544:	00000530 	andeq	r0, r0, r0, lsr r5
 548:	08000a68 	stmdaeq	r0, {r3, r5, r6, r9, fp}
 54c:	00000100 	andeq	r0, r0, r0, lsl #2
 550:	69080e58 	stmdbvs	r8, {r3, r4, r6, r9, sl, fp}
 554:	41000e0a 	tstmi	r0, sl, lsl #28
 558:	0000000b 	andeq	r0, r0, fp
 55c:	0000000c 	andeq	r0, r0, ip
 560:	00000530 	andeq	r0, r0, r0, lsr r5
 564:	08000b68 	stmdaeq	r0, {r3, r5, r6, r8, r9, fp}
 568:	00000074 	andeq	r0, r0, r4, ror r0
 56c:	0000000c 	andeq	r0, r0, ip
 570:	ffffffff 			; <UNDEFINED> instruction: 0xffffffff
 574:	7c020001 	stcvc	0, cr0, [r2], {1}
 578:	000d0c0e 	andeq	r0, sp, lr, lsl #24
 57c:	00000014 	andeq	r0, r0, r4, lsl r0
 580:	0000056c 	andeq	r0, r0, ip, ror #10
 584:	08000cd0 	stmdaeq	r0, {r4, r6, r7, sl, fp}
 588:	00000020 	andeq	r0, r0, r0, lsr #32
 58c:	83080e41 	movwhi	r0, #36417	; 0x8e41
 590:	00018e02 	andeq	r8, r1, r2, lsl #28
 594:	0000000c 	andeq	r0, r0, ip
 598:	ffffffff 			; <UNDEFINED> instruction: 0xffffffff
 59c:	7c020001 	stcvc	0, cr0, [r2], {1}
 5a0:	000d0c0e 	andeq	r0, sp, lr, lsl #24
 5a4:	00000018 	andeq	r0, r0, r8, lsl r0
 5a8:	00000594 	muleq	r0, r4, r5
 5ac:	08000cf0 	stmdaeq	r0, {r4, r5, r6, r7, sl, fp}
 5b0:	00000050 	andeq	r0, r0, r0, asr r0
 5b4:	84100e41 	ldrhi	r0, [r0], #-3649	; 0xe41
 5b8:	86038504 	strhi	r8, [r3], -r4, lsl #10
 5bc:	00018e02 	andeq	r8, r1, r2, lsl #28
 5c0:	0000000c 	andeq	r0, r0, ip
 5c4:	ffffffff 			; <UNDEFINED> instruction: 0xffffffff
 5c8:	7c020001 	stcvc	0, cr0, [r2], {1}
 5cc:	000d0c0e 	andeq	r0, sp, lr, lsl #24
 5d0:	00000020 	andeq	r0, r0, r0, lsr #32
 5d4:	000005c0 	andeq	r0, r0, r0, asr #11
 5d8:	08000d40 	stmdaeq	r0, {r6, r8, sl, fp}
 5dc:	0000009a 	muleq	r0, sl, r0
 5e0:	840c0e41 	strhi	r0, [ip], #-3649	; 0xe41
 5e4:	86028503 	strhi	r8, [r2], -r3, lsl #10
 5e8:	0a480201 	beq	1200df4 <_Min_Stack_Size+0x12009f4>
 5ec:	0ec4c5c6 	cdpeq	5, 12, cr12, cr4, cr6, {6}
 5f0:	000b4100 	andeq	r4, fp, r0, lsl #2
 5f4:	0000000c 	andeq	r0, r0, ip
 5f8:	ffffffff 			; <UNDEFINED> instruction: 0xffffffff
 5fc:	7c020001 	stcvc	0, cr0, [r2], {1}
 600:	000d0c0e 	andeq	r0, sp, lr, lsl #24
 604:	0000000c 	andeq	r0, r0, ip
 608:	000005f4 	strdeq	r0, [r0], -r4
 60c:	08000ddc 	stmdaeq	r0, {r2, r3, r4, r6, r7, r8, sl, fp}
 610:	00000014 	andeq	r0, r0, r4, lsl r0
 614:	0000002c 	andeq	r0, r0, ip, lsr #32
 618:	000005f4 	strdeq	r0, [r0], -r4
 61c:	08000df0 	stmdaeq	r0, {r4, r5, r6, r7, r8, sl, fp}
 620:	000000d4 	ldrdeq	r0, [r0], -r4
 624:	84240e42 	strthi	r0, [r4], #-3650	; 0xe42
 628:	86088509 	strhi	r8, [r8], -r9, lsl #10
 62c:	88068707 	stmdahi	r6, {r0, r1, r2, r8, r9, sl, pc}
 630:	8a048905 	bhi	122a4c <_Min_Stack_Size+0x12264c>
 634:	8e028b03 	vmlahi.f64	d8, d2, d3
 638:	300e4201 	andcc	r4, lr, r1, lsl #4
 63c:	240e0a71 	strcs	r0, [lr], #-2673	; 0xa71
 640:	00000b42 	andeq	r0, r0, r2, asr #22
 644:	0000000c 	andeq	r0, r0, ip
 648:	ffffffff 			; <UNDEFINED> instruction: 0xffffffff
 64c:	7c020001 	stcvc	0, cr0, [r2], {1}
 650:	000d0c0e 	andeq	r0, sp, lr, lsl #24
 654:	0000000c 	andeq	r0, r0, ip
 658:	00000644 	andeq	r0, r0, r4, asr #12
 65c:	08000ec4 	stmdaeq	r0, {r2, r6, r7, r9, sl, fp}
 660:	0000000c 	andeq	r0, r0, ip
 664:	0000000c 	andeq	r0, r0, ip
 668:	ffffffff 			; <UNDEFINED> instruction: 0xffffffff
 66c:	7c020001 	stcvc	0, cr0, [r2], {1}
 670:	000d0c0e 	andeq	r0, sp, lr, lsl #24
 674:	00000020 	andeq	r0, r0, r0, lsr #32
 678:	00000664 	andeq	r0, r0, r4, ror #12
 67c:	08000ed0 	stmdaeq	r0, {r4, r6, r7, r9, sl, fp}
 680:	0000002c 	andeq	r0, r0, ip, lsr #32
 684:	83100e41 	tsthi	r0, #1040	; 0x410
 688:	85038404 	strhi	r8, [r3, #-1028]	; 0x404
 68c:	4f018e02 	svcmi	0x00018e02
 690:	c3c4c5ce 	bicgt	ip, r4, #864026624	; 0x33800000
 694:	0000000e 	andeq	r0, r0, lr
 698:	0000000c 	andeq	r0, r0, ip
 69c:	ffffffff 			; <UNDEFINED> instruction: 0xffffffff
 6a0:	7c020001 	stcvc	0, cr0, [r2], {1}
 6a4:	000d0c0e 	andeq	r0, sp, lr, lsl #24
 6a8:	00000020 	andeq	r0, r0, r0, lsr #32
 6ac:	00000698 	muleq	r0, r8, r6
 6b0:	08000efc 	stmdaeq	r0, {r2, r3, r4, r5, r6, r7, r9, sl, fp}
 6b4:	000000a4 	andeq	r0, r0, r4, lsr #1
 6b8:	84200e42 	strthi	r0, [r0], #-3650	; 0xe42
 6bc:	86078508 	strhi	r8, [r7], -r8, lsl #10
 6c0:	88058706 	stmdahi	r5, {r1, r2, r8, r9, sl, pc}
 6c4:	8a038904 	bhi	e2adc <_Min_Stack_Size+0xe26dc>
 6c8:	00018e02 	andeq	r8, r1, r2, lsl #28
 6cc:	0000000c 	andeq	r0, r0, ip
 6d0:	ffffffff 			; <UNDEFINED> instruction: 0xffffffff
 6d4:	7c020001 	stcvc	0, cr0, [r2], {1}
 6d8:	000d0c0e 	andeq	r0, sp, lr, lsl #24
 6dc:	0000000c 	andeq	r0, r0, ip
 6e0:	000006cc 	andeq	r0, r0, ip, asr #13
 6e4:	08000fa0 	stmdaeq	r0, {r5, r7, r8, r9, sl, fp}
 6e8:	00000002 	andeq	r0, r0, r2

Disassembly of section .debug_loc:

00000000 <.debug_loc>:
       0:	00000000 	andeq	r0, r0, r0
       4:	0000004a 	andeq	r0, r0, sl, asr #32
       8:	4a500001 	bmi	1400014 <_Min_Stack_Size+0x13ffc14>
       c:	5e000000 	cdppl	0, 0, cr0, cr0, cr0, {0}
      10:	04000000 	streq	r0, [r0], #-0
      14:	5001f300 	andpl	pc, r1, r0, lsl #6
      18:	00005e9f 	muleq	r0, pc, lr	; <UNPREDICTABLE>
      1c:	00006000 	andeq	r6, r0, r0
      20:	50000100 	andpl	r0, r0, r0, lsl #2
      24:	00000060 	andeq	r0, r0, r0, rrx
      28:	00000072 	andeq	r0, r0, r2, ror r0
      2c:	01f30004 	mvnseq	r0, r4
      30:	00729f50 	rsbseq	r9, r2, r0, asr pc
      34:	00740000 	rsbseq	r0, r4, r0
      38:	00010000 	andeq	r0, r1, r0
      3c:	00007450 	andeq	r7, r0, r0, asr r4
      40:	00008600 	andeq	r8, r0, r0, lsl #12
      44:	f3000400 	vshl.u8	d0, d0, d0
      48:	869f5001 	ldrhi	r5, [pc], r1
      4c:	88000000 	stmdahi	r0, {}	; <UNPREDICTABLE>
      50:	01000000 	mrseq	r0, (UNDEF: 0)
      54:	00885000 	addeq	r5, r8, r0
      58:	009a0000 	addseq	r0, sl, r0
      5c:	00040000 	andeq	r0, r4, r0
      60:	9f5001f3 	svcls	0x005001f3
      64:	0000009a 	muleq	r0, sl, r0
      68:	0000009c 	muleq	r0, ip, r0
      6c:	9c500001 	mrrcls	0, 0, r0, r0, cr1	; <UNPREDICTABLE>
      70:	ae000000 	cdpge	0, 0, cr0, cr0, cr0, {0}
      74:	04000000 	streq	r0, [r0], #-0
      78:	5001f300 	andpl	pc, r1, r0, lsl #6
      7c:	0000ae9f 	muleq	r0, pc, lr	; <UNPREDICTABLE>
      80:	0000b000 	andeq	fp, r0, r0
      84:	50000100 	andpl	r0, r0, r0, lsl #2
      88:	000000b0 	strheq	r0, [r0], -r0	; <UNPREDICTABLE>
      8c:	000000c2 	andeq	r0, r0, r2, asr #1
      90:	01f30004 	mvnseq	r0, r4
      94:	00c29f50 	sbceq	r9, r2, r0, asr pc
      98:	00c40000 	sbceq	r0, r4, r0
      9c:	00010000 	andeq	r0, r1, r0
      a0:	0000c450 	andeq	ip, r0, r0, asr r4
      a4:	0000d600 	andeq	sp, r0, r0, lsl #12
      a8:	f3000400 	vshl.u8	d0, d0, d0
      ac:	d69f5001 	ldrle	r5, [pc], r1
      b0:	d8000000 	stmdale	r0, {}	; <UNPREDICTABLE>
      b4:	01000000 	mrseq	r0, (UNDEF: 0)
      b8:	00d85000 	sbcseq	r5, r8, r0
      bc:	00ea0000 	rsceq	r0, sl, r0
      c0:	00040000 	andeq	r0, r4, r0
      c4:	9f5001f3 	svcls	0x005001f3
      c8:	000000ea 	andeq	r0, r0, sl, ror #1
      cc:	000000ec 	andeq	r0, r0, ip, ror #1
      d0:	ec500001 	mrrc	0, 0, r0, r0, cr1	; <UNPREDICTABLE>
      d4:	fe000000 	cdp2	0, 0, cr0, cr0, cr0, {0}
      d8:	04000000 	streq	r0, [r0], #-0
      dc:	5001f300 	andpl	pc, r1, r0, lsl #6
      e0:	0000fe9f 	muleq	r0, pc, lr	; <UNPREDICTABLE>
      e4:	00010200 	andeq	r0, r1, r0, lsl #4
      e8:	50000100 	andpl	r0, r0, r0, lsl #2
      ec:	00000102 	andeq	r0, r0, r2, lsl #2
      f0:	00000116 	andeq	r0, r0, r6, lsl r1
      f4:	01f30004 	mvnseq	r0, r4
      f8:	01169f50 	tsteq	r6, r0, asr pc
      fc:	011a0000 	tsteq	sl, r0
     100:	00010000 	andeq	r0, r1, r0
     104:	00011a50 	andeq	r1, r1, r0, asr sl
     108:	00015c00 	andeq	r5, r1, r0, lsl #24
     10c:	f3000400 	vshl.u8	d0, d0, d0
     110:	009f5001 	addseq	r5, pc, r1
     114:	00000000 	andeq	r0, r0, r0
     118:	5c000000 	stcpl	0, cr0, [r0], {-0}
     11c:	70000001 	andvc	r0, r0, r1
     120:	02000001 	andeq	r0, r0, #1
     124:	709f3000 	addsvc	r3, pc, r0
     128:	0e000001 	cdpeq	0, 0, cr0, cr0, cr1, {0}
     12c:	01000002 	tsteq	r0, r2
     130:	00005300 	andeq	r5, r0, r0, lsl #6
     134:	00000000 	andeq	r0, r0, r0
     138:	015c0000 	cmpeq	ip, r0
     13c:	01700000 	cmneq	r0, r0
     140:	00020000 	andeq	r0, r2, r0
     144:	01709f30 	cmneq	r0, r0, lsr pc
     148:	017a0000 	cmneq	sl, r0
     14c:	00010000 	andeq	r0, r1, r0
     150:	00017e54 	andeq	r7, r1, r4, asr lr
     154:	00019000 	andeq	r9, r1, r0
     158:	54000100 	strpl	r0, [r0], #-256	; 0x100
     15c:	00000190 	muleq	r0, r0, r1
     160:	000001c0 	andeq	r0, r0, r0, asr #3
     164:	00770006 	rsbseq	r0, r7, r6
     168:	9f240073 	svcls	0x00240073
     16c:	000001c0 	andeq	r0, r0, r0, asr #3
     170:	000001cc 	andeq	r0, r0, ip, asr #3
     174:	00770006 	rsbseq	r0, r7, r6
     178:	9f247f73 	svcls	0x00247f73
     17c:	000001d0 	ldrdeq	r0, [r0], -r0	; <UNPREDICTABLE>
     180:	0000020e 	andeq	r0, r0, lr, lsl #4
     184:	00770006 	rsbseq	r0, r7, r6
     188:	9f240073 	svcls	0x00240073
	...
     194:	0000015c 	andeq	r0, r0, ip, asr r1
     198:	00000170 	andeq	r0, r0, r0, ror r1
     19c:	9f300002 	svcls	0x00300002
     1a0:	00000170 	andeq	r0, r0, r0, ror r1
     1a4:	0000017a 	andeq	r0, r0, sl, ror r1
     1a8:	82550001 	subshi	r0, r5, #1
     1ac:	b0000001 	andlt	r0, r0, r1
     1b0:	01000001 	tsteq	r0, r1
     1b4:	01b05500 	lslseq	r5, r0, #10
     1b8:	01c00000 	biceq	r0, r0, r0
     1bc:	00090000 	andeq	r0, r9, r0
     1c0:	00730077 	rsbseq	r0, r3, r7, ror r0
     1c4:	1a007e24 	bne	1fa5c <_Min_Stack_Size+0x1f65c>
     1c8:	0001c09f 	muleq	r1, pc, r0	; <UNPREDICTABLE>
     1cc:	0001cc00 	andeq	ip, r1, r0, lsl #24
     1d0:	77000900 	strvc	r0, [r0, -r0, lsl #18]
     1d4:	247f7300 	ldrbtcs	r7, [pc], #-768	; 1dc <_Min_Heap_Size-0x24>
     1d8:	9f1a007e 	svcls	0x001a007e
     1dc:	000001d0 	ldrdeq	r0, [r0], -r0	; <UNPREDICTABLE>
     1e0:	000001fa 	strdeq	r0, [r0], -sl
     1e4:	fa550001 	blx	15401f0 <_Min_Stack_Size+0x153fdf0>
     1e8:	0e000001 	cdpeq	0, 0, cr0, cr0, cr1, {0}
     1ec:	09000002 	stmdbeq	r0, {r1}
     1f0:	73007700 	movwvc	r7, #1792	; 0x700
     1f4:	007e2400 	rsbseq	r2, lr, r0, lsl #8
     1f8:	00009f1a 	andeq	r9, r0, sl, lsl pc
     1fc:	00000000 	andeq	r0, r0, r0
     200:	02480000 	subeq	r0, r8, #0
     204:	02500000 	subseq	r0, r0, #0
     208:	00010000 	andeq	r0, r1, r0
     20c:	00025050 	andeq	r5, r2, r0, asr r0
     210:	00025400 	andeq	r5, r2, r0, lsl #8
     214:	f3000400 	vshl.u8	d0, d0, d0
     218:	009f5001 	addseq	r5, pc, r1
     21c:	00000000 	andeq	r0, r0, r0
     220:	48000000 	stmdami	r0, {}	; <UNPREDICTABLE>
     224:	4a000002 	bmi	234 <_Min_Heap_Size+0x34>
     228:	02000002 	andeq	r0, r0, #2
     22c:	4a9f3000 	bmi	fe7cc234 <_estack+0xde7ac235>
     230:	54000002 	strpl	r0, [r0], #-2
     234:	0c000002 	stceq	0, cr0, [r0], {2}
     238:	0a007100 	beq	1c640 <_Min_Stack_Size+0x1c240>
     23c:	731affff 	tstvc	sl, #1020	; 0x3fc	; <UNPREDICTABLE>
     240:	2e301a00 	vaddcs.f32	s2, s0, s0
     244:	0000009f 	muleq	r0, pc, r0	; <UNPREDICTABLE>
     248:	00000000 	andeq	r0, r0, r0
     24c:	00025400 	andeq	r5, r2, r0, lsl #8
     250:	00025600 	andeq	r5, r2, r0, lsl #12
     254:	50000100 	andpl	r0, r0, r0, lsl #2
     258:	00000256 	andeq	r0, r0, r6, asr r2
     25c:	0000025a 	andeq	r0, r0, sl, asr r2
     260:	01f30004 	mvnseq	r0, r4
     264:	00009f50 	andeq	r9, r0, r0, asr pc
     268:	00000000 	andeq	r0, r0, r0
     26c:	025c0000 	subseq	r0, ip, #0
     270:	02640000 	rsbeq	r0, r4, #0
     274:	00010000 	andeq	r0, r1, r0
     278:	00026450 	andeq	r6, r2, r0, asr r4
     27c:	00026800 	andeq	r6, r2, r0, lsl #16
     280:	f3000400 	vshl.u8	d0, d0, d0
     284:	009f5001 	addseq	r5, pc, r1
     288:	00000000 	andeq	r0, r0, r0
     28c:	5c000000 	stcpl	0, cr0, [r0], {-0}
     290:	5e000002 	cdppl	0, 0, cr0, cr0, cr2, {0}
     294:	02000002 	andeq	r0, r0, #2
     298:	5e9f3000 	cdppl	0, 9, cr3, cr15, cr0, {0}
     29c:	68000002 	stmdavs	r0, {r1}
     2a0:	0c000002 	stceq	0, cr0, [r0], {2}
     2a4:	0a007100 	beq	1c6ac <_Min_Stack_Size+0x1c2ac>
     2a8:	731affff 	tstvc	sl, #1020	; 0x3fc	; <UNPREDICTABLE>
     2ac:	2e301a00 	vaddcs.f32	s2, s0, s0
     2b0:	0000009f 	muleq	r0, pc, r0	; <UNPREDICTABLE>
     2b4:	00000000 	andeq	r0, r0, r0
     2b8:	00026800 	andeq	r6, r2, r0, lsl #16
     2bc:	00026a00 	andeq	r6, r2, r0, lsl #20
     2c0:	50000100 	andpl	r0, r0, r0, lsl #2
     2c4:	0000026a 	andeq	r0, r0, sl, ror #4
     2c8:	0000026e 	andeq	r0, r0, lr, ror #4
     2cc:	01f30004 	mvnseq	r0, r4
     2d0:	00009f50 	andeq	r9, r0, r0, asr pc
     2d4:	00000000 	andeq	r0, r0, r0
     2d8:	02880000 	addeq	r0, r8, #0
     2dc:	028c0000 	addeq	r0, ip, #0
     2e0:	00010000 	andeq	r0, r1, r0
     2e4:	00028c51 	andeq	r8, r2, r1, asr ip
     2e8:	00029000 	andeq	r9, r2, r0
     2ec:	f3000400 	vshl.u8	d0, d0, d0
     2f0:	009f5101 	addseq	r5, pc, r1, lsl #2
     2f4:	00000000 	andeq	r0, r0, r0
     2f8:	90000000 	andls	r0, r0, r0
     2fc:	96000002 	strls	r0, [r0], -r2
     300:	01000002 	tsteq	r0, r2
     304:	02965000 	addseq	r5, r6, #0
     308:	02b80000 	adcseq	r0, r8, #0
     30c:	00040000 	andeq	r0, r4, r0
     310:	9f5001f3 	svcls	0x005001f3
	...
     31c:	00000290 	muleq	r0, r0, r2
     320:	0000029a 	muleq	r0, sl, r2
     324:	9a510001 	bls	1440330 <_Min_Stack_Size+0x143ff30>
     328:	b8000002 	stmdalt	r0, {r1}
     32c:	04000002 	streq	r0, [r0], #-2
     330:	5101f300 	mrspl	pc, SP_irq	; <UNPREDICTABLE>
     334:	0000009f 	muleq	r0, pc, r0	; <UNPREDICTABLE>
     338:	00000000 	andeq	r0, r0, r0
     33c:	00029000 	andeq	r9, r2, r0
     340:	0002b200 	andeq	fp, r2, r0, lsl #4
     344:	52000100 	andpl	r0, r0, #0, 2
     348:	000002b2 			; <UNDEFINED> instruction: 0x000002b2
     34c:	000002b8 			; <UNDEFINED> instruction: 0x000002b8
     350:	01f30004 	mvnseq	r0, r4
     354:	00009f52 	andeq	r9, r0, r2, asr pc
     358:	00000000 	andeq	r0, r0, r0
     35c:	02900000 	addseq	r0, r0, #0
     360:	029e0000 	addseq	r0, lr, #0
     364:	00020000 	andeq	r0, r2, r0
     368:	029e9f30 	addseq	r9, lr, #48, 30	; 0xc0
     36c:	02b20000 	adcseq	r0, r2, #0
     370:	00090000 	andeq	r0, r9, r0
     374:	ff080072 			; <UNDEFINED> instruction: 0xff080072
     378:	2400711a 	strcs	r7, [r0], #-282	; 0x11a
     37c:	0002b29f 	muleq	r2, pc, r2	; <UNPREDICTABLE>
     380:	0002b800 	andeq	fp, r2, r0, lsl #16
     384:	f3000a00 	vpmax.u8	d0, d0, d0
     388:	ff085201 			; <UNDEFINED> instruction: 0xff085201
     38c:	2400711a 	strcs	r7, [r0], #-282	; 0x11a
     390:	0000009f 	muleq	r0, pc, r0	; <UNPREDICTABLE>
     394:	00000000 	andeq	r0, r0, r0
     398:	00029000 	andeq	r9, r2, r0
     39c:	0002b400 	andeq	fp, r2, r0, lsl #8
     3a0:	30000200 	andcc	r0, r0, r0, lsl #4
     3a4:	0002b49f 	muleq	r2, pc, r4	; <UNPREDICTABLE>
     3a8:	0002b800 	andeq	fp, r2, r0, lsl #16
     3ac:	53000100 	movwpl	r0, #256	; 0x100
	...
     3b8:	00000068 	andeq	r0, r0, r8, rrx
     3bc:	00000086 	andeq	r0, r0, r6, lsl #1
     3c0:	9f300002 	svcls	0x00300002
     3c4:	00000086 	andeq	r0, r0, r6, lsl #1
     3c8:	0000008a 	andeq	r0, r0, sl, lsl #1
     3cc:	00700007 	rsbseq	r0, r0, r7
     3d0:	1a312541 	bne	c498dc <_Min_Stack_Size+0xc494dc>
     3d4:	0000009f 	muleq	r0, pc, r0	; <UNPREDICTABLE>
     3d8:	00000000 	andeq	r0, r0, r0
     3dc:	00006800 	andeq	r6, r0, r0, lsl #16
     3e0:	00006a00 	andeq	r6, r0, r0, lsl #20
     3e4:	30000200 	andcc	r0, r0, r0, lsl #4
     3e8:	0000009f 	muleq	r0, pc, r0	; <UNPREDICTABLE>
     3ec:	00000000 	andeq	r0, r0, r0
     3f0:	00006a00 	andeq	r6, r0, r0, lsl #20
     3f4:	00007000 	andeq	r7, r0, r0
     3f8:	41000200 	mrsmi	r0, R8_usr
     3fc:	0000709f 	muleq	r0, pc, r0	; <UNPREDICTABLE>
     400:	00007200 	andeq	r7, r0, r0, lsl #4
     404:	31000200 	mrscc	r0, R8_usr
     408:	0000729f 	muleq	r0, pc, r2	; <UNPREDICTABLE>
     40c:	00009400 	andeq	r9, r0, r0, lsl #8
     410:	41000200 	mrsmi	r0, R8_usr
     414:	0000009f 	muleq	r0, pc, r0	; <UNPREDICTABLE>
     418:	00000000 	andeq	r0, r0, r0
     41c:	00007000 	andeq	r7, r0, r0
     420:	00007200 	andeq	r7, r0, r0, lsl #4
     424:	30000200 	andcc	r0, r0, r0, lsl #4
     428:	0000729f 	muleq	r0, pc, r2	; <UNPREDICTABLE>
     42c:	00007800 	andeq	r7, r0, r0, lsl #16
     430:	53000100 	movwpl	r0, #256	; 0x100
	...
     43c:	00000082 	andeq	r0, r0, r2, lsl #1
     440:	00000086 	andeq	r0, r0, r6, lsl #1
     444:	9f310002 	svcls	0x00310002
     448:	00000086 	andeq	r0, r0, r6, lsl #1
     44c:	00000094 	muleq	r0, r4, r0
     450:	9f410002 	svcls	0x00410002
	...
     45c:	00000082 	andeq	r0, r0, r2, lsl #1
     460:	00000086 	andeq	r0, r0, r6, lsl #1
     464:	9f300002 	svcls	0x00300002
     468:	00000086 	andeq	r0, r0, r6, lsl #1
     46c:	0000008a 	andeq	r0, r0, sl, lsl #1
     470:	00500001 	subseq	r0, r0, r1
     474:	00000000 	andeq	r0, r0, r0
     478:	94000000 	strls	r0, [r0], #-0
     47c:	a0000000 	andge	r0, r0, r0
     480:	01000000 	mrseq	r0, (UNDEF: 0)
     484:	00a05000 	adceq	r5, r0, r0
     488:	00a80000 	adceq	r0, r8, r0
     48c:	00040000 	andeq	r0, r4, r0
     490:	9f5001f3 	svcls	0x005001f3
	...
     49c:	00000094 	muleq	r0, r4, r0
     4a0:	00000098 	muleq	r0, r8, r0
     4a4:	9f300002 	svcls	0x00300002
     4a8:	00000098 	muleq	r0, r8, r0
     4ac:	000000a0 	andeq	r0, r0, r0, lsr #1
     4b0:	a0530001 	subsge	r0, r3, r1
     4b4:	a8000000 	stmdage	r0, {}	; <UNPREDICTABLE>
     4b8:	01000000 	mrseq	r0, (UNDEF: 0)
     4bc:	00005000 	andeq	r5, r0, r0
     4c0:	00000000 	andeq	r0, r0, r0
     4c4:	00e00000 	rsceq	r0, r0, r0
     4c8:	00ea0000 	rsceq	r0, sl, r0
     4cc:	00010000 	andeq	r0, r1, r0
     4d0:	0000ea50 	andeq	lr, r0, r0, asr sl
     4d4:	00010400 	andeq	r0, r1, r0, lsl #8
     4d8:	f3000400 	vshl.u8	d0, d0, d0
     4dc:	009f5001 	addseq	r5, pc, r1
     4e0:	00000000 	andeq	r0, r0, r0
     4e4:	e0000000 	and	r0, r0, r0
     4e8:	ec000000 	stc	0, cr0, [r0], {-0}
     4ec:	01000000 	mrseq	r0, (UNDEF: 0)
     4f0:	00ec5100 	rsceq	r5, ip, r0, lsl #2
     4f4:	01040000 	mrseq	r0, (UNDEF: 4)
     4f8:	00040000 	andeq	r0, r4, r0
     4fc:	9f5101f3 	svcls	0x005101f3
	...
     508:	000000e0 	andeq	r0, r0, r0, ror #1
     50c:	000000f4 	strdeq	r0, [r0], -r4
     510:	f4520001 			; <UNDEFINED> instruction: 0xf4520001
     514:	04000000 	streq	r0, [r0], #-0
     518:	04000001 	streq	r0, [r0], #-1
     51c:	5201f300 	andpl	pc, r1, #0, 6
     520:	0000009f 	muleq	r0, pc, r0	; <UNPREDICTABLE>
     524:	00000000 	andeq	r0, r0, r0
     528:	0000e000 	andeq	lr, r0, r0
     52c:	0000ee00 	andeq	lr, r0, r0, lsl #28
     530:	53000100 	movwpl	r0, #256	; 0x100
     534:	000000ee 	andeq	r0, r0, lr, ror #1
     538:	00000104 	andeq	r0, r0, r4, lsl #2
     53c:	01f30004 	mvnseq	r0, r4
     540:	00009f53 	andeq	r9, r0, r3, asr pc
     544:	00000000 	andeq	r0, r0, r0
     548:	00e00000 	rsceq	r0, r0, r0
     54c:	00fa0000 	rscseq	r0, sl, r0
     550:	00020000 	andeq	r0, r2, r0
     554:	00000091 	muleq	r0, r1, r0
     558:	00000000 	andeq	r0, r0, r0
     55c:	01100000 	tsteq	r0, r0
     560:	01180000 	tsteq	r8, r0
     564:	00010000 	andeq	r0, r1, r0
     568:	00011850 	andeq	r1, r1, r0, asr r8
     56c:	00012400 	andeq	r2, r1, r0, lsl #8
     570:	f3000400 	vshl.u8	d0, d0, d0
     574:	009f5001 	addseq	r5, pc, r1
     578:	00000000 	andeq	r0, r0, r0
     57c:	10000000 	andne	r0, r0, r0
     580:	12000001 	andne	r0, r0, #1
     584:	01000001 	tsteq	r0, r1
     588:	01125100 	tsteq	r2, r0, lsl #2
     58c:	01240000 			; <UNDEFINED> instruction: 0x01240000
     590:	00040000 	andeq	r0, r4, r0
     594:	9f5101f3 	svcls	0x005101f3
	...
     5a0:	00000130 	andeq	r0, r0, r0, lsr r1
     5a4:	0000013c 	andeq	r0, r0, ip, lsr r1
     5a8:	3c500001 	mrrccc	0, 0, r0, r0, cr1	; <UNPREDICTABLE>
     5ac:	48000001 	stmdami	r0, {r0}
     5b0:	04000001 	streq	r0, [r0], #-1
     5b4:	5001f300 	andpl	pc, r1, r0, lsl #6
     5b8:	0000009f 	muleq	r0, pc, r0	; <UNPREDICTABLE>
     5bc:	00000000 	andeq	r0, r0, r0
     5c0:	00013000 	andeq	r3, r1, r0
     5c4:	00013600 	andeq	r3, r1, r0, lsl #12
     5c8:	51000100 	mrspl	r0, (UNDEF: 16)
     5cc:	00000136 	andeq	r0, r0, r6, lsr r1
     5d0:	00000148 	andeq	r0, r0, r8, asr #2
     5d4:	01f30004 	mvnseq	r0, r4
     5d8:	00009f51 	andeq	r9, r0, r1, asr pc
     5dc:	00000000 	andeq	r0, r0, r0
     5e0:	01300000 	teqeq	r0, r0
     5e4:	01320000 	teqeq	r2, r0
     5e8:	00010000 	andeq	r0, r1, r0
     5ec:	00013252 	andeq	r3, r1, r2, asr r2
     5f0:	00014800 	andeq	r4, r1, r0, lsl #16
     5f4:	f3000400 	vshl.u8	d0, d0, d0
     5f8:	009f5201 	addseq	r5, pc, r1, lsl #4
     5fc:	00000000 	andeq	r0, r0, r0
     600:	60000000 	andvs	r0, r0, r0
     604:	6c000001 	stcvs	0, cr0, [r0], {1}
     608:	01000001 	tsteq	r0, r1
     60c:	016c5000 	cmneq	ip, r0
     610:	01740000 	cmneq	r4, r0
     614:	00040000 	andeq	r0, r4, r0
     618:	9f5001f3 	svcls	0x005001f3
	...
     624:	00000160 	andeq	r0, r0, r0, ror #2
     628:	0000016a 	andeq	r0, r0, sl, ror #2
     62c:	6a510001 	bvs	1440638 <_Min_Stack_Size+0x1440238>
     630:	74000001 	strvc	r0, [r0], #-1
     634:	04000001 	streq	r0, [r0], #-1
     638:	5101f300 	mrspl	pc, SP_irq	; <UNPREDICTABLE>
     63c:	0000009f 	muleq	r0, pc, r0	; <UNPREDICTABLE>
     640:	00000000 	andeq	r0, r0, r0
     644:	00016000 	andeq	r6, r1, r0
     648:	00016400 	andeq	r6, r1, r0, lsl #8
     64c:	30000200 	andcc	r0, r0, r0, lsl #4
     650:	0001649f 	muleq	r1, pc, r4	; <UNPREDICTABLE>
     654:	00016800 	andeq	r6, r1, r0, lsl #16
     658:	73000900 	movwvc	r0, #2304	; 0x900
     65c:	ffff1100 			; <UNDEFINED> instruction: 0xffff1100
     660:	9f1a44ff 	svcls	0x001a44ff
     664:	00000168 	andeq	r0, r0, r8, ror #2
     668:	0000016c 	andeq	r0, r0, ip, ror #2
     66c:	6c530001 	mrrcvs	0, 0, r0, r3, cr1
     670:	74000001 	strvc	r0, [r0], #-1
     674:	01000001 	tsteq	r0, r1
     678:	00005000 	andeq	r5, r0, r0
     67c:	00000000 	andeq	r0, r0, r0
     680:	01740000 	cmneq	r4, r0
     684:	01800000 	orreq	r0, r0, r0
     688:	00010000 	andeq	r0, r1, r0
     68c:	00018050 	andeq	r8, r1, r0, asr r0
     690:	00018800 	andeq	r8, r1, r0, lsl #16
     694:	f3000400 	vshl.u8	d0, d0, d0
     698:	009f5001 	addseq	r5, pc, r1
     69c:	00000000 	andeq	r0, r0, r0
     6a0:	74000000 	strvc	r0, [r0], #-0
     6a4:	7e000001 	cdpvc	0, 0, cr0, cr0, cr1, {0}
     6a8:	01000001 	tsteq	r0, r1
     6ac:	017e5100 	cmneq	lr, r0, lsl #2
     6b0:	01880000 	orreq	r0, r8, r0
     6b4:	00040000 	andeq	r0, r4, r0
     6b8:	9f5101f3 	svcls	0x005101f3
	...
     6c4:	00000174 	andeq	r0, r0, r4, ror r1
     6c8:	00000178 	andeq	r0, r0, r8, ror r1
     6cc:	9f300002 	svcls	0x00300002
     6d0:	00000178 	andeq	r0, r0, r8, ror r1
     6d4:	0000017c 	andeq	r0, r0, ip, ror r1
     6d8:	00730009 	rsbseq	r0, r3, r9
     6dc:	ffffff0c 			; <UNDEFINED> instruction: 0xffffff0c
     6e0:	7c9f1a07 	vldmiavc	pc, {s2-s8}
     6e4:	80000001 	andhi	r0, r0, r1
     6e8:	01000001 	tsteq	r0, r1
     6ec:	01805300 	orreq	r5, r0, r0, lsl #6
     6f0:	01880000 	orreq	r0, r8, r0
     6f4:	00010000 	andeq	r0, r1, r0
     6f8:	00000050 	andeq	r0, r0, r0, asr r0
     6fc:	00000000 	andeq	r0, r0, r0
     700:	00018800 	andeq	r8, r1, r0, lsl #16
     704:	00019200 	andeq	r9, r1, r0, lsl #4
     708:	50000100 	andpl	r0, r0, r0, lsl #2
     70c:	00000192 	muleq	r0, r2, r1
     710:	0000019c 	muleq	r0, ip, r1
     714:	01f30004 	mvnseq	r0, r4
     718:	00009f50 	andeq	r9, r0, r0, asr pc
     71c:	00000000 	andeq	r0, r0, r0
     720:	01880000 	orreq	r0, r8, r0
     724:	018c0000 	orreq	r0, ip, r0
     728:	00020000 	andeq	r0, r2, r0
     72c:	018c9f30 	orreq	r9, ip, r0, lsr pc
     730:	01920000 	orrseq	r0, r2, r0
     734:	00010000 	andeq	r0, r1, r0
     738:	00019253 	andeq	r9, r1, r3, asr r2
     73c:	00019c00 	andeq	r9, r1, r0, lsl #24
     740:	50000100 	andpl	r0, r0, r0, lsl #2
	...
     74c:	000001ac 	andeq	r0, r0, ip, lsr #3
     750:	000001b6 			; <UNDEFINED> instruction: 0x000001b6
     754:	b6500001 	ldrblt	r0, [r0], -r1
     758:	c0000001 	andgt	r0, r0, r1
     75c:	04000001 	streq	r0, [r0], #-1
     760:	5001f300 	andpl	pc, r1, r0, lsl #6
     764:	0000009f 	muleq	r0, pc, r0	; <UNPREDICTABLE>
     768:	00000000 	andeq	r0, r0, r0
     76c:	0001ac00 	andeq	sl, r1, r0, lsl #24
     770:	0001b000 	andeq	fp, r1, r0
     774:	30000200 	andcc	r0, r0, r0, lsl #4
     778:	0001b09f 	muleq	r1, pc, r0	; <UNPREDICTABLE>
     77c:	0001b600 	andeq	fp, r1, r0, lsl #12
     780:	53000100 	movwpl	r0, #256	; 0x100
     784:	000001b6 			; <UNDEFINED> instruction: 0x000001b6
     788:	000001c0 	andeq	r0, r0, r0, asr #3
     78c:	00500001 	subseq	r0, r0, r1
     790:	00000000 	andeq	r0, r0, r0
     794:	c0000000 	andgt	r0, r0, r0
     798:	ca000001 	bgt	7a4 <_Min_Stack_Size+0x3a4>
     79c:	01000001 	tsteq	r0, r1
     7a0:	01ca5000 	biceq	r5, sl, r0
     7a4:	01d40000 	bicseq	r0, r4, r0
     7a8:	00040000 	andeq	r0, r4, r0
     7ac:	9f5001f3 	svcls	0x005001f3
	...
     7b8:	000001c0 	andeq	r0, r0, r0, asr #3
     7bc:	000001c4 	andeq	r0, r0, r4, asr #3
     7c0:	9f300002 	svcls	0x00300002
     7c4:	000001c4 	andeq	r0, r0, r4, asr #3
     7c8:	000001ca 	andeq	r0, r0, sl, asr #3
     7cc:	ca530001 	bgt	14c07d8 <_Min_Stack_Size+0x14c03d8>
     7d0:	d4000001 	strle	r0, [r0], #-1
     7d4:	01000001 	tsteq	r0, r1
     7d8:	00005000 	andeq	r5, r0, r0
     7dc:	00000000 	andeq	r0, r0, r0
     7e0:	01d40000 	bicseq	r0, r4, r0
     7e4:	01e00000 	mvneq	r0, r0
     7e8:	00010000 	andeq	r0, r1, r0
     7ec:	0001e050 	andeq	lr, r1, r0, asr r0
     7f0:	0001e800 	andeq	lr, r1, r0, lsl #16
     7f4:	f3000400 	vshl.u8	d0, d0, d0
     7f8:	009f5001 	addseq	r5, pc, r1
     7fc:	00000000 	andeq	r0, r0, r0
     800:	d4000000 	strle	r0, [r0], #-0
     804:	d8000001 	stmdale	r0, {r0}
     808:	02000001 	andeq	r0, r0, #1
     80c:	d89f3000 	ldmle	pc, {ip, sp}	; <UNPREDICTABLE>
     810:	e0000001 	and	r0, r0, r1
     814:	01000001 	tsteq	r0, r1
     818:	01e05300 	mvneq	r5, r0, lsl #6
     81c:	01e80000 	mvneq	r0, r0
     820:	00010000 	andeq	r0, r1, r0
     824:	00000050 	andeq	r0, r0, r0, asr r0
     828:	00000000 	andeq	r0, r0, r0
     82c:	0001e800 	andeq	lr, r1, r0, lsl #16
     830:	0001ee00 	andeq	lr, r1, r0, lsl #28
     834:	30000200 	andcc	r0, r0, r0, lsl #4
     838:	0001ee9f 	muleq	r1, pc, lr	; <UNPREDICTABLE>
     83c:	0001f200 	andeq	pc, r1, r0, lsl #4
     840:	73000500 	movwvc	r0, #1280	; 0x500
     844:	9f1a3c00 	svcls	0x001a3c00
     848:	000001f2 	strdeq	r0, [r0], -r2
     84c:	000001fc 	strdeq	r0, [r0], -ip
     850:	04530001 	ldrbeq	r0, [r3], #-1
     854:	08000002 	stmdaeq	r0, {r1}
     858:	06000002 	streq	r0, [r0], -r2
     85c:	08007400 	stmdaeq	r0, {sl, ip, sp, lr}
     860:	089f1af0 	ldmeq	pc, {r4, r5, r6, r7, r9, fp, ip}	; <UNPREDICTABLE>
     864:	0a000002 	beq	874 <_Min_Stack_Size+0x474>
     868:	01000002 	tsteq	r0, r2
     86c:	02105400 	andseq	r5, r0, #0, 8
     870:	02140000 	andseq	r0, r4, #0
     874:	00070000 	andeq	r0, r7, r0
     878:	000a0074 	andeq	r0, sl, r4, ror r0
     87c:	149f1a1c 	ldrne	r1, [pc], #2588	; 884 <_Min_Stack_Size+0x484>
     880:	16000002 	strne	r0, [r0], -r2
     884:	01000002 	tsteq	r0, r2
     888:	021e5400 	andseq	r5, lr, #0, 8
     88c:	02260000 	eoreq	r0, r6, #0
     890:	00070000 	andeq	r0, r7, r0
     894:	000a0072 	andeq	r0, sl, r2, ror r0
     898:	269f1ae0 	ldrcs	r1, [pc], r0, ror #21
     89c:	28000002 	stmdacs	r0, {r1}
     8a0:	01000002 	tsteq	r0, r2
     8a4:	022e5200 	eoreq	r5, lr, #0, 4
     8a8:	02300000 	eorseq	r0, r0, #0
     8ac:	00010000 	andeq	r0, r1, r0
     8b0:	00023453 	andeq	r3, r2, r3, asr r4
     8b4:	00023600 	andeq	r3, r2, r0, lsl #12
     8b8:	53000100 	movwpl	r0, #256	; 0x100
	...
     8c4:	000001e8 	andeq	r0, r0, r8, ror #3
     8c8:	0000020a 	andeq	r0, r0, sl, lsl #4
     8cc:	9f300002 	svcls	0x00300002
     8d0:	0000020a 	andeq	r0, r0, sl, lsl #4
     8d4:	00000210 	andeq	r0, r0, r0, lsl r2
     8d8:	16540001 	ldrbne	r0, [r4], -r1
     8dc:	1a000002 	bne	8ec <_Min_Stack_Size+0x4ec>
     8e0:	01000002 	tsteq	r0, r2
     8e4:	02285400 	eoreq	r5, r8, #0, 8
     8e8:	022e0000 	eoreq	r0, lr, #0
     8ec:	00010000 	andeq	r0, r1, r0
     8f0:	00022e52 	andeq	r2, r2, r2, asr lr
     8f4:	00028000 	andeq	r8, r2, r0
     8f8:	30000200 	andcc	r0, r0, r0, lsl #4
     8fc:	0000009f 	muleq	r0, pc, r0	; <UNPREDICTABLE>
     900:	00000000 	andeq	r0, r0, r0
     904:	0001e800 	andeq	lr, r1, r0, lsl #16
     908:	0001fe00 	andeq	pc, r1, r0, lsl #28
     90c:	30000200 	andcc	r0, r0, r0, lsl #4
     910:	00022e9f 	muleq	r2, pc, lr	; <UNPREDICTABLE>
     914:	00025c00 	andeq	r5, r2, r0, lsl #24
     918:	30000200 	andcc	r0, r0, r0, lsl #4
     91c:	00025c9f 	muleq	r2, pc, ip	; <UNPREDICTABLE>
     920:	00028000 	andeq	r8, r2, r0
     924:	52000100 	andpl	r0, r0, #0, 2
	...
     930:	000001e8 	andeq	r0, r0, r8, ror #3
     934:	000001fe 	strdeq	r0, [r0], -lr
     938:	9f320002 	svcls	0x00320002
     93c:	0000022e 	andeq	r0, r0, lr, lsr #4
     940:	00000260 	andeq	r0, r0, r0, ror #4
     944:	9f320002 	svcls	0x00320002
     948:	00000260 	andeq	r0, r0, r0, ror #4
     94c:	00000264 	andeq	r0, r0, r4, ror #4
     950:	0073000d 	rsbseq	r0, r3, sp
     954:	1a243d48 	bne	90fe7c <_Min_Stack_Size+0x90fa7c>
     958:	01232540 			; <UNDEFINED> instruction: 0x01232540
     95c:	009f2431 	addseq	r2, pc, r1, lsr r4	; <UNPREDICTABLE>
     960:	00000000 	andeq	r0, r0, r0
     964:	e8000000 	stmda	r0, {}	; <UNPREDICTABLE>
     968:	fe000001 	cdp2	0, 0, cr0, cr0, cr1, {0}
     96c:	02000001 	andeq	r0, r0, #1
     970:	2e9f3000 	cdpcs	0, 9, cr3, cr15, cr0, {0}
     974:	36000002 	strcc	r0, [r0], -r2
     978:	02000002 	andeq	r0, r0, #2
     97c:	369f3000 	ldrcc	r3, [pc], r0
     980:	3e000002 	cdpcc	0, 0, cr0, cr0, cr2, {0}
     984:	09000002 	stmdbeq	r0, {r1}
     988:	40007300 	andmi	r7, r0, r0, lsl #6
     98c:	461a2442 	ldrmi	r2, [sl], -r2, asr #8
     990:	00009f25 	andeq	r9, r0, r5, lsr #30
     994:	00000000 	andeq	r0, r0, r0
     998:	01e80000 	mvneq	r0, r0
     99c:	01fe0000 	mvnseq	r0, r0
     9a0:	00020000 	andeq	r0, r2, r0
     9a4:	022e9f32 	eoreq	r9, lr, #50, 30	; 0xc8
     9a8:	02460000 	subeq	r0, r6, #0
     9ac:	00020000 	andeq	r0, r2, r0
     9b0:	02469f32 	subeq	r9, r6, #50, 30	; 0xc8
     9b4:	025c0000 	subseq	r0, ip, #0
     9b8:	00010000 	andeq	r0, r1, r0
     9bc:	00000052 	andeq	r0, r0, r2, asr r0
     9c0:	00000000 	andeq	r0, r0, r0
     9c4:	00028000 	andeq	r8, r2, r0
     9c8:	0002a600 	andeq	sl, r2, r0, lsl #12
     9cc:	50000100 	andpl	r0, r0, r0, lsl #2
     9d0:	000002a6 	andeq	r0, r0, r6, lsr #5
     9d4:	000002b0 			; <UNDEFINED> instruction: 0x000002b0
     9d8:	01f30004 	mvnseq	r0, r4
     9dc:	00009f50 	andeq	r9, r0, r0, asr pc
     9e0:	00000000 	andeq	r0, r0, r0
     9e4:	02800000 	addeq	r0, r0, #0
     9e8:	028e0000 	addeq	r0, lr, #0
     9ec:	00020000 	andeq	r0, r2, r0
     9f0:	028e9f30 	addeq	r9, lr, #48, 30	; 0xc0
     9f4:	029e0000 	addseq	r0, lr, #0
     9f8:	00010000 	andeq	r0, r1, r0
     9fc:	00000053 	andeq	r0, r0, r3, asr r0
     a00:	00000000 	andeq	r0, r0, r0
     a04:	0002d400 	andeq	sp, r2, r0, lsl #8
     a08:	0002e000 	andeq	lr, r2, r0
     a0c:	50000100 	andpl	r0, r0, r0, lsl #2
     a10:	000002e0 	andeq	r0, r0, r0, ror #5
     a14:	000002ec 	andeq	r0, r0, ip, ror #5
     a18:	01f30004 	mvnseq	r0, r4
     a1c:	00009f50 	andeq	r9, r0, r0, asr pc
     a20:	00000000 	andeq	r0, r0, r0
     a24:	02d40000 	sbcseq	r0, r4, #0
     a28:	02da0000 	sbcseq	r0, sl, #0
     a2c:	00020000 	andeq	r0, r2, r0
     a30:	02da9f30 	sbcseq	r9, sl, #48, 30	; 0xc0
     a34:	02e00000 	rsceq	r0, r0, #0
     a38:	00010000 	andeq	r0, r1, r0
     a3c:	0002e053 	andeq	lr, r2, r3, asr r0
     a40:	0002ec00 	andeq	lr, r2, r0, lsl #24
     a44:	50000100 	andpl	r0, r0, r0, lsl #2
	...
     a50:	000002ec 	andeq	r0, r0, ip, ror #5
     a54:	000002f8 	strdeq	r0, [r0], -r8
     a58:	f8500001 			; <UNDEFINED> instruction: 0xf8500001
     a5c:	04000002 	streq	r0, [r0], #-2
     a60:	04000003 	streq	r0, [r0], #-3
     a64:	5001f300 	andpl	pc, r1, r0, lsl #6
     a68:	0000009f 	muleq	r0, pc, r0	; <UNPREDICTABLE>
     a6c:	00000000 	andeq	r0, r0, r0
     a70:	0002ec00 	andeq	lr, r2, r0, lsl #24
     a74:	0002f200 	andeq	pc, r2, r0, lsl #4
     a78:	30000200 	andcc	r0, r0, r0, lsl #4
     a7c:	0002f29f 	muleq	r2, pc, r2	; <UNPREDICTABLE>
     a80:	0002f800 	andeq	pc, r2, r0, lsl #16
     a84:	53000100 	movwpl	r0, #256	; 0x100
     a88:	000002f8 	strdeq	r0, [r0], -r8
     a8c:	00000304 	andeq	r0, r0, r4, lsl #6
     a90:	00500001 	subseq	r0, r0, r1
     a94:	00000000 	andeq	r0, r0, r0
     a98:	04000000 	streq	r0, [r0], #-0
     a9c:	0c000003 	stceq	0, cr0, [r0], {3}
     aa0:	01000003 	tsteq	r0, r3
     aa4:	030c5000 	movweq	r5, #49152	; 0xc000
     aa8:	031c0000 	tsteq	ip, #0
     aac:	00030000 	andeq	r0, r3, r0
     ab0:	009f0170 	addseq	r0, pc, r0, ror r1	; <UNPREDICTABLE>
     ab4:	00000000 	andeq	r0, r0, r0
     ab8:	04000000 	streq	r0, [r0], #-0
     abc:	0a000003 	beq	ad0 <_Min_Stack_Size+0x6d0>
     ac0:	02000003 	andeq	r0, r0, #3
     ac4:	0a9f3000 	beq	fe7ccacc <_estack+0xde7acacd>
     ac8:	1c000003 	stcne	0, cr0, [r0], {3}
     acc:	01000003 	tsteq	r0, r3
     ad0:	00005300 	andeq	r5, r0, r0, lsl #6
     ad4:	00000000 	andeq	r0, r0, r0
     ad8:	031c0000 	tsteq	ip, #0
     adc:	03240000 			; <UNDEFINED> instruction: 0x03240000
     ae0:	00010000 	andeq	r0, r1, r0
     ae4:	00032450 	andeq	r2, r3, r0, asr r4
     ae8:	00033800 	andeq	r3, r3, r0, lsl #16
     aec:	70000300 	andvc	r0, r0, r0, lsl #6
     af0:	00009f01 	andeq	r9, r0, r1, lsl #30
     af4:	00000000 	andeq	r0, r0, r0
     af8:	031c0000 	tsteq	ip, #0
     afc:	03220000 			; <UNDEFINED> instruction: 0x03220000
     b00:	00020000 	andeq	r0, r2, r0
     b04:	03229f30 			; <UNDEFINED> instruction: 0x03229f30
     b08:	03380000 	teqeq	r8, #0
     b0c:	00010000 	andeq	r0, r1, r0
     b10:	00000053 	andeq	r0, r0, r3, asr r0
     b14:	00000000 	andeq	r0, r0, r0
     b18:	00033800 	andeq	r3, r3, r0, lsl #16
     b1c:	00034400 	andeq	r4, r3, r0, lsl #8
     b20:	50000100 	andpl	r0, r0, r0, lsl #2
     b24:	00000344 	andeq	r0, r0, r4, asr #6
     b28:	00000350 	andeq	r0, r0, r0, asr r3
     b2c:	01f30004 	mvnseq	r0, r4
     b30:	00009f50 	andeq	r9, r0, r0, asr pc
     b34:	00000000 	andeq	r0, r0, r0
     b38:	03380000 	teqeq	r8, #0
     b3c:	033e0000 	teqeq	lr, #0
     b40:	00020000 	andeq	r0, r2, r0
     b44:	033e9f30 	teqeq	lr, #48, 30	; 0xc0
     b48:	03440000 	movteq	r0, #16384	; 0x4000
     b4c:	00010000 	andeq	r0, r1, r0
     b50:	00034453 	andeq	r4, r3, r3, asr r4
     b54:	00035000 	andeq	r5, r3, r0
     b58:	50000100 	andpl	r0, r0, r0, lsl #2
	...
     b64:	0000035c 	andeq	r0, r0, ip, asr r3
     b68:	00000366 	andeq	r0, r0, r6, ror #6
     b6c:	66500001 	ldrbvs	r0, [r0], -r1
     b70:	6a000003 	bvs	b84 <_Min_Stack_Size+0x784>
     b74:	04000003 	streq	r0, [r0], #-3
     b78:	5001f300 	andpl	pc, r1, r0, lsl #6
     b7c:	00036a9f 	muleq	r3, pc, sl	; <UNPREDICTABLE>
     b80:	00036c00 	andeq	r6, r3, r0, lsl #24
     b84:	50000100 	andpl	r0, r0, r0, lsl #2
     b88:	0000036c 	andeq	r0, r0, ip, ror #6
     b8c:	00000374 	andeq	r0, r0, r4, ror r3
     b90:	01f30004 	mvnseq	r0, r4
     b94:	00009f50 	andeq	r9, r0, r0, asr pc
     b98:	00000000 	andeq	r0, r0, r0
     b9c:	03740000 	cmneq	r4, #0
     ba0:	037e0000 	cmneq	lr, #0
     ba4:	00010000 	andeq	r0, r1, r0
     ba8:	00037e50 	andeq	r7, r3, r0, asr lr
     bac:	00038200 	andeq	r8, r3, r0, lsl #4
     bb0:	f3000400 	vshl.u8	d0, d0, d0
     bb4:	829f5001 	addshi	r5, pc, #1
     bb8:	84000003 	strhi	r0, [r0], #-3
     bbc:	01000003 	tsteq	r0, r3
     bc0:	03845000 	orreq	r5, r4, #0
     bc4:	038c0000 	orreq	r0, ip, #0
     bc8:	00040000 	andeq	r0, r4, r0
     bcc:	9f5001f3 	svcls	0x005001f3
	...
     bd8:	0000038c 	andeq	r0, r0, ip, lsl #7
     bdc:	00000396 	muleq	r0, r6, r3
     be0:	96500001 	ldrbls	r0, [r0], -r1
     be4:	9a000003 	bls	bf8 <_Min_Stack_Size+0x7f8>
     be8:	04000003 	streq	r0, [r0], #-3
     bec:	5001f300 	andpl	pc, r1, r0, lsl #6
     bf0:	00039a9f 	muleq	r3, pc, sl	; <UNPREDICTABLE>
     bf4:	00039c00 	andeq	r9, r3, r0, lsl #24
     bf8:	50000100 	andpl	r0, r0, r0, lsl #2
     bfc:	0000039c 	muleq	r0, ip, r3
     c00:	000003a4 	andeq	r0, r0, r4, lsr #7
     c04:	01f30004 	mvnseq	r0, r4
     c08:	00009f50 	andeq	r9, r0, r0, asr pc
     c0c:	00000000 	andeq	r0, r0, r0
     c10:	03a40000 			; <UNDEFINED> instruction: 0x03a40000
     c14:	03ae0000 			; <UNDEFINED> instruction: 0x03ae0000
     c18:	00010000 	andeq	r0, r1, r0
     c1c:	0003ae50 	andeq	sl, r3, r0, asr lr
     c20:	0003b200 	andeq	fp, r3, r0, lsl #4
     c24:	f3000400 	vshl.u8	d0, d0, d0
     c28:	b29f5001 	addslt	r5, pc, #1
     c2c:	b4000003 	strlt	r0, [r0], #-3
     c30:	01000003 	tsteq	r0, r3
     c34:	03b45000 			; <UNDEFINED> instruction: 0x03b45000
     c38:	03bc0000 			; <UNDEFINED> instruction: 0x03bc0000
     c3c:	00040000 	andeq	r0, r4, r0
     c40:	9f5001f3 	svcls	0x005001f3
	...
     c4c:	000003bc 			; <UNDEFINED> instruction: 0x000003bc
     c50:	000003c6 	andeq	r0, r0, r6, asr #7
     c54:	c6500001 	ldrbgt	r0, [r0], -r1
     c58:	ca000003 	bgt	c6c <_Min_Stack_Size+0x86c>
     c5c:	04000003 	streq	r0, [r0], #-3
     c60:	5001f300 	andpl	pc, r1, r0, lsl #6
     c64:	0003ca9f 	muleq	r3, pc, sl	; <UNPREDICTABLE>
     c68:	0003cc00 	andeq	ip, r3, r0, lsl #24
     c6c:	50000100 	andpl	r0, r0, r0, lsl #2
     c70:	000003cc 	andeq	r0, r0, ip, asr #7
     c74:	000003d4 	ldrdeq	r0, [r0], -r4
     c78:	01f30004 	mvnseq	r0, r4
     c7c:	00009f50 	andeq	r9, r0, r0, asr pc
     c80:	00000000 	andeq	r0, r0, r0
     c84:	03d40000 	bicseq	r0, r4, #0
     c88:	03de0000 	bicseq	r0, lr, #0
     c8c:	00010000 	andeq	r0, r1, r0
     c90:	0003de50 	andeq	sp, r3, r0, asr lr
     c94:	0003e200 	andeq	lr, r3, r0, lsl #4
     c98:	f3000400 	vshl.u8	d0, d0, d0
     c9c:	e29f5001 	adds	r5, pc, #1
     ca0:	e4000003 	str	r0, [r0], #-3
     ca4:	01000003 	tsteq	r0, r3
     ca8:	03e45000 	mvneq	r5, #0
     cac:	03ec0000 	mvneq	r0, #0
     cb0:	00040000 	andeq	r0, r4, r0
     cb4:	9f5001f3 	svcls	0x005001f3
	...
     cc0:	000003ec 	andeq	r0, r0, ip, ror #7
     cc4:	000003f6 	strdeq	r0, [r0], -r6
     cc8:	f6500001 			; <UNDEFINED> instruction: 0xf6500001
     ccc:	fa000003 	blx	ce0 <_Min_Stack_Size+0x8e0>
     cd0:	04000003 	streq	r0, [r0], #-3
     cd4:	5001f300 	andpl	pc, r1, r0, lsl #6
     cd8:	0003fa9f 	muleq	r3, pc, sl	; <UNPREDICTABLE>
     cdc:	0003fc00 	andeq	pc, r3, r0, lsl #24
     ce0:	50000100 	andpl	r0, r0, r0, lsl #2
     ce4:	000003fc 	strdeq	r0, [r0], -ip
     ce8:	00000404 	andeq	r0, r0, r4, lsl #8
     cec:	01f30004 	mvnseq	r0, r4
     cf0:	00009f50 	andeq	r9, r0, r0, asr pc
     cf4:	00000000 	andeq	r0, r0, r0
     cf8:	04040000 	streq	r0, [r4], #-0
     cfc:	040e0000 	streq	r0, [lr], #-0
     d00:	00010000 	andeq	r0, r1, r0
     d04:	00040e50 	andeq	r0, r4, r0, asr lr
     d08:	00041200 	andeq	r1, r4, r0, lsl #4
     d0c:	f3000400 	vshl.u8	d0, d0, d0
     d10:	129f5001 	addsne	r5, pc, #1
     d14:	14000004 	strne	r0, [r0], #-4
     d18:	01000004 	tsteq	r0, r4
     d1c:	04145000 	ldreq	r5, [r4], #-0
     d20:	041c0000 	ldreq	r0, [ip], #-0
     d24:	00040000 	andeq	r0, r4, r0
     d28:	9f5001f3 	svcls	0x005001f3
	...
     d34:	0000041c 	andeq	r0, r0, ip, lsl r4
     d38:	00000426 	andeq	r0, r0, r6, lsr #8
     d3c:	26500001 	ldrbcs	r0, [r0], -r1
     d40:	2a000004 	bcs	d58 <_Min_Stack_Size+0x958>
     d44:	04000004 	streq	r0, [r0], #-4
     d48:	5001f300 	andpl	pc, r1, r0, lsl #6
     d4c:	00042a9f 	muleq	r4, pc, sl	; <UNPREDICTABLE>
     d50:	00042c00 	andeq	r2, r4, r0, lsl #24
     d54:	50000100 	andpl	r0, r0, r0, lsl #2
     d58:	0000042c 	andeq	r0, r0, ip, lsr #8
     d5c:	00000434 	andeq	r0, r0, r4, lsr r4
     d60:	01f30004 	mvnseq	r0, r4
     d64:	00009f50 	andeq	r9, r0, r0, asr pc
     d68:	00000000 	andeq	r0, r0, r0
     d6c:	04340000 	ldrteq	r0, [r4], #-0
     d70:	043e0000 	ldrteq	r0, [lr], #-0
     d74:	00010000 	andeq	r0, r1, r0
     d78:	00043e50 	andeq	r3, r4, r0, asr lr
     d7c:	00044200 	andeq	r4, r4, r0, lsl #4
     d80:	f3000400 	vshl.u8	d0, d0, d0
     d84:	429f5001 	addsmi	r5, pc, #1
     d88:	44000004 	strmi	r0, [r0], #-4
     d8c:	01000004 	tsteq	r0, r4
     d90:	04445000 	strbeq	r5, [r4], #-0
     d94:	044c0000 	strbeq	r0, [ip], #-0
     d98:	00040000 	andeq	r0, r4, r0
     d9c:	9f5001f3 	svcls	0x005001f3
	...
     da8:	0000044c 	andeq	r0, r0, ip, asr #8
     dac:	00000456 	andeq	r0, r0, r6, asr r4
     db0:	56500001 	ldrbpl	r0, [r0], -r1
     db4:	5a000004 	bpl	dcc <_Min_Stack_Size+0x9cc>
     db8:	04000004 	streq	r0, [r0], #-4
     dbc:	5001f300 	andpl	pc, r1, r0, lsl #6
     dc0:	00045a9f 	muleq	r4, pc, sl	; <UNPREDICTABLE>
     dc4:	00045c00 	andeq	r5, r4, r0, lsl #24
     dc8:	50000100 	andpl	r0, r0, r0, lsl #2
     dcc:	0000045c 	andeq	r0, r0, ip, asr r4
     dd0:	00000464 	andeq	r0, r0, r4, ror #8
     dd4:	01f30004 	mvnseq	r0, r4
     dd8:	00009f50 	andeq	r9, r0, r0, asr pc
     ddc:	00000000 	andeq	r0, r0, r0
     de0:	04640000 	strbteq	r0, [r4], #-0
     de4:	046e0000 	strbteq	r0, [lr], #-0
     de8:	00010000 	andeq	r0, r1, r0
     dec:	00046e50 	andeq	r6, r4, r0, asr lr
     df0:	00047200 	andeq	r7, r4, r0, lsl #4
     df4:	f3000400 	vshl.u8	d0, d0, d0
     df8:	729f5001 	addsvc	r5, pc, #1
     dfc:	74000004 	strvc	r0, [r0], #-4
     e00:	01000004 	tsteq	r0, r4
     e04:	04745000 	ldrbteq	r5, [r4], #-0
     e08:	047c0000 	ldrbteq	r0, [ip], #-0
     e0c:	00040000 	andeq	r0, r4, r0
     e10:	9f5001f3 	svcls	0x005001f3
	...
     e1c:	0000047c 	andeq	r0, r0, ip, ror r4
     e20:	00000486 	andeq	r0, r0, r6, lsl #9
     e24:	86500001 	ldrbhi	r0, [r0], -r1
     e28:	8a000004 	bhi	e40 <_Min_Stack_Size+0xa40>
     e2c:	04000004 	streq	r0, [r0], #-4
     e30:	5001f300 	andpl	pc, r1, r0, lsl #6
     e34:	00048a9f 	muleq	r4, pc, sl	; <UNPREDICTABLE>
     e38:	00048c00 	andeq	r8, r4, r0, lsl #24
     e3c:	50000100 	andpl	r0, r0, r0, lsl #2
     e40:	0000048c 	andeq	r0, r0, ip, lsl #9
     e44:	00000494 	muleq	r0, r4, r4
     e48:	01f30004 	mvnseq	r0, r4
     e4c:	00009f50 	andeq	r9, r0, r0, asr pc
     e50:	00000000 	andeq	r0, r0, r0
     e54:	04940000 	ldreq	r0, [r4], #0
     e58:	049e0000 	ldreq	r0, [lr], #0
     e5c:	00010000 	andeq	r0, r1, r0
     e60:	00049e50 	andeq	r9, r4, r0, asr lr
     e64:	0004a200 	andeq	sl, r4, r0, lsl #4
     e68:	f3000400 	vshl.u8	d0, d0, d0
     e6c:	a29f5001 	addsge	r5, pc, #1
     e70:	a4000004 	strge	r0, [r0], #-4
     e74:	01000004 	tsteq	r0, r4
     e78:	04a45000 	strteq	r5, [r4], #0
     e7c:	04ac0000 	strteq	r0, [ip], #0
     e80:	00040000 	andeq	r0, r4, r0
     e84:	9f5001f3 	svcls	0x005001f3
	...
     e90:	000004ac 	andeq	r0, r0, ip, lsr #9
     e94:	000004b6 			; <UNDEFINED> instruction: 0x000004b6
     e98:	b6500001 	ldrblt	r0, [r0], -r1
     e9c:	ba000004 	blt	eb4 <_Min_Stack_Size+0xab4>
     ea0:	04000004 	streq	r0, [r0], #-4
     ea4:	5001f300 	andpl	pc, r1, r0, lsl #6
     ea8:	0004ba9f 	muleq	r4, pc, sl	; <UNPREDICTABLE>
     eac:	0004bc00 	andeq	fp, r4, r0, lsl #24
     eb0:	50000100 	andpl	r0, r0, r0, lsl #2
     eb4:	000004bc 			; <UNDEFINED> instruction: 0x000004bc
     eb8:	000004c4 	andeq	r0, r0, r4, asr #9
     ebc:	01f30004 	mvnseq	r0, r4
     ec0:	00009f50 	andeq	r9, r0, r0, asr pc
     ec4:	00000000 	andeq	r0, r0, r0
     ec8:	04dc0000 	ldrbeq	r0, [ip], #0
     ecc:	04e60000 	strbteq	r0, [r6], #0
     ed0:	00010000 	andeq	r0, r1, r0
     ed4:	0004e650 	andeq	lr, r4, r0, asr r6
     ed8:	0004ea00 	andeq	lr, r4, r0, lsl #20
     edc:	f3000400 	vshl.u8	d0, d0, d0
     ee0:	ea9f5001 	b	fe7d4eec <_estack+0xde7b4eed>
     ee4:	ec000004 	stc	0, cr0, [r0], {4}
     ee8:	01000004 	tsteq	r0, r4
     eec:	04ec5000 	strbteq	r5, [ip], #0
     ef0:	04f40000 	ldrbteq	r0, [r4], #0
     ef4:	00040000 	andeq	r0, r4, r0
     ef8:	9f5001f3 	svcls	0x005001f3
	...
     f04:	000004f4 	strdeq	r0, [r0], -r4
     f08:	0000050c 	andeq	r0, r0, ip, lsl #10
     f0c:	0c500001 	mrrceq	0, 0, r0, r0, cr1	; <UNPREDICTABLE>
     f10:	12000005 	andne	r0, r0, #5
     f14:	04000005 	streq	r0, [r0], #-5
     f18:	5001f300 	andpl	pc, r1, r0, lsl #6
     f1c:	0005129f 	muleq	r5, pc, r2	; <UNPREDICTABLE>
     f20:	00051e00 	andeq	r1, r5, r0, lsl #28
     f24:	50000100 	andpl	r0, r0, r0, lsl #2
     f28:	0000051e 	andeq	r0, r0, lr, lsl r5
     f2c:	00000528 	andeq	r0, r0, r8, lsr #10
     f30:	01f30004 	mvnseq	r0, r4
     f34:	00009f50 	andeq	r9, r0, r0, asr pc
     f38:	00000000 	andeq	r0, r0, r0
     f3c:	04f40000 	ldrbteq	r0, [r4], #0
     f40:	04f60000 	ldrbteq	r0, [r6], #0
     f44:	00020000 	andeq	r0, r2, r0
     f48:	04f69f30 	ldrbteq	r9, [r6], #3888	; 0xf30
     f4c:	04fe0000 	ldrbteq	r0, [lr], #0
     f50:	00060000 	andeq	r0, r6, r0
     f54:	ff080073 			; <UNDEFINED> instruction: 0xff080073
     f58:	04fe9f1a 	ldrbteq	r9, [lr], #3866	; 0xf1a
     f5c:	05040000 	streq	r0, [r4, #-0]
     f60:	00080000 	andeq	r0, r8, r0
     f64:	25350070 	ldrcs	r0, [r5, #-112]!	; 0x70
     f68:	9f1aff08 	svcls	0x001aff08
     f6c:	00000504 	andeq	r0, r0, r4, lsl #10
     f70:	0000050c 	andeq	r0, r0, ip, lsl #10
     f74:	00700008 	rsbseq	r0, r0, r8
     f78:	ff081a4f 			; <UNDEFINED> instruction: 0xff081a4f
     f7c:	050c9f1a 	streq	r9, [ip, #-3866]	; 0xf1a
     f80:	05120000 	ldreq	r0, [r2, #-0]
     f84:	00090000 	andeq	r0, r9, r0
     f88:	4f5001f3 	svcmi	0x005001f3
     f8c:	1aff081a 	bne	fffc2ffc <_estack+0xdffa2ffd>
     f90:	0005129f 	muleq	r5, pc, r2	; <UNPREDICTABLE>
     f94:	00051400 	andeq	r1, r5, r0, lsl #8
     f98:	73000600 	movwvc	r0, #1536	; 0x600
     f9c:	1aff0800 	bne	fffc2fa4 <_estack+0xdffa2fa5>
     fa0:	0005149f 	muleq	r5, pc, r4	; <UNPREDICTABLE>
     fa4:	00051600 	andeq	r1, r5, r0, lsl #12
     fa8:	70000800 	andvc	r0, r0, r0, lsl #16
     fac:	08253500 	stmdaeq	r5!, {r8, sl, ip, sp}
     fb0:	169f1aff 			; <UNDEFINED> instruction: 0x169f1aff
     fb4:	1e000005 	cdpne	0, 0, cr0, cr0, cr5, {0}
     fb8:	08000005 	stmdaeq	r0, {r0, r2}
     fbc:	4f007000 	svcmi	0x00007000
     fc0:	1aff081a 	bne	fffc3030 <_estack+0xdffa3031>
     fc4:	00051e9f 	muleq	r5, pc, lr	; <UNPREDICTABLE>
     fc8:	00052800 	andeq	r2, r5, r0, lsl #16
     fcc:	f3000900 	vmls.i8	d0, d0, d0
     fd0:	1a4f5001 	bne	13d4fdc <_Min_Stack_Size+0x13d4bdc>
     fd4:	9f1aff08 	svcls	0x001aff08
	...
     fe0:	000004f4 	strdeq	r0, [r0], -r4
     fe4:	00000502 	andeq	r0, r0, r2, lsl #10
     fe8:	9f300002 	svcls	0x00300002
     fec:	00000502 	andeq	r0, r0, r2, lsl #10
     ff0:	00000512 	andeq	r0, r0, r2, lsl r5
     ff4:	12520001 	subsne	r0, r2, #1
     ff8:	16000005 	strne	r0, [r0], -r5
     ffc:	02000005 	andeq	r0, r0, #5
    1000:	169f3000 	ldrne	r3, [pc], r0
    1004:	28000005 	stmdacs	r0, {r0, r2}
    1008:	01000005 	tsteq	r0, r5
    100c:	00005200 	andeq	r5, r0, r0, lsl #4
    1010:	00000000 	andeq	r0, r0, r0
    1014:	04f40000 	ldrbteq	r0, [r4], #0
    1018:	05040000 	streq	r0, [r4, #-0]
    101c:	00020000 	andeq	r0, r2, r0
    1020:	05049f30 	streq	r9, [r4, #-3888]	; 0xf30
    1024:	050c0000 	streq	r0, [ip, #-0]
    1028:	000d0000 	andeq	r0, sp, r0
    102c:	00700072 	rsbseq	r0, r0, r2, ror r0
    1030:	ff081a4f 			; <UNDEFINED> instruction: 0xff081a4f
    1034:	1a31251a 	bne	c4a4a4 <_Min_Stack_Size+0xc4a0a4>
    1038:	00050c9f 	muleq	r5, pc, ip	; <UNPREDICTABLE>
    103c:	00051200 	andeq	r1, r5, r0, lsl #4
    1040:	72000e00 	andvc	r0, r0, #0, 28
    1044:	5001f300 	andpl	pc, r1, r0, lsl #6
    1048:	ff081a4f 			; <UNDEFINED> instruction: 0xff081a4f
    104c:	1a31251a 	bne	c4a4bc <_Min_Stack_Size+0xc4a0bc>
    1050:	0005129f 	muleq	r5, pc, r2	; <UNPREDICTABLE>
    1054:	00051600 	andeq	r1, r5, r0, lsl #12
    1058:	30000200 	andcc	r0, r0, r0, lsl #4
    105c:	0005169f 	muleq	r5, pc, r6	; <UNPREDICTABLE>
    1060:	00051e00 	andeq	r1, r5, r0, lsl #28
    1064:	72000d00 	andvc	r0, r0, #0, 26
    1068:	4f007000 	svcmi	0x00007000
    106c:	1aff081a 	bne	fffc30dc <_estack+0xdffa30dd>
    1070:	9f1a3125 	svcls	0x001a3125
    1074:	0000051e 	andeq	r0, r0, lr, lsl r5
    1078:	00000528 	andeq	r0, r0, r8, lsr #10
    107c:	0072000e 	rsbseq	r0, r2, lr
    1080:	4f5001f3 	svcmi	0x005001f3
    1084:	1aff081a 	bne	fffc30f4 <_estack+0xdffa30f5>
    1088:	9f1a3125 	svcls	0x001a3125
	...
    1094:	00000538 	andeq	r0, r0, r8, lsr r5
    1098:	00000542 	andeq	r0, r0, r2, asr #10
    109c:	42500001 	subsmi	r0, r0, #1
    10a0:	4c000005 	stcmi	0, cr0, [r0], {5}
    10a4:	04000005 	streq	r0, [r0], #-5
    10a8:	5001f300 	andpl	pc, r1, r0, lsl #6
    10ac:	0000009f 	muleq	r0, pc, r0	; <UNPREDICTABLE>
    10b0:	00000000 	andeq	r0, r0, r0
    10b4:	00053800 	andeq	r3, r5, r0, lsl #16
    10b8:	00053c00 	andeq	r3, r5, r0, lsl #24
    10bc:	30000200 	andcc	r0, r0, r0, lsl #4
    10c0:	00053c9f 	muleq	r5, pc, ip	; <UNPREDICTABLE>
    10c4:	00054200 	andeq	r4, r5, r0, lsl #4
    10c8:	70000b00 	andvc	r0, r0, r0, lsl #22
    10cc:	1aff0800 	bne	fffc30d4 <_estack+0xdffa30d5>
    10d0:	301a0073 	andscc	r0, sl, r3, ror r0
    10d4:	05429f2e 	strbeq	r9, [r2, #-3886]	; 0xf2e
    10d8:	054c0000 	strbeq	r0, [ip, #-0]
    10dc:	000c0000 	andeq	r0, ip, r0
    10e0:	085001f3 	ldmdaeq	r0, {r0, r1, r4, r5, r6, r7, r8}^
    10e4:	00731aff 	ldrshteq	r1, [r3], #-175	; 0xffffff51
    10e8:	9f2e301a 	svcls	0x002e301a
	...
    10f4:	00000100 	andeq	r0, r0, r0, lsl #2
    10f8:	00000104 	andeq	r0, r0, r4, lsl #2
    10fc:	9f300002 	svcls	0x00300002
    1100:	00000104 	andeq	r0, r0, r4, lsl #2
    1104:	00000108 	andeq	r0, r0, r8, lsl #2
    1108:	00730005 	rsbseq	r0, r3, r5
    110c:	089f1a3c 	ldmeq	pc, {r2, r3, r4, r5, r9, fp, ip}	; <UNPREDICTABLE>
    1110:	12000001 	andne	r0, r0, #1
    1114:	01000001 	tsteq	r0, r1
    1118:	011e5300 	tsteq	lr, r0, lsl #6
    111c:	01240000 			; <UNDEFINED> instruction: 0x01240000
    1120:	00010000 	andeq	r0, r1, r0
    1124:	00012452 	andeq	r2, r1, r2, asr r4
    1128:	00012600 	andeq	r2, r1, r0, lsl #12
    112c:	53000100 	movwpl	r0, #256	; 0x100
    1130:	0000015e 	andeq	r0, r0, lr, asr r1
    1134:	00000160 	andeq	r0, r0, r0, ror #2
    1138:	00530001 	subseq	r0, r3, r1
	...
    1144:	12000001 	andne	r0, r0, #1
    1148:	02000001 	andeq	r0, r0, #1
    114c:	249f3000 	ldrcs	r3, [pc], #0	; 1154 <_Min_Stack_Size+0xd54>
    1150:	4c000001 	stcmi	0, cr0, [r0], {1}
    1154:	02000001 	andeq	r0, r0, #1
    1158:	4c9f3000 	ldcmi	0, cr3, [pc], {0}
    115c:	5e000001 	cdppl	0, 0, cr0, cr0, cr1, {0}
    1160:	01000001 	tsteq	r0, r1
    1164:	015e5200 	cmpeq	lr, r0, lsl #4
    1168:	01740000 	cmneq	r4, r0
    116c:	00020000 	andeq	r0, r2, r0
    1170:	00009f30 	andeq	r9, r0, r0, lsr pc
    1174:	00000000 	andeq	r0, r0, r0
    1178:	01000000 	mrseq	r0, (UNDEF: 0)
    117c:	01120000 	tsteq	r2, r0
    1180:	00020000 	andeq	r0, r2, r0
    1184:	01249f32 			; <UNDEFINED> instruction: 0x01249f32
    1188:	01500000 	cmpeq	r0, r0
    118c:	00020000 	andeq	r0, r2, r0
    1190:	01509f32 	cmpeq	r0, r2, lsr pc
    1194:	01540000 	cmpeq	r4, r0
    1198:	000d0000 	andeq	r0, sp, r0
    119c:	3d480073 	stclcc	0, cr0, [r8, #-460]	; 0xfffffe34
    11a0:	25401a24 	strbcs	r1, [r0, #-2596]	; 0xa24
    11a4:	24310123 	ldrtcs	r0, [r1], #-291	; 0x123
    11a8:	00015e9f 	muleq	r1, pc, lr	; <UNPREDICTABLE>
    11ac:	00017400 	andeq	r7, r1, r0, lsl #8
    11b0:	32000200 	andcc	r0, r0, #0, 4
    11b4:	0000009f 	muleq	r0, pc, r0	; <UNPREDICTABLE>
    11b8:	00000000 	andeq	r0, r0, r0
    11bc:	00010000 	andeq	r0, r1, r0
    11c0:	00011200 	andeq	r1, r1, r0, lsl #4
    11c4:	30000200 	andcc	r0, r0, r0, lsl #4
    11c8:	0001249f 	muleq	r1, pc, r4	; <UNPREDICTABLE>
    11cc:	00012600 	andeq	r2, r1, r0, lsl #12
    11d0:	30000200 	andcc	r0, r0, r0, lsl #4
    11d4:	0001269f 	muleq	r1, pc, r6	; <UNPREDICTABLE>
    11d8:	00012e00 	andeq	r2, r1, r0, lsl #28
    11dc:	73000900 	movwvc	r0, #2304	; 0x900
    11e0:	24424000 	strbcs	r4, [r2], #-0
    11e4:	9f25461a 	svcls	0x0025461a
    11e8:	0000015e 	andeq	r0, r0, lr, asr r1
    11ec:	00000174 	andeq	r0, r0, r4, ror r1
    11f0:	9f300002 	svcls	0x00300002
	...
    11fc:	00000100 	andeq	r0, r0, r0, lsl #2
    1200:	00000112 	andeq	r0, r0, r2, lsl r1
    1204:	9f320002 	svcls	0x00320002
    1208:	00000124 	andeq	r0, r0, r4, lsr #2
    120c:	00000136 	andeq	r0, r0, r6, lsr r1
    1210:	9f320002 	svcls	0x00320002
    1214:	00000136 	andeq	r0, r0, r6, lsr r1
    1218:	0000014c 	andeq	r0, r0, ip, asr #2
    121c:	5e520001 	cdppl	0, 5, cr0, cr2, cr1, {0}
    1220:	74000001 	strvc	r0, [r0], #-1
    1224:	02000001 	andeq	r0, r0, #1
    1228:	009f3200 	addseq	r3, pc, r0, lsl #4
    122c:	00000000 	andeq	r0, r0, r0
    1230:	Address 0x00001230 is out of bounds.

